;
; File generated by cc65 v 2.18 - N/A
;
	.fopt		compiler,"cc65 v 2.18 - N/A"
	.setcpu		"6502"
	.smart		on
	.autoimport	on
	.case		on
	.debuginfo	off
	.importzp	sp, sreg, regsave, regbank
	.importzp	tmp1, tmp2, tmp3, tmp4, ptr1, ptr2, ptr3, ptr4
	.macpack	longbranch
	.forceimport	__STARTUP__
	.import		_pal_bg
	.import		_pal_spr
	.import		_pal_bright
	.import		_ppu_wait_nmi
	.import		_ppu_off
	.import		_ppu_on_all
	.import		_ppu_mask
	.import		_oam_clear
	.import		_oam_meta_spr
	.import		_music_stop
	.import		_sfx_play
	.import		_pad_poll
	.import		_pad_state
	.import		_bank_spr
	.import		_bank_bg
	.import		_vram_adr
	.import		_vram_unrle
	.import		_memcpy
	.import		_set_vram_buffer
	.import		_multi_vram_buffer_horz
	.import		_clear_vram_buffer
	.import		_get_pad_new
	.import		_get_frame_count
	.import		_set_music_speed
	.import		_check_collision
	.import		_pal_fade_to
	.import		_set_scroll_x
	.import		_set_scroll_y
	.import		_get_ppu_addr
	.import		_set_data_pointer
	.import		_set_mt_pointer
	.import		_buffer_4_mt
	.import		_flush_vram_update2
	.export		_animate_bread_data
	.export		_animate_bread2_data
	.export		_animate_bun_data
	.export		_animate_bun2_data
	.export		_animate_fruit_data
	.export		_animate_wine_data
	.export		_animate_implosion1_data
	.export		_animate_implosion2_data
	.export		_animate_implosion3_data
	.export		_animate_orb0_data
	.export		_animate_meter28_data
	.export		_animate_meter27_data
	.export		_animate_meter26_data
	.export		_animate_meter25_data
	.export		_animate_meter24_data
	.export		_animate_meter23_data
	.export		_animate_meter22_data
	.export		_animate_meter21_data
	.export		_animate_meter20_data
	.export		_animate_meter19_data
	.export		_animate_meter18_data
	.export		_animate_meter17_data
	.export		_animate_meter16_data
	.export		_animate_meter15_data
	.export		_animate_meter14_data
	.export		_animate_meter13_data
	.export		_animate_meter12_data
	.export		_animate_meter11_data
	.export		_animate_meter10_data
	.export		_animate_meter9_data
	.export		_animate_meter8_data
	.export		_animate_meter7_data
	.export		_animate_meter6_data
	.export		_animate_meter5_data
	.export		_animate_meter4_data
	.export		_animate_meter3_data
	.export		_animate_meter2_data
	.export		_animate_meter1_data
	.export		_animate_meter0_data
	.export		_animate_laddertop_data
	.export		_animate_playerclimb1_data
	.export		_animate_playerclimb2_data
	.export		_animate_playerclimbshootleft_data
	.export		_animate_playerclimbshootright_data
	.export		_animate_recoilleft_data
	.export		_animate_skeletonleft_data
	.export		_animate_deathleft1_data
	.export		_animate_deathleft2_data
	.export		_animate_deathleft3_data
	.export		_animate_deathleft4_data
	.export		_animate_deathleft5_data
	.export		_animate_deathleft6_data
	.export		_animate_deathleft7_data
	.export		_animate_deathleft8_data
	.export		_animate_recoilright_data
	.export		_animate_skeletonright_data
	.export		_animate_deathright1_data
	.export		_animate_deathright2_data
	.export		_animate_deathright3_data
	.export		_animate_deathright4_data
	.export		_animate_deathright5_data
	.export		_animate_deathright6_data
	.export		_animate_deathright7_data
	.export		_animate_deathright8_data
	.export		_animate_playerstandright_data
	.export		_animate_playerstandleft_data
	.export		_animate_playerstandshootleft_data
	.export		_animate_playerstandshootright_data
	.export		_animate_playerrun1left_data
	.export		_animate_playerrun2left_data
	.export		_animate_playerrun3left_data
	.export		_animate_playerrun1right_data
	.export		_animate_playerrun2right_data
	.export		_animate_playerrun3right_data
	.export		_animate_playerrunshoot1left_data
	.export		_animate_playerrunshoot2left_data
	.export		_animate_playerrunshoot3left_data
	.export		_animate_playerrunshoot1right_data
	.export		_animate_playerrunshoot2right_data
	.export		_animate_playerrunshoot3right_data
	.export		_animate_playerjumpleft_data
	.export		_animate_playerjumpleftshoot_data
	.export		_animate_playerjumpright_data
	.export		_animate_playerjumprightshoot_data
	.export		_animate_hootyowl1left_data
	.export		_animate_hootyowl2left_data
	.export		_animate_hootyowl3left_data
	.export		_animate_hootyowl4left_data
	.export		_animate_hootyowl5left_data
	.export		_animate_hootyowl1right_data
	.export		_animate_hootyowl2right_data
	.export		_animate_hootyowl3right_data
	.export		_animate_hootyowl4right_data
	.export		_animate_hootyowl5right_data
	.export		_animate_snail1left_data
	.export		_animate_snail2left_data
	.export		_animate_snail3left_data
	.export		_animate_snail1right_data
	.export		_animate_snail2right_data
	.export		_animate_snail3right_data
	.export		_animate_bearstandleft_data
	.export		_animate_bearstandright_data
	.export		_animate_bearroarleft_data
	.export		_animate_bearroarright_data
	.export		_animate_beararms_data
	.export		_animate_beararmsright_data
	.export		_animate_bearwalk1eft_data
	.export		_animate_bearwalk2left_data
	.export		_animate_bearwalk3left_data
	.export		_animate_bearwalkright_data
	.export		_animate_bearwalk2right_data
	.export		_animate_bearwalk3right_data
	.export		_animate_bouldersmall_data
	.export		_animate_starburst1_data
	.export		_animate_starburst2_data
	.export		_animate_starburst3_data
	.export		_animate_slideleft_data
	.export		_animate_slideright_data
	.export		_animate_scroll_data
	.export		_debug
	.export		_pad1
	.export		_pad1_new
	.export		_pad1_state
	.export		_short_jump_count
	.export		_map_loaded
	.export		_collision
	.export		_player_in_air
	.export		_player_is_sliding
	.export		_player_is_running
	.export		_player_on_ladder
	.export		_player_on_ladder_pose
	.export		_player_on_ladder_top
	.export		_player_in_hitstun
	.export		_player_running
	.export		_collision_L
	.export		_collision_R
	.export		_collision_U
	.export		_collision_D
	.export		_coordinates
	.export		_falling_down
	.export		_nametable_to_load
	.export		_temp1
	.export		_temp2
	.export		_temp3
	.export		_temp4
	.export		_multi_jump
	.export		_temp5
	.export		_temp6
	.export		_tempint
	.export		_tempint2
	.export		_temp_playerlocation
	.export		_level
	.export		_offset
	.export		_level_up
	.export		_level_down
	.export		_eject_L
	.export		_eject_R
	.export		_eject_D
	.export		_eject_U
	.export		_direction
	.export		_hit_direction
	.export		_direction_y
	.export		_sprite_frame_counter
	.export		_frame_counter
	.export		_frame_counter2
	.export		_address
	.export		_x
	.export		_y
	.export		_nt
	.export		_index
	.export		_index2
	.export		_room_to_load
	.export		_current_room
	.export		_map
	.export		_scroll_x
	.export		_scroll_y
	.export		_scroll_count
	.export		_pseudo_scroll_x
	.export		_song
	.export		_game_mode
	.export		_pointer
	.export		_l_scroll_frames
	.export		_r_scroll_frames
	.export		_old_x
	.export		_old_y
	.export		_bright
	.export		_bright_count
	.export		_temp
	.export		_temp_x
	.export		_temp_y
	.export		_temp_room
	.export		_player_shooting
	.export		_death
	.export		_death_flag
	.export		_invul_frames
	.export		_projectile_cooldown
	.export		_projectile_count
	.export		_projectile_index
	.export		_projectiles_list
	.export		_projectiles_x
	.export		_projectiles_y
	.export		_sine_wave
	.export		_shuffle_array
	.export		_c_map
	.export		_c_map2
	.export		_Generic
	.export		_Generic2
	.export		_BoxGuy1
	.export		_max_rooms
	.export		_max_scroll
	.export		_enemy_x
	.export		_enemy_y
	.export		_enemy_active
	.export		_enemy_mode
	.export		_enemy_health
	.export		_enemy_room
	.export		_enemy_actual_x
	.export		_enemy_type
	.export		_enemy_dir
	.export		_enemy_anim
	.export		_enemy_frames
	.export		_entity_x
	.export		_entity_y
	.export		_entity_active
	.export		_entity_room
	.export		_entity_actual_x
	.export		_entity_type
	.export		_entity_anim
	.export		_entity_frames
	.export		_palette_bg
	.export		_palette_sp
	.export		_metatile
	.export		_metatile_colision_map
	.export		_level0_0
	.export		_level0_1
	.export		_level0_2
	.export		_level0_3
	.export		_level0_4
	.export		_level0_5
	.export		_level0_6
	.export		_level0_7
	.export		_level1_0
	.export		_level2_0
	.export		_level2_1
	.export		_level2_2
	.export		_level2_3
	.export		_level3_0
	.export		_level4_0
	.export		_level4_1
	.export		_level4_2
	.export		_level4_3
	.export		_level4_4
	.export		_level5_0
	.export		_level6_0
	.export		_level6_1
	.export		_level7_0
	.export		_stage1_levels_list
	.export		_level_max_rooms
	.export		_level_offsets
	.export		_level_0_enemies
	.export		_level_1_enemies
	.export		_level_2_enemies
	.export		_level_3_enemies
	.export		_level_4_enemies
	.export		_level_5_enemies
	.export		_level_6_enemies
	.export		_level_7_enemies
	.export		_Enemy_list
	.export		_level_0_entities
	.export		_level_1_entities
	.export		_level_2_entities
	.export		_level_3_entities
	.export		_level_4_entities
	.export		_level_5_entities
	.export		_level_6_entities
	.export		_entity_list
	.export		_load_room
	.export		_draw_sprites
	.export		_movement
	.export		_bg_collision_sub
	.export		_draw_screen_R
	.export		_draw_screen_L
	.export		_new_cmap
	.export		_handle_scrolling
	.export		_projectile_movement
	.export		_check_spr_objects
	.export		_check_entity_objects
	.export		_sprite_collisions
	.export		_entity_collisions
	.export		_load_title
	.export		_load_victory
	.export		_enemy_moves
	.export		_entity_moves
	.export		_reset
	.export		_sprite_obj_init
	.export		_entity_obj_init
	.export		_init_death
	.export		_level_down_routine
	.export		_level_up_routine
	.export		_enemy_snail_behavior
	.export		_enemy_owl_behavior
	.export		_enemy_bear_behavior
	.export		_bg_coll_L
	.export		_bg_coll_R
	.export		_bg_coll_U
	.export		_bg_coll_D
	.export		_bg_coll_D2
	.export		_get_position
	.export		_bg_collision_fast
	.export		_bg_coll_ladder
	.export		_bg_coll_ladder_top_at_player
	.export		_bg_coll_ladder_top_under_player
	.export		_draw_health_meter
	.export		_draw_player_sprites
	.export		_main
	.export		_titletiled_0
	.export		_gameovertiled_0
	.export		_palette_gameover
	.export		_load_gameover
	.export		_victory
	.export		_palette_victory

.segment	"DATA"

_direction:
	.byte	$01
_direction_y:
	.byte	$01
_room_to_load:
	.byte	$00
_current_room:
	.byte	$00
_projectiles_list:
	.byte	$FF
	.byte	$FF
	.byte	$FF
	.byte	$FF
_projectiles_x:
	.byte	$00
	.byte	$00
	.byte	$00
	.byte	$00
_projectiles_y:
	.byte	$00
	.byte	$00
	.byte	$00
	.byte	$00
_sine_wave:
	.byte	$05
	.byte	$08
	.byte	$0A
	.byte	$0A
	.byte	$08
	.byte	$05
	.byte	$02
	.byte	$00
	.byte	$00
	.byte	$02
_BoxGuy1:
	.word	$4000
	.word	$8400
	.res	5,$00

.segment	"RODATA"

_animate_bread_data:
	.byte	$00
	.byte	$00
	.byte	$0D
	.byte	$00
	.byte	$08
	.byte	$00
	.byte	$0E
	.byte	$00
	.byte	$00
	.byte	$F8
	.byte	$2B
	.byte	$02
	.byte	$08
	.byte	$F8
	.byte	$2B
	.byte	$C2
	.byte	$80
_animate_bread2_data:
	.byte	$00
	.byte	$00
	.byte	$0D
	.byte	$00
	.byte	$08
	.byte	$00
	.byte	$0E
	.byte	$00
	.byte	$00
	.byte	$F8
	.byte	$2B
	.byte	$82
	.byte	$08
	.byte	$F8
	.byte	$2B
	.byte	$42
	.byte	$80
_animate_bun_data:
	.byte	$00
	.byte	$00
	.byte	$1D
	.byte	$00
	.byte	$00
	.byte	$F8
	.byte	$2B
	.byte	$02
	.byte	$80
_animate_bun2_data:
	.byte	$00
	.byte	$00
	.byte	$1D
	.byte	$00
	.byte	$00
	.byte	$F8
	.byte	$2B
	.byte	$C2
	.byte	$80
_animate_fruit_data:
	.byte	$00
	.byte	$00
	.byte	$1E
	.byte	$00
	.byte	$80
_animate_wine_data:
	.byte	$00
	.byte	$00
	.byte	$0F
	.byte	$02
	.byte	$00
	.byte	$08
	.byte	$1F
	.byte	$02
	.byte	$00
	.byte	$01
	.byte	$1C
	.byte	$00
	.byte	$80
_animate_implosion1_data:
	.byte	$00
	.byte	$00
	.byte	$2E
	.byte	$02
	.byte	$08
	.byte	$00
	.byte	$2E
	.byte	$42
	.byte	$00
	.byte	$08
	.byte	$2E
	.byte	$82
	.byte	$08
	.byte	$08
	.byte	$2E
	.byte	$C2
	.byte	$80
_animate_implosion2_data:
	.byte	$04
	.byte	$04
	.byte	$4E
	.byte	$02
	.byte	$04
	.byte	$04
	.byte	$2F
	.byte	$02
	.byte	$80
_animate_implosion3_data:
	.byte	$04
	.byte	$05
	.byte	$4F
	.byte	$02
	.byte	$80
_animate_orb0_data:
	.byte	$00
	.byte	$00
	.byte	$0C
	.byte	$00
	.byte	$80
_animate_meter28_data:
	.byte	$00
	.byte	$00
	.byte	$50
	.byte	$02
	.byte	$00
	.byte	$08
	.byte	$50
	.byte	$02
	.byte	$00
	.byte	$10
	.byte	$50
	.byte	$02
	.byte	$00
	.byte	$18
	.byte	$50
	.byte	$02
	.byte	$00
	.byte	$20
	.byte	$50
	.byte	$02
	.byte	$00
	.byte	$28
	.byte	$50
	.byte	$02
	.byte	$00
	.byte	$30
	.byte	$50
	.byte	$02
	.byte	$80
_animate_meter27_data:
	.byte	$00
	.byte	$00
	.byte	$51
	.byte	$02
	.byte	$00
	.byte	$08
	.byte	$50
	.byte	$02
	.byte	$00
	.byte	$10
	.byte	$50
	.byte	$02
	.byte	$00
	.byte	$18
	.byte	$50
	.byte	$02
	.byte	$00
	.byte	$20
	.byte	$50
	.byte	$02
	.byte	$00
	.byte	$28
	.byte	$50
	.byte	$02
	.byte	$00
	.byte	$30
	.byte	$50
	.byte	$02
	.byte	$80
_animate_meter26_data:
	.byte	$00
	.byte	$00
	.byte	$52
	.byte	$02
	.byte	$00
	.byte	$08
	.byte	$50
	.byte	$02
	.byte	$00
	.byte	$10
	.byte	$50
	.byte	$02
	.byte	$00
	.byte	$18
	.byte	$50
	.byte	$02
	.byte	$00
	.byte	$20
	.byte	$50
	.byte	$02
	.byte	$00
	.byte	$28
	.byte	$50
	.byte	$02
	.byte	$00
	.byte	$30
	.byte	$50
	.byte	$02
	.byte	$80
_animate_meter25_data:
	.byte	$00
	.byte	$00
	.byte	$53
	.byte	$02
	.byte	$00
	.byte	$08
	.byte	$50
	.byte	$02
	.byte	$00
	.byte	$10
	.byte	$50
	.byte	$02
	.byte	$00
	.byte	$18
	.byte	$50
	.byte	$02
	.byte	$00
	.byte	$20
	.byte	$50
	.byte	$02
	.byte	$00
	.byte	$28
	.byte	$50
	.byte	$02
	.byte	$00
	.byte	$30
	.byte	$50
	.byte	$02
	.byte	$80
_animate_meter24_data:
	.byte	$00
	.byte	$00
	.byte	$54
	.byte	$02
	.byte	$00
	.byte	$08
	.byte	$50
	.byte	$02
	.byte	$00
	.byte	$10
	.byte	$50
	.byte	$02
	.byte	$00
	.byte	$18
	.byte	$50
	.byte	$02
	.byte	$00
	.byte	$20
	.byte	$50
	.byte	$02
	.byte	$00
	.byte	$28
	.byte	$50
	.byte	$02
	.byte	$00
	.byte	$30
	.byte	$50
	.byte	$02
	.byte	$80
_animate_meter23_data:
	.byte	$00
	.byte	$00
	.byte	$54
	.byte	$02
	.byte	$00
	.byte	$08
	.byte	$51
	.byte	$02
	.byte	$00
	.byte	$10
	.byte	$50
	.byte	$02
	.byte	$00
	.byte	$18
	.byte	$50
	.byte	$02
	.byte	$00
	.byte	$20
	.byte	$50
	.byte	$02
	.byte	$00
	.byte	$28
	.byte	$50
	.byte	$02
	.byte	$00
	.byte	$30
	.byte	$50
	.byte	$02
	.byte	$80
_animate_meter22_data:
	.byte	$00
	.byte	$00
	.byte	$54
	.byte	$02
	.byte	$00
	.byte	$08
	.byte	$52
	.byte	$02
	.byte	$00
	.byte	$10
	.byte	$50
	.byte	$02
	.byte	$00
	.byte	$18
	.byte	$50
	.byte	$02
	.byte	$00
	.byte	$20
	.byte	$50
	.byte	$02
	.byte	$00
	.byte	$28
	.byte	$50
	.byte	$02
	.byte	$00
	.byte	$30
	.byte	$50
	.byte	$02
	.byte	$80
_animate_meter21_data:
	.byte	$00
	.byte	$00
	.byte	$54
	.byte	$02
	.byte	$00
	.byte	$08
	.byte	$53
	.byte	$02
	.byte	$00
	.byte	$10
	.byte	$50
	.byte	$02
	.byte	$00
	.byte	$18
	.byte	$50
	.byte	$02
	.byte	$00
	.byte	$20
	.byte	$50
	.byte	$02
	.byte	$00
	.byte	$28
	.byte	$50
	.byte	$02
	.byte	$00
	.byte	$30
	.byte	$50
	.byte	$02
	.byte	$80
_animate_meter20_data:
	.byte	$00
	.byte	$00
	.byte	$54
	.byte	$02
	.byte	$00
	.byte	$08
	.byte	$54
	.byte	$02
	.byte	$00
	.byte	$10
	.byte	$50
	.byte	$02
	.byte	$00
	.byte	$18
	.byte	$50
	.byte	$02
	.byte	$00
	.byte	$20
	.byte	$50
	.byte	$02
	.byte	$00
	.byte	$28
	.byte	$50
	.byte	$02
	.byte	$00
	.byte	$30
	.byte	$50
	.byte	$02
	.byte	$80
_animate_meter19_data:
	.byte	$00
	.byte	$00
	.byte	$54
	.byte	$02
	.byte	$00
	.byte	$08
	.byte	$54
	.byte	$02
	.byte	$00
	.byte	$10
	.byte	$51
	.byte	$02
	.byte	$00
	.byte	$18
	.byte	$50
	.byte	$02
	.byte	$00
	.byte	$20
	.byte	$50
	.byte	$02
	.byte	$00
	.byte	$28
	.byte	$50
	.byte	$02
	.byte	$00
	.byte	$30
	.byte	$50
	.byte	$02
	.byte	$80
_animate_meter18_data:
	.byte	$00
	.byte	$00
	.byte	$54
	.byte	$02
	.byte	$00
	.byte	$08
	.byte	$54
	.byte	$02
	.byte	$00
	.byte	$10
	.byte	$52
	.byte	$02
	.byte	$00
	.byte	$18
	.byte	$50
	.byte	$02
	.byte	$00
	.byte	$20
	.byte	$50
	.byte	$02
	.byte	$00
	.byte	$28
	.byte	$50
	.byte	$02
	.byte	$00
	.byte	$30
	.byte	$50
	.byte	$02
	.byte	$80
_animate_meter17_data:
	.byte	$00
	.byte	$00
	.byte	$54
	.byte	$02
	.byte	$00
	.byte	$08
	.byte	$54
	.byte	$02
	.byte	$00
	.byte	$10
	.byte	$53
	.byte	$02
	.byte	$00
	.byte	$18
	.byte	$50
	.byte	$02
	.byte	$00
	.byte	$20
	.byte	$50
	.byte	$02
	.byte	$00
	.byte	$28
	.byte	$50
	.byte	$02
	.byte	$00
	.byte	$30
	.byte	$50
	.byte	$02
	.byte	$80
_animate_meter16_data:
	.byte	$00
	.byte	$00
	.byte	$54
	.byte	$02
	.byte	$00
	.byte	$08
	.byte	$54
	.byte	$02
	.byte	$00
	.byte	$10
	.byte	$54
	.byte	$02
	.byte	$00
	.byte	$18
	.byte	$50
	.byte	$02
	.byte	$00
	.byte	$20
	.byte	$50
	.byte	$02
	.byte	$00
	.byte	$28
	.byte	$50
	.byte	$02
	.byte	$00
	.byte	$30
	.byte	$50
	.byte	$02
	.byte	$80
_animate_meter15_data:
	.byte	$00
	.byte	$00
	.byte	$54
	.byte	$02
	.byte	$00
	.byte	$08
	.byte	$54
	.byte	$02
	.byte	$00
	.byte	$10
	.byte	$54
	.byte	$02
	.byte	$00
	.byte	$18
	.byte	$51
	.byte	$02
	.byte	$00
	.byte	$20
	.byte	$50
	.byte	$02
	.byte	$00
	.byte	$28
	.byte	$50
	.byte	$02
	.byte	$00
	.byte	$30
	.byte	$50
	.byte	$02
	.byte	$80
_animate_meter14_data:
	.byte	$00
	.byte	$00
	.byte	$54
	.byte	$02
	.byte	$00
	.byte	$08
	.byte	$54
	.byte	$02
	.byte	$00
	.byte	$10
	.byte	$54
	.byte	$02
	.byte	$00
	.byte	$18
	.byte	$52
	.byte	$02
	.byte	$00
	.byte	$20
	.byte	$50
	.byte	$02
	.byte	$00
	.byte	$28
	.byte	$50
	.byte	$02
	.byte	$00
	.byte	$30
	.byte	$50
	.byte	$02
	.byte	$80
_animate_meter13_data:
	.byte	$00
	.byte	$00
	.byte	$54
	.byte	$02
	.byte	$00
	.byte	$08
	.byte	$54
	.byte	$02
	.byte	$00
	.byte	$10
	.byte	$54
	.byte	$02
	.byte	$00
	.byte	$18
	.byte	$53
	.byte	$02
	.byte	$00
	.byte	$20
	.byte	$50
	.byte	$02
	.byte	$00
	.byte	$28
	.byte	$50
	.byte	$02
	.byte	$00
	.byte	$30
	.byte	$50
	.byte	$02
	.byte	$80
_animate_meter12_data:
	.byte	$00
	.byte	$00
	.byte	$54
	.byte	$02
	.byte	$00
	.byte	$08
	.byte	$54
	.byte	$02
	.byte	$00
	.byte	$10
	.byte	$54
	.byte	$02
	.byte	$00
	.byte	$18
	.byte	$54
	.byte	$02
	.byte	$00
	.byte	$20
	.byte	$50
	.byte	$02
	.byte	$00
	.byte	$28
	.byte	$50
	.byte	$02
	.byte	$00
	.byte	$30
	.byte	$50
	.byte	$02
	.byte	$80
_animate_meter11_data:
	.byte	$00
	.byte	$00
	.byte	$54
	.byte	$02
	.byte	$00
	.byte	$08
	.byte	$54
	.byte	$02
	.byte	$00
	.byte	$10
	.byte	$54
	.byte	$02
	.byte	$00
	.byte	$18
	.byte	$54
	.byte	$02
	.byte	$00
	.byte	$20
	.byte	$51
	.byte	$02
	.byte	$00
	.byte	$28
	.byte	$50
	.byte	$02
	.byte	$00
	.byte	$30
	.byte	$50
	.byte	$02
	.byte	$80
_animate_meter10_data:
	.byte	$00
	.byte	$00
	.byte	$54
	.byte	$02
	.byte	$00
	.byte	$08
	.byte	$54
	.byte	$02
	.byte	$00
	.byte	$10
	.byte	$54
	.byte	$02
	.byte	$00
	.byte	$18
	.byte	$54
	.byte	$02
	.byte	$00
	.byte	$20
	.byte	$52
	.byte	$02
	.byte	$00
	.byte	$28
	.byte	$50
	.byte	$02
	.byte	$00
	.byte	$30
	.byte	$50
	.byte	$02
	.byte	$80
_animate_meter9_data:
	.byte	$00
	.byte	$00
	.byte	$54
	.byte	$02
	.byte	$00
	.byte	$08
	.byte	$54
	.byte	$02
	.byte	$00
	.byte	$10
	.byte	$54
	.byte	$02
	.byte	$00
	.byte	$18
	.byte	$54
	.byte	$02
	.byte	$00
	.byte	$20
	.byte	$53
	.byte	$02
	.byte	$00
	.byte	$28
	.byte	$50
	.byte	$02
	.byte	$00
	.byte	$30
	.byte	$50
	.byte	$02
	.byte	$80
_animate_meter8_data:
	.byte	$00
	.byte	$00
	.byte	$54
	.byte	$02
	.byte	$00
	.byte	$08
	.byte	$54
	.byte	$02
	.byte	$00
	.byte	$10
	.byte	$54
	.byte	$02
	.byte	$00
	.byte	$18
	.byte	$54
	.byte	$02
	.byte	$00
	.byte	$20
	.byte	$54
	.byte	$02
	.byte	$00
	.byte	$28
	.byte	$50
	.byte	$02
	.byte	$00
	.byte	$30
	.byte	$50
	.byte	$02
	.byte	$80
_animate_meter7_data:
	.byte	$00
	.byte	$00
	.byte	$54
	.byte	$02
	.byte	$00
	.byte	$08
	.byte	$54
	.byte	$02
	.byte	$00
	.byte	$10
	.byte	$54
	.byte	$02
	.byte	$00
	.byte	$18
	.byte	$54
	.byte	$02
	.byte	$00
	.byte	$20
	.byte	$54
	.byte	$02
	.byte	$00
	.byte	$28
	.byte	$51
	.byte	$02
	.byte	$00
	.byte	$30
	.byte	$50
	.byte	$02
	.byte	$80
_animate_meter6_data:
	.byte	$00
	.byte	$00
	.byte	$54
	.byte	$02
	.byte	$00
	.byte	$08
	.byte	$54
	.byte	$02
	.byte	$00
	.byte	$10
	.byte	$54
	.byte	$02
	.byte	$00
	.byte	$18
	.byte	$54
	.byte	$02
	.byte	$00
	.byte	$20
	.byte	$54
	.byte	$02
	.byte	$00
	.byte	$28
	.byte	$52
	.byte	$02
	.byte	$00
	.byte	$30
	.byte	$50
	.byte	$02
	.byte	$80
_animate_meter5_data:
	.byte	$00
	.byte	$00
	.byte	$54
	.byte	$02
	.byte	$00
	.byte	$08
	.byte	$54
	.byte	$02
	.byte	$00
	.byte	$10
	.byte	$54
	.byte	$02
	.byte	$00
	.byte	$18
	.byte	$54
	.byte	$02
	.byte	$00
	.byte	$20
	.byte	$54
	.byte	$02
	.byte	$00
	.byte	$28
	.byte	$53
	.byte	$02
	.byte	$00
	.byte	$30
	.byte	$50
	.byte	$02
	.byte	$80
_animate_meter4_data:
	.byte	$00
	.byte	$00
	.byte	$54
	.byte	$02
	.byte	$00
	.byte	$08
	.byte	$54
	.byte	$02
	.byte	$00
	.byte	$10
	.byte	$54
	.byte	$02
	.byte	$00
	.byte	$18
	.byte	$54
	.byte	$02
	.byte	$00
	.byte	$20
	.byte	$54
	.byte	$02
	.byte	$00
	.byte	$28
	.byte	$54
	.byte	$02
	.byte	$00
	.byte	$30
	.byte	$50
	.byte	$02
	.byte	$80
_animate_meter3_data:
	.byte	$00
	.byte	$00
	.byte	$54
	.byte	$02
	.byte	$00
	.byte	$08
	.byte	$54
	.byte	$02
	.byte	$00
	.byte	$10
	.byte	$54
	.byte	$02
	.byte	$00
	.byte	$18
	.byte	$54
	.byte	$02
	.byte	$00
	.byte	$20
	.byte	$54
	.byte	$02
	.byte	$00
	.byte	$28
	.byte	$54
	.byte	$02
	.byte	$00
	.byte	$30
	.byte	$51
	.byte	$02
	.byte	$80
_animate_meter2_data:
	.byte	$00
	.byte	$00
	.byte	$54
	.byte	$02
	.byte	$00
	.byte	$08
	.byte	$54
	.byte	$02
	.byte	$00
	.byte	$10
	.byte	$54
	.byte	$02
	.byte	$00
	.byte	$18
	.byte	$54
	.byte	$02
	.byte	$00
	.byte	$20
	.byte	$54
	.byte	$02
	.byte	$00
	.byte	$28
	.byte	$54
	.byte	$02
	.byte	$00
	.byte	$30
	.byte	$52
	.byte	$02
	.byte	$80
_animate_meter1_data:
	.byte	$00
	.byte	$00
	.byte	$54
	.byte	$02
	.byte	$00
	.byte	$08
	.byte	$54
	.byte	$02
	.byte	$00
	.byte	$10
	.byte	$54
	.byte	$02
	.byte	$00
	.byte	$18
	.byte	$54
	.byte	$02
	.byte	$00
	.byte	$20
	.byte	$54
	.byte	$02
	.byte	$00
	.byte	$28
	.byte	$54
	.byte	$02
	.byte	$00
	.byte	$30
	.byte	$53
	.byte	$02
	.byte	$80
_animate_meter0_data:
	.byte	$00
	.byte	$00
	.byte	$54
	.byte	$02
	.byte	$00
	.byte	$08
	.byte	$54
	.byte	$02
	.byte	$00
	.byte	$10
	.byte	$54
	.byte	$02
	.byte	$00
	.byte	$18
	.byte	$54
	.byte	$02
	.byte	$00
	.byte	$20
	.byte	$54
	.byte	$02
	.byte	$00
	.byte	$28
	.byte	$54
	.byte	$02
	.byte	$00
	.byte	$30
	.byte	$54
	.byte	$02
	.byte	$80
_animate_laddertop_data:
	.byte	$00
	.byte	$00
	.byte	$57
	.byte	$00
	.byte	$08
	.byte	$00
	.byte	$57
	.byte	$40
	.byte	$00
	.byte	$08
	.byte	$26
	.byte	$00
	.byte	$08
	.byte	$08
	.byte	$36
	.byte	$00
	.byte	$00
	.byte	$F8
	.byte	$55
	.byte	$00
	.byte	$08
	.byte	$F8
	.byte	$56
	.byte	$00
	.byte	$80
_animate_playerclimb1_data:
	.byte	$00
	.byte	$F8
	.byte	$04
	.byte	$00
	.byte	$08
	.byte	$F8
	.byte	$03
	.byte	$00
	.byte	$00
	.byte	$00
	.byte	$14
	.byte	$00
	.byte	$08
	.byte	$00
	.byte	$13
	.byte	$00
	.byte	$00
	.byte	$08
	.byte	$22
	.byte	$00
	.byte	$08
	.byte	$08
	.byte	$25
	.byte	$00
	.byte	$80
_animate_playerclimb2_data:
	.byte	$00
	.byte	$F8
	.byte	$02
	.byte	$00
	.byte	$08
	.byte	$F8
	.byte	$05
	.byte	$00
	.byte	$00
	.byte	$00
	.byte	$12
	.byte	$00
	.byte	$08
	.byte	$00
	.byte	$15
	.byte	$00
	.byte	$00
	.byte	$08
	.byte	$24
	.byte	$00
	.byte	$08
	.byte	$08
	.byte	$23
	.byte	$00
	.byte	$80
_animate_playerclimbshootleft_data:
	.byte	$00
	.byte	$F8
	.byte	$06
	.byte	$00
	.byte	$08
	.byte	$F8
	.byte	$07
	.byte	$00
	.byte	$00
	.byte	$00
	.byte	$16
	.byte	$00
	.byte	$08
	.byte	$00
	.byte	$13
	.byte	$00
	.byte	$00
	.byte	$08
	.byte	$22
	.byte	$00
	.byte	$08
	.byte	$08
	.byte	$25
	.byte	$00
	.byte	$01
	.byte	$F9
	.byte	$0A
	.byte	$02
	.byte	$F8
	.byte	$00
	.byte	$08
	.byte	$00
	.byte	$80
_animate_playerclimbshootright_data:
	.byte	$00
	.byte	$F8
	.byte	$07
	.byte	$40
	.byte	$08
	.byte	$F8
	.byte	$06
	.byte	$40
	.byte	$00
	.byte	$00
	.byte	$12
	.byte	$00
	.byte	$08
	.byte	$00
	.byte	$16
	.byte	$40
	.byte	$00
	.byte	$08
	.byte	$24
	.byte	$00
	.byte	$08
	.byte	$08
	.byte	$23
	.byte	$00
	.byte	$10
	.byte	$00
	.byte	$08
	.byte	$40
	.byte	$07
	.byte	$F9
	.byte	$0A
	.byte	$42
	.byte	$80
_animate_recoilleft_data:
	.byte	$00
	.byte	$F8
	.byte	$29
	.byte	$00
	.byte	$08
	.byte	$F8
	.byte	$2A
	.byte	$00
	.byte	$00
	.byte	$00
	.byte	$39
	.byte	$00
	.byte	$08
	.byte	$00
	.byte	$3A
	.byte	$00
	.byte	$00
	.byte	$08
	.byte	$49
	.byte	$00
	.byte	$08
	.byte	$08
	.byte	$4A
	.byte	$00
	.byte	$10
	.byte	$00
	.byte	$3B
	.byte	$00
	.byte	$F8
	.byte	$00
	.byte	$3B
	.byte	$40
	.byte	$04
	.byte	$F9
	.byte	$0B
	.byte	$02
	.byte	$80
_animate_skeletonleft_data:
	.byte	$00
	.byte	$F8
	.byte	$2C
	.byte	$02
	.byte	$00
	.byte	$08
	.byte	$4C
	.byte	$02
	.byte	$00
	.byte	$00
	.byte	$3C
	.byte	$02
	.byte	$08
	.byte	$00
	.byte	$3D
	.byte	$02
	.byte	$08
	.byte	$F8
	.byte	$2D
	.byte	$02
	.byte	$08
	.byte	$08
	.byte	$4D
	.byte	$02
	.byte	$10
	.byte	$00
	.byte	$4B
	.byte	$42
	.byte	$F8
	.byte	$00
	.byte	$4B
	.byte	$02
	.byte	$80
_animate_deathleft1_data:
	.byte	$00
	.byte	$F8
	.byte	$2C
	.byte	$02
	.byte	$00
	.byte	$08
	.byte	$4C
	.byte	$02
	.byte	$00
	.byte	$00
	.byte	$3C
	.byte	$02
	.byte	$08
	.byte	$00
	.byte	$3D
	.byte	$02
	.byte	$08
	.byte	$F8
	.byte	$2D
	.byte	$02
	.byte	$08
	.byte	$08
	.byte	$4D
	.byte	$02
	.byte	$10
	.byte	$00
	.byte	$4B
	.byte	$42
	.byte	$F8
	.byte	$00
	.byte	$4B
	.byte	$02
	.byte	$80
_animate_deathleft2_data:
	.byte	$00
	.byte	$F8
	.byte	$2C
	.byte	$02
	.byte	$00
	.byte	$08
	.byte	$4C
	.byte	$02
	.byte	$00
	.byte	$00
	.byte	$3C
	.byte	$02
	.byte	$08
	.byte	$00
	.byte	$3D
	.byte	$02
	.byte	$08
	.byte	$F8
	.byte	$2D
	.byte	$02
	.byte	$08
	.byte	$08
	.byte	$4D
	.byte	$02
	.byte	$10
	.byte	$00
	.byte	$4B
	.byte	$42
	.byte	$F8
	.byte	$00
	.byte	$4B
	.byte	$02
	.byte	$80
_animate_deathleft3_data:
	.byte	$00
	.byte	$FA
	.byte	$2C
	.byte	$02
	.byte	$00
	.byte	$02
	.byte	$3C
	.byte	$02
	.byte	$08
	.byte	$02
	.byte	$3D
	.byte	$02
	.byte	$08
	.byte	$FA
	.byte	$2D
	.byte	$02
	.byte	$10
	.byte	$00
	.byte	$4B
	.byte	$42
	.byte	$F8
	.byte	$00
	.byte	$4B
	.byte	$02
	.byte	$00
	.byte	$08
	.byte	$4C
	.byte	$02
	.byte	$08
	.byte	$08
	.byte	$4D
	.byte	$02
	.byte	$80
_animate_deathleft4_data:
	.byte	$00
	.byte	$FC
	.byte	$2C
	.byte	$02
	.byte	$00
	.byte	$04
	.byte	$3C
	.byte	$02
	.byte	$08
	.byte	$04
	.byte	$3D
	.byte	$02
	.byte	$08
	.byte	$FC
	.byte	$2D
	.byte	$02
	.byte	$10
	.byte	$02
	.byte	$4B
	.byte	$42
	.byte	$F8
	.byte	$02
	.byte	$4B
	.byte	$02
	.byte	$00
	.byte	$08
	.byte	$4C
	.byte	$02
	.byte	$08
	.byte	$08
	.byte	$4D
	.byte	$02
	.byte	$80
_animate_deathleft5_data:
	.byte	$00
	.byte	$FE
	.byte	$2C
	.byte	$02
	.byte	$00
	.byte	$06
	.byte	$3C
	.byte	$02
	.byte	$08
	.byte	$06
	.byte	$3D
	.byte	$02
	.byte	$08
	.byte	$FE
	.byte	$2D
	.byte	$02
	.byte	$10
	.byte	$04
	.byte	$4B
	.byte	$42
	.byte	$F8
	.byte	$04
	.byte	$4B
	.byte	$02
	.byte	$00
	.byte	$08
	.byte	$4C
	.byte	$02
	.byte	$08
	.byte	$08
	.byte	$4D
	.byte	$02
	.byte	$80
_animate_deathleft6_data:
	.byte	$00
	.byte	$FE
	.byte	$2C
	.byte	$02
	.byte	$00
	.byte	$06
	.byte	$3C
	.byte	$02
	.byte	$08
	.byte	$06
	.byte	$3D
	.byte	$02
	.byte	$08
	.byte	$FE
	.byte	$2D
	.byte	$02
	.byte	$10
	.byte	$06
	.byte	$4B
	.byte	$42
	.byte	$F8
	.byte	$06
	.byte	$4B
	.byte	$02
	.byte	$00
	.byte	$08
	.byte	$4C
	.byte	$02
	.byte	$08
	.byte	$08
	.byte	$4D
	.byte	$02
	.byte	$80
_animate_deathleft7_data:
	.byte	$00
	.byte	$FF
	.byte	$2C
	.byte	$02
	.byte	$00
	.byte	$07
	.byte	$5E
	.byte	$02
	.byte	$08
	.byte	$07
	.byte	$5F
	.byte	$02
	.byte	$08
	.byte	$FF
	.byte	$2D
	.byte	$02
	.byte	$0F
	.byte	$09
	.byte	$4B
	.byte	$42
	.byte	$F9
	.byte	$09
	.byte	$4B
	.byte	$02
	.byte	$80
_animate_deathleft8_data:
	.byte	$00
	.byte	$FF
	.byte	$2C
	.byte	$02
	.byte	$00
	.byte	$07
	.byte	$5E
	.byte	$02
	.byte	$08
	.byte	$07
	.byte	$5F
	.byte	$02
	.byte	$08
	.byte	$FF
	.byte	$2D
	.byte	$02
	.byte	$0F
	.byte	$0B
	.byte	$4B
	.byte	$42
	.byte	$F9
	.byte	$0B
	.byte	$4B
	.byte	$02
	.byte	$80
_animate_recoilright_data:
	.byte	$08
	.byte	$F8
	.byte	$29
	.byte	$40
	.byte	$00
	.byte	$F8
	.byte	$2A
	.byte	$40
	.byte	$08
	.byte	$00
	.byte	$39
	.byte	$40
	.byte	$00
	.byte	$00
	.byte	$3A
	.byte	$40
	.byte	$08
	.byte	$08
	.byte	$49
	.byte	$40
	.byte	$00
	.byte	$08
	.byte	$4A
	.byte	$40
	.byte	$F8
	.byte	$00
	.byte	$3B
	.byte	$40
	.byte	$10
	.byte	$00
	.byte	$3B
	.byte	$00
	.byte	$04
	.byte	$F9
	.byte	$0B
	.byte	$42
	.byte	$80
_animate_skeletonright_data:
	.byte	$08
	.byte	$F8
	.byte	$2C
	.byte	$42
	.byte	$08
	.byte	$08
	.byte	$4C
	.byte	$42
	.byte	$08
	.byte	$00
	.byte	$3C
	.byte	$42
	.byte	$00
	.byte	$00
	.byte	$3D
	.byte	$42
	.byte	$00
	.byte	$F8
	.byte	$2D
	.byte	$42
	.byte	$00
	.byte	$08
	.byte	$4D
	.byte	$42
	.byte	$F8
	.byte	$00
	.byte	$4B
	.byte	$02
	.byte	$10
	.byte	$00
	.byte	$4B
	.byte	$42
	.byte	$80
_animate_deathright1_data:
	.byte	$08
	.byte	$F8
	.byte	$2C
	.byte	$42
	.byte	$08
	.byte	$08
	.byte	$4C
	.byte	$42
	.byte	$08
	.byte	$00
	.byte	$3C
	.byte	$42
	.byte	$00
	.byte	$00
	.byte	$3D
	.byte	$42
	.byte	$00
	.byte	$F8
	.byte	$2D
	.byte	$42
	.byte	$00
	.byte	$08
	.byte	$4D
	.byte	$42
	.byte	$F8
	.byte	$00
	.byte	$4B
	.byte	$02
	.byte	$10
	.byte	$00
	.byte	$4B
	.byte	$42
	.byte	$80
_animate_deathright2_data:
	.byte	$08
	.byte	$F8
	.byte	$2C
	.byte	$42
	.byte	$08
	.byte	$08
	.byte	$4C
	.byte	$42
	.byte	$08
	.byte	$00
	.byte	$3C
	.byte	$42
	.byte	$00
	.byte	$00
	.byte	$3D
	.byte	$42
	.byte	$00
	.byte	$F8
	.byte	$2D
	.byte	$42
	.byte	$00
	.byte	$08
	.byte	$4D
	.byte	$42
	.byte	$F8
	.byte	$00
	.byte	$4B
	.byte	$02
	.byte	$10
	.byte	$00
	.byte	$4B
	.byte	$42
	.byte	$80
_animate_deathright3_data:
	.byte	$08
	.byte	$FA
	.byte	$2C
	.byte	$42
	.byte	$08
	.byte	$02
	.byte	$3C
	.byte	$42
	.byte	$00
	.byte	$02
	.byte	$3D
	.byte	$42
	.byte	$00
	.byte	$FA
	.byte	$2D
	.byte	$42
	.byte	$F8
	.byte	$00
	.byte	$4B
	.byte	$02
	.byte	$10
	.byte	$00
	.byte	$4B
	.byte	$42
	.byte	$08
	.byte	$08
	.byte	$4C
	.byte	$42
	.byte	$00
	.byte	$08
	.byte	$4D
	.byte	$42
	.byte	$80
_animate_deathright4_data:
	.byte	$08
	.byte	$FC
	.byte	$2C
	.byte	$42
	.byte	$08
	.byte	$04
	.byte	$3C
	.byte	$42
	.byte	$00
	.byte	$04
	.byte	$3D
	.byte	$42
	.byte	$00
	.byte	$FC
	.byte	$2D
	.byte	$42
	.byte	$F8
	.byte	$02
	.byte	$4B
	.byte	$02
	.byte	$10
	.byte	$02
	.byte	$4B
	.byte	$42
	.byte	$08
	.byte	$08
	.byte	$4C
	.byte	$42
	.byte	$00
	.byte	$08
	.byte	$4D
	.byte	$42
	.byte	$80
_animate_deathright5_data:
	.byte	$08
	.byte	$FE
	.byte	$2C
	.byte	$42
	.byte	$08
	.byte	$06
	.byte	$3C
	.byte	$42
	.byte	$00
	.byte	$06
	.byte	$3D
	.byte	$42
	.byte	$00
	.byte	$FE
	.byte	$2D
	.byte	$42
	.byte	$F8
	.byte	$04
	.byte	$4B
	.byte	$02
	.byte	$10
	.byte	$04
	.byte	$4B
	.byte	$42
	.byte	$08
	.byte	$08
	.byte	$4C
	.byte	$42
	.byte	$00
	.byte	$08
	.byte	$4D
	.byte	$42
	.byte	$80
_animate_deathright6_data:
	.byte	$08
	.byte	$FE
	.byte	$2C
	.byte	$42
	.byte	$08
	.byte	$06
	.byte	$3C
	.byte	$42
	.byte	$00
	.byte	$06
	.byte	$3D
	.byte	$42
	.byte	$00
	.byte	$FE
	.byte	$2D
	.byte	$42
	.byte	$F8
	.byte	$06
	.byte	$4B
	.byte	$02
	.byte	$10
	.byte	$06
	.byte	$4B
	.byte	$42
	.byte	$08
	.byte	$08
	.byte	$4C
	.byte	$42
	.byte	$00
	.byte	$08
	.byte	$4D
	.byte	$42
	.byte	$80
_animate_deathright7_data:
	.byte	$08
	.byte	$FF
	.byte	$2C
	.byte	$42
	.byte	$08
	.byte	$07
	.byte	$5E
	.byte	$42
	.byte	$00
	.byte	$07
	.byte	$5F
	.byte	$42
	.byte	$00
	.byte	$FF
	.byte	$2D
	.byte	$42
	.byte	$F9
	.byte	$09
	.byte	$4B
	.byte	$02
	.byte	$0F
	.byte	$09
	.byte	$4B
	.byte	$42
	.byte	$80
_animate_deathright8_data:
	.byte	$08
	.byte	$FF
	.byte	$2C
	.byte	$42
	.byte	$08
	.byte	$07
	.byte	$5E
	.byte	$42
	.byte	$00
	.byte	$07
	.byte	$5F
	.byte	$42
	.byte	$00
	.byte	$FF
	.byte	$2D
	.byte	$42
	.byte	$F9
	.byte	$0B
	.byte	$4B
	.byte	$02
	.byte	$0F
	.byte	$0B
	.byte	$4B
	.byte	$42
	.byte	$80
_animate_playerstandright_data:
	.byte	$08
	.byte	$F8
	.byte	$00
	.byte	$40
	.byte	$00
	.byte	$F8
	.byte	$01
	.byte	$40
	.byte	$08
	.byte	$00
	.byte	$10
	.byte	$40
	.byte	$00
	.byte	$00
	.byte	$11
	.byte	$40
	.byte	$08
	.byte	$08
	.byte	$20
	.byte	$40
	.byte	$00
	.byte	$08
	.byte	$21
	.byte	$40
	.byte	$04
	.byte	$F9
	.byte	$0B
	.byte	$42
	.byte	$80
_animate_playerstandleft_data:
	.byte	$00
	.byte	$F8
	.byte	$00
	.byte	$00
	.byte	$08
	.byte	$F8
	.byte	$01
	.byte	$00
	.byte	$00
	.byte	$00
	.byte	$10
	.byte	$00
	.byte	$08
	.byte	$00
	.byte	$11
	.byte	$00
	.byte	$00
	.byte	$08
	.byte	$20
	.byte	$00
	.byte	$08
	.byte	$08
	.byte	$21
	.byte	$00
	.byte	$04
	.byte	$F9
	.byte	$0B
	.byte	$02
	.byte	$80
_animate_playerstandshootleft_data:
	.byte	$00
	.byte	$F8
	.byte	$00
	.byte	$00
	.byte	$08
	.byte	$F8
	.byte	$01
	.byte	$00
	.byte	$00
	.byte	$00
	.byte	$09
	.byte	$00
	.byte	$08
	.byte	$00
	.byte	$11
	.byte	$00
	.byte	$00
	.byte	$08
	.byte	$20
	.byte	$00
	.byte	$08
	.byte	$08
	.byte	$21
	.byte	$00
	.byte	$04
	.byte	$F9
	.byte	$0B
	.byte	$02
	.byte	$F8
	.byte	$00
	.byte	$08
	.byte	$00
	.byte	$80
_animate_playerstandshootright_data:
	.byte	$08
	.byte	$F8
	.byte	$00
	.byte	$40
	.byte	$00
	.byte	$F8
	.byte	$01
	.byte	$40
	.byte	$08
	.byte	$00
	.byte	$09
	.byte	$40
	.byte	$00
	.byte	$00
	.byte	$11
	.byte	$40
	.byte	$08
	.byte	$08
	.byte	$20
	.byte	$40
	.byte	$00
	.byte	$08
	.byte	$21
	.byte	$40
	.byte	$04
	.byte	$F9
	.byte	$0B
	.byte	$42
	.byte	$10
	.byte	$00
	.byte	$08
	.byte	$40
	.byte	$80
_animate_playerrun1left_data:
	.byte	$00
	.byte	$F8
	.byte	$1A
	.byte	$00
	.byte	$08
	.byte	$F8
	.byte	$1B
	.byte	$00
	.byte	$00
	.byte	$00
	.byte	$32
	.byte	$00
	.byte	$08
	.byte	$00
	.byte	$33
	.byte	$00
	.byte	$00
	.byte	$08
	.byte	$42
	.byte	$00
	.byte	$08
	.byte	$08
	.byte	$43
	.byte	$00
	.byte	$10
	.byte	$08
	.byte	$46
	.byte	$00
	.byte	$04
	.byte	$FB
	.byte	$0B
	.byte	$02
	.byte	$80
_animate_playerrun2left_data:
	.byte	$00
	.byte	$F8
	.byte	$00
	.byte	$00
	.byte	$08
	.byte	$F8
	.byte	$01
	.byte	$00
	.byte	$00
	.byte	$00
	.byte	$30
	.byte	$00
	.byte	$08
	.byte	$00
	.byte	$31
	.byte	$00
	.byte	$00
	.byte	$08
	.byte	$40
	.byte	$00
	.byte	$08
	.byte	$08
	.byte	$41
	.byte	$00
	.byte	$04
	.byte	$F9
	.byte	$0B
	.byte	$02
	.byte	$80
_animate_playerrun3left_data:
	.byte	$00
	.byte	$F8
	.byte	$1A
	.byte	$00
	.byte	$08
	.byte	$F8
	.byte	$1B
	.byte	$00
	.byte	$00
	.byte	$00
	.byte	$34
	.byte	$00
	.byte	$08
	.byte	$00
	.byte	$35
	.byte	$00
	.byte	$00
	.byte	$08
	.byte	$44
	.byte	$00
	.byte	$08
	.byte	$08
	.byte	$45
	.byte	$00
	.byte	$10
	.byte	$08
	.byte	$46
	.byte	$00
	.byte	$04
	.byte	$FB
	.byte	$0B
	.byte	$02
	.byte	$80
_animate_playerrun1right_data:
	.byte	$08
	.byte	$F8
	.byte	$1A
	.byte	$40
	.byte	$00
	.byte	$F8
	.byte	$1B
	.byte	$40
	.byte	$08
	.byte	$00
	.byte	$32
	.byte	$40
	.byte	$00
	.byte	$00
	.byte	$33
	.byte	$40
	.byte	$08
	.byte	$08
	.byte	$42
	.byte	$40
	.byte	$00
	.byte	$08
	.byte	$43
	.byte	$40
	.byte	$F8
	.byte	$08
	.byte	$46
	.byte	$40
	.byte	$04
	.byte	$FB
	.byte	$0B
	.byte	$42
	.byte	$80
_animate_playerrun2right_data:
	.byte	$08
	.byte	$F8
	.byte	$00
	.byte	$40
	.byte	$00
	.byte	$F8
	.byte	$01
	.byte	$40
	.byte	$08
	.byte	$00
	.byte	$30
	.byte	$40
	.byte	$00
	.byte	$00
	.byte	$31
	.byte	$40
	.byte	$08
	.byte	$08
	.byte	$40
	.byte	$40
	.byte	$00
	.byte	$08
	.byte	$41
	.byte	$40
	.byte	$04
	.byte	$F9
	.byte	$0B
	.byte	$42
	.byte	$80
_animate_playerrun3right_data:
	.byte	$08
	.byte	$F8
	.byte	$1A
	.byte	$40
	.byte	$00
	.byte	$F8
	.byte	$1B
	.byte	$40
	.byte	$08
	.byte	$00
	.byte	$34
	.byte	$40
	.byte	$00
	.byte	$00
	.byte	$35
	.byte	$40
	.byte	$08
	.byte	$08
	.byte	$44
	.byte	$40
	.byte	$00
	.byte	$08
	.byte	$45
	.byte	$40
	.byte	$F8
	.byte	$08
	.byte	$46
	.byte	$40
	.byte	$04
	.byte	$FB
	.byte	$0B
	.byte	$42
	.byte	$80
_animate_playerrunshoot1left_data:
	.byte	$00
	.byte	$F8
	.byte	$1A
	.byte	$00
	.byte	$08
	.byte	$F8
	.byte	$1B
	.byte	$00
	.byte	$00
	.byte	$00
	.byte	$19
	.byte	$00
	.byte	$08
	.byte	$00
	.byte	$33
	.byte	$00
	.byte	$00
	.byte	$08
	.byte	$42
	.byte	$00
	.byte	$08
	.byte	$08
	.byte	$43
	.byte	$00
	.byte	$10
	.byte	$08
	.byte	$46
	.byte	$00
	.byte	$04
	.byte	$FB
	.byte	$0B
	.byte	$02
	.byte	$F8
	.byte	$00
	.byte	$18
	.byte	$00
	.byte	$80
_animate_playerrunshoot2left_data:
	.byte	$00
	.byte	$F8
	.byte	$00
	.byte	$00
	.byte	$08
	.byte	$F8
	.byte	$01
	.byte	$00
	.byte	$00
	.byte	$00
	.byte	$09
	.byte	$00
	.byte	$08
	.byte	$00
	.byte	$31
	.byte	$00
	.byte	$00
	.byte	$08
	.byte	$40
	.byte	$00
	.byte	$08
	.byte	$08
	.byte	$41
	.byte	$00
	.byte	$04
	.byte	$F9
	.byte	$0B
	.byte	$02
	.byte	$F8
	.byte	$00
	.byte	$08
	.byte	$00
	.byte	$80
_animate_playerrunshoot3left_data:
	.byte	$00
	.byte	$F8
	.byte	$1A
	.byte	$00
	.byte	$08
	.byte	$F8
	.byte	$1B
	.byte	$00
	.byte	$00
	.byte	$00
	.byte	$19
	.byte	$00
	.byte	$08
	.byte	$00
	.byte	$35
	.byte	$00
	.byte	$00
	.byte	$08
	.byte	$44
	.byte	$00
	.byte	$08
	.byte	$08
	.byte	$45
	.byte	$00
	.byte	$10
	.byte	$08
	.byte	$46
	.byte	$00
	.byte	$04
	.byte	$FB
	.byte	$0B
	.byte	$02
	.byte	$F8
	.byte	$00
	.byte	$18
	.byte	$00
	.byte	$80
_animate_playerrunshoot1right_data:
	.byte	$08
	.byte	$F8
	.byte	$1A
	.byte	$40
	.byte	$00
	.byte	$F8
	.byte	$1B
	.byte	$40
	.byte	$08
	.byte	$00
	.byte	$19
	.byte	$40
	.byte	$00
	.byte	$00
	.byte	$33
	.byte	$40
	.byte	$08
	.byte	$08
	.byte	$42
	.byte	$40
	.byte	$00
	.byte	$08
	.byte	$43
	.byte	$40
	.byte	$F8
	.byte	$08
	.byte	$46
	.byte	$40
	.byte	$04
	.byte	$FB
	.byte	$0B
	.byte	$42
	.byte	$10
	.byte	$00
	.byte	$18
	.byte	$40
	.byte	$80
_animate_playerrunshoot2right_data:
	.byte	$08
	.byte	$F8
	.byte	$00
	.byte	$40
	.byte	$00
	.byte	$F8
	.byte	$01
	.byte	$40
	.byte	$08
	.byte	$00
	.byte	$09
	.byte	$40
	.byte	$00
	.byte	$00
	.byte	$31
	.byte	$40
	.byte	$08
	.byte	$08
	.byte	$40
	.byte	$40
	.byte	$00
	.byte	$08
	.byte	$41
	.byte	$40
	.byte	$04
	.byte	$F9
	.byte	$0B
	.byte	$42
	.byte	$10
	.byte	$00
	.byte	$08
	.byte	$40
	.byte	$80
_animate_playerrunshoot3right_data:
	.byte	$08
	.byte	$F8
	.byte	$1A
	.byte	$40
	.byte	$00
	.byte	$F8
	.byte	$1B
	.byte	$40
	.byte	$08
	.byte	$00
	.byte	$19
	.byte	$40
	.byte	$00
	.byte	$00
	.byte	$35
	.byte	$40
	.byte	$08
	.byte	$08
	.byte	$44
	.byte	$40
	.byte	$00
	.byte	$08
	.byte	$45
	.byte	$40
	.byte	$F8
	.byte	$08
	.byte	$46
	.byte	$40
	.byte	$04
	.byte	$FB
	.byte	$0B
	.byte	$42
	.byte	$10
	.byte	$00
	.byte	$18
	.byte	$40
	.byte	$80
_animate_playerjumpleft_data:
	.byte	$00
	.byte	$F8
	.byte	$27
	.byte	$00
	.byte	$08
	.byte	$F8
	.byte	$28
	.byte	$00
	.byte	$00
	.byte	$00
	.byte	$37
	.byte	$00
	.byte	$08
	.byte	$00
	.byte	$38
	.byte	$00
	.byte	$00
	.byte	$08
	.byte	$47
	.byte	$00
	.byte	$08
	.byte	$08
	.byte	$48
	.byte	$00
	.byte	$08
	.byte	$10
	.byte	$58
	.byte	$00
	.byte	$04
	.byte	$F9
	.byte	$0B
	.byte	$02
	.byte	$80
_animate_playerjumpleftshoot_data:
	.byte	$00
	.byte	$F8
	.byte	$00
	.byte	$00
	.byte	$08
	.byte	$F8
	.byte	$28
	.byte	$00
	.byte	$00
	.byte	$00
	.byte	$09
	.byte	$00
	.byte	$08
	.byte	$00
	.byte	$38
	.byte	$00
	.byte	$00
	.byte	$08
	.byte	$47
	.byte	$00
	.byte	$08
	.byte	$08
	.byte	$48
	.byte	$00
	.byte	$08
	.byte	$10
	.byte	$58
	.byte	$00
	.byte	$04
	.byte	$F9
	.byte	$0B
	.byte	$02
	.byte	$F8
	.byte	$00
	.byte	$08
	.byte	$00
	.byte	$80
_animate_playerjumpright_data:
	.byte	$08
	.byte	$F8
	.byte	$27
	.byte	$40
	.byte	$00
	.byte	$F8
	.byte	$28
	.byte	$40
	.byte	$08
	.byte	$00
	.byte	$37
	.byte	$40
	.byte	$00
	.byte	$00
	.byte	$38
	.byte	$40
	.byte	$08
	.byte	$08
	.byte	$47
	.byte	$40
	.byte	$00
	.byte	$08
	.byte	$48
	.byte	$40
	.byte	$00
	.byte	$10
	.byte	$58
	.byte	$40
	.byte	$04
	.byte	$F9
	.byte	$0B
	.byte	$42
	.byte	$80
_animate_playerjumprightshoot_data:
	.byte	$08
	.byte	$F8
	.byte	$00
	.byte	$40
	.byte	$00
	.byte	$F8
	.byte	$28
	.byte	$40
	.byte	$08
	.byte	$00
	.byte	$09
	.byte	$40
	.byte	$00
	.byte	$00
	.byte	$38
	.byte	$40
	.byte	$08
	.byte	$08
	.byte	$47
	.byte	$40
	.byte	$00
	.byte	$08
	.byte	$48
	.byte	$40
	.byte	$00
	.byte	$10
	.byte	$58
	.byte	$40
	.byte	$04
	.byte	$F9
	.byte	$0B
	.byte	$42
	.byte	$10
	.byte	$00
	.byte	$08
	.byte	$40
	.byte	$80
_animate_hootyowl1left_data:
	.byte	$00
	.byte	$00
	.byte	$E7
	.byte	$02
	.byte	$00
	.byte	$08
	.byte	$F7
	.byte	$02
	.byte	$08
	.byte	$00
	.byte	$E8
	.byte	$02
	.byte	$10
	.byte	$00
	.byte	$E9
	.byte	$02
	.byte	$08
	.byte	$08
	.byte	$F8
	.byte	$02
	.byte	$10
	.byte	$08
	.byte	$F9
	.byte	$02
	.byte	$80
_animate_hootyowl2left_data:
	.byte	$00
	.byte	$00
	.byte	$C7
	.byte	$02
	.byte	$00
	.byte	$08
	.byte	$F7
	.byte	$02
	.byte	$08
	.byte	$00
	.byte	$E8
	.byte	$02
	.byte	$10
	.byte	$00
	.byte	$C9
	.byte	$02
	.byte	$08
	.byte	$08
	.byte	$F8
	.byte	$02
	.byte	$10
	.byte	$08
	.byte	$F9
	.byte	$02
	.byte	$80
_animate_hootyowl3left_data:
	.byte	$00
	.byte	$00
	.byte	$A7
	.byte	$02
	.byte	$00
	.byte	$08
	.byte	$B7
	.byte	$02
	.byte	$08
	.byte	$00
	.byte	$E8
	.byte	$02
	.byte	$10
	.byte	$00
	.byte	$A9
	.byte	$02
	.byte	$08
	.byte	$08
	.byte	$F8
	.byte	$02
	.byte	$10
	.byte	$08
	.byte	$B9
	.byte	$02
	.byte	$80
_animate_hootyowl4left_data:
	.byte	$00
	.byte	$00
	.byte	$87
	.byte	$02
	.byte	$08
	.byte	$00
	.byte	$88
	.byte	$02
	.byte	$10
	.byte	$00
	.byte	$89
	.byte	$02
	.byte	$08
	.byte	$08
	.byte	$98
	.byte	$02
	.byte	$00
	.byte	$08
	.byte	$97
	.byte	$02
	.byte	$10
	.byte	$08
	.byte	$99
	.byte	$02
	.byte	$80
_animate_hootyowl5left_data:
	.byte	$00
	.byte	$08
	.byte	$87
	.byte	$82
	.byte	$08
	.byte	$08
	.byte	$88
	.byte	$82
	.byte	$10
	.byte	$08
	.byte	$89
	.byte	$82
	.byte	$08
	.byte	$00
	.byte	$98
	.byte	$82
	.byte	$00
	.byte	$00
	.byte	$97
	.byte	$82
	.byte	$10
	.byte	$00
	.byte	$99
	.byte	$82
	.byte	$80
_animate_hootyowl1right_data:
	.byte	$10
	.byte	$00
	.byte	$E7
	.byte	$42
	.byte	$10
	.byte	$08
	.byte	$F7
	.byte	$42
	.byte	$08
	.byte	$00
	.byte	$E8
	.byte	$42
	.byte	$00
	.byte	$00
	.byte	$E9
	.byte	$42
	.byte	$08
	.byte	$08
	.byte	$F8
	.byte	$42
	.byte	$00
	.byte	$08
	.byte	$F9
	.byte	$42
	.byte	$80
_animate_hootyowl2right_data:
	.byte	$10
	.byte	$00
	.byte	$C7
	.byte	$42
	.byte	$10
	.byte	$08
	.byte	$F7
	.byte	$42
	.byte	$08
	.byte	$00
	.byte	$E8
	.byte	$42
	.byte	$00
	.byte	$00
	.byte	$C9
	.byte	$42
	.byte	$08
	.byte	$08
	.byte	$F8
	.byte	$42
	.byte	$00
	.byte	$08
	.byte	$F9
	.byte	$42
	.byte	$80
_animate_hootyowl3right_data:
	.byte	$10
	.byte	$00
	.byte	$A7
	.byte	$42
	.byte	$10
	.byte	$08
	.byte	$B7
	.byte	$42
	.byte	$08
	.byte	$00
	.byte	$E8
	.byte	$42
	.byte	$00
	.byte	$00
	.byte	$A9
	.byte	$42
	.byte	$08
	.byte	$08
	.byte	$F8
	.byte	$42
	.byte	$00
	.byte	$08
	.byte	$B9
	.byte	$42
	.byte	$80
_animate_hootyowl4right_data:
	.byte	$10
	.byte	$00
	.byte	$87
	.byte	$42
	.byte	$08
	.byte	$00
	.byte	$88
	.byte	$42
	.byte	$00
	.byte	$00
	.byte	$89
	.byte	$42
	.byte	$08
	.byte	$08
	.byte	$98
	.byte	$42
	.byte	$10
	.byte	$08
	.byte	$97
	.byte	$42
	.byte	$00
	.byte	$08
	.byte	$99
	.byte	$42
	.byte	$80
_animate_hootyowl5right_data:
	.byte	$10
	.byte	$08
	.byte	$87
	.byte	$C2
	.byte	$08
	.byte	$08
	.byte	$88
	.byte	$C2
	.byte	$00
	.byte	$08
	.byte	$89
	.byte	$C2
	.byte	$08
	.byte	$00
	.byte	$98
	.byte	$C2
	.byte	$10
	.byte	$00
	.byte	$97
	.byte	$C2
	.byte	$00
	.byte	$00
	.byte	$99
	.byte	$C2
	.byte	$80
_animate_snail1left_data:
	.byte	$00
	.byte	$00
	.byte	$ED
	.byte	$03
	.byte	$00
	.byte	$08
	.byte	$FD
	.byte	$03
	.byte	$08
	.byte	$00
	.byte	$EE
	.byte	$03
	.byte	$08
	.byte	$08
	.byte	$FE
	.byte	$03
	.byte	$10
	.byte	$00
	.byte	$EF
	.byte	$03
	.byte	$10
	.byte	$08
	.byte	$FF
	.byte	$03
	.byte	$80
_animate_snail2left_data:
	.byte	$00
	.byte	$00
	.byte	$CD
	.byte	$03
	.byte	$00
	.byte	$08
	.byte	$DD
	.byte	$03
	.byte	$08
	.byte	$00
	.byte	$EE
	.byte	$03
	.byte	$08
	.byte	$08
	.byte	$FE
	.byte	$03
	.byte	$10
	.byte	$00
	.byte	$EF
	.byte	$03
	.byte	$10
	.byte	$08
	.byte	$DF
	.byte	$03
	.byte	$80
_animate_snail3left_data:
	.byte	$00
	.byte	$00
	.byte	$AD
	.byte	$03
	.byte	$00
	.byte	$08
	.byte	$BD
	.byte	$03
	.byte	$08
	.byte	$00
	.byte	$EE
	.byte	$03
	.byte	$08
	.byte	$08
	.byte	$FE
	.byte	$03
	.byte	$10
	.byte	$00
	.byte	$EF
	.byte	$03
	.byte	$10
	.byte	$08
	.byte	$BF
	.byte	$03
	.byte	$80
_animate_snail1right_data:
	.byte	$10
	.byte	$00
	.byte	$ED
	.byte	$43
	.byte	$10
	.byte	$08
	.byte	$FD
	.byte	$43
	.byte	$08
	.byte	$00
	.byte	$EE
	.byte	$43
	.byte	$08
	.byte	$08
	.byte	$FE
	.byte	$43
	.byte	$00
	.byte	$00
	.byte	$EF
	.byte	$43
	.byte	$00
	.byte	$08
	.byte	$FF
	.byte	$43
	.byte	$80
_animate_snail2right_data:
	.byte	$10
	.byte	$00
	.byte	$CD
	.byte	$43
	.byte	$10
	.byte	$08
	.byte	$DD
	.byte	$43
	.byte	$08
	.byte	$00
	.byte	$EE
	.byte	$43
	.byte	$08
	.byte	$08
	.byte	$FE
	.byte	$43
	.byte	$00
	.byte	$00
	.byte	$EF
	.byte	$43
	.byte	$00
	.byte	$08
	.byte	$DF
	.byte	$43
	.byte	$80
_animate_snail3right_data:
	.byte	$10
	.byte	$00
	.byte	$AD
	.byte	$43
	.byte	$10
	.byte	$08
	.byte	$BD
	.byte	$43
	.byte	$08
	.byte	$00
	.byte	$EE
	.byte	$43
	.byte	$08
	.byte	$08
	.byte	$FE
	.byte	$43
	.byte	$00
	.byte	$00
	.byte	$EF
	.byte	$43
	.byte	$00
	.byte	$08
	.byte	$BF
	.byte	$43
	.byte	$80
_animate_bearstandleft_data:
	.byte	$00
	.byte	$F0
	.byte	$B4
	.byte	$01
	.byte	$08
	.byte	$F0
	.byte	$B5
	.byte	$01
	.byte	$00
	.byte	$F8
	.byte	$C4
	.byte	$01
	.byte	$08
	.byte	$F8
	.byte	$C5
	.byte	$01
	.byte	$00
	.byte	$00
	.byte	$D4
	.byte	$01
	.byte	$08
	.byte	$00
	.byte	$D5
	.byte	$01
	.byte	$00
	.byte	$08
	.byte	$E4
	.byte	$01
	.byte	$08
	.byte	$08
	.byte	$E5
	.byte	$01
	.byte	$03
	.byte	$F2
	.byte	$0B
	.byte	$02
	.byte	$80
_animate_bearstandright_data:
	.byte	$08
	.byte	$F0
	.byte	$B4
	.byte	$41
	.byte	$00
	.byte	$F0
	.byte	$B5
	.byte	$41
	.byte	$08
	.byte	$F8
	.byte	$C4
	.byte	$41
	.byte	$00
	.byte	$F8
	.byte	$C5
	.byte	$41
	.byte	$08
	.byte	$00
	.byte	$D4
	.byte	$41
	.byte	$00
	.byte	$00
	.byte	$D5
	.byte	$41
	.byte	$08
	.byte	$08
	.byte	$E4
	.byte	$41
	.byte	$00
	.byte	$08
	.byte	$E5
	.byte	$41
	.byte	$05
	.byte	$F2
	.byte	$0B
	.byte	$42
	.byte	$80
_animate_bearroarleft_data:
	.byte	$00
	.byte	$F0
	.byte	$94
	.byte	$01
	.byte	$08
	.byte	$F0
	.byte	$B5
	.byte	$01
	.byte	$00
	.byte	$F8
	.byte	$A4
	.byte	$01
	.byte	$08
	.byte	$F8
	.byte	$C5
	.byte	$01
	.byte	$00
	.byte	$00
	.byte	$D4
	.byte	$01
	.byte	$08
	.byte	$00
	.byte	$D5
	.byte	$01
	.byte	$00
	.byte	$08
	.byte	$E4
	.byte	$01
	.byte	$08
	.byte	$08
	.byte	$E5
	.byte	$01
	.byte	$03
	.byte	$F2
	.byte	$0B
	.byte	$02
	.byte	$F8
	.byte	$F4
	.byte	$C3
	.byte	$01
	.byte	$80
_animate_bearroarright_data:
	.byte	$08
	.byte	$F0
	.byte	$94
	.byte	$41
	.byte	$00
	.byte	$F0
	.byte	$B5
	.byte	$41
	.byte	$08
	.byte	$F8
	.byte	$A4
	.byte	$41
	.byte	$00
	.byte	$F8
	.byte	$C5
	.byte	$41
	.byte	$08
	.byte	$00
	.byte	$D4
	.byte	$41
	.byte	$00
	.byte	$00
	.byte	$D5
	.byte	$41
	.byte	$08
	.byte	$08
	.byte	$E4
	.byte	$41
	.byte	$00
	.byte	$08
	.byte	$E5
	.byte	$41
	.byte	$05
	.byte	$F2
	.byte	$0B
	.byte	$42
	.byte	$10
	.byte	$F4
	.byte	$C3
	.byte	$41
	.byte	$80
_animate_beararms_data:
	.byte	$00
	.byte	$F0
	.byte	$A0
	.byte	$01
	.byte	$08
	.byte	$F0
	.byte	$A1
	.byte	$01
	.byte	$00
	.byte	$F8
	.byte	$B0
	.byte	$01
	.byte	$08
	.byte	$F8
	.byte	$B1
	.byte	$01
	.byte	$00
	.byte	$00
	.byte	$C0
	.byte	$01
	.byte	$08
	.byte	$00
	.byte	$C1
	.byte	$01
	.byte	$00
	.byte	$08
	.byte	$E4
	.byte	$01
	.byte	$08
	.byte	$08
	.byte	$E5
	.byte	$01
	.byte	$03
	.byte	$F2
	.byte	$0B
	.byte	$02
	.byte	$10
	.byte	$F8
	.byte	$B2
	.byte	$01
	.byte	$10
	.byte	$F0
	.byte	$A2
	.byte	$01
	.byte	$80
_animate_beararmsright_data:
	.byte	$08
	.byte	$F0
	.byte	$A0
	.byte	$41
	.byte	$00
	.byte	$F0
	.byte	$A1
	.byte	$41
	.byte	$08
	.byte	$F8
	.byte	$B0
	.byte	$41
	.byte	$00
	.byte	$F8
	.byte	$B1
	.byte	$41
	.byte	$08
	.byte	$00
	.byte	$C0
	.byte	$41
	.byte	$00
	.byte	$00
	.byte	$C1
	.byte	$41
	.byte	$08
	.byte	$08
	.byte	$E4
	.byte	$41
	.byte	$00
	.byte	$08
	.byte	$E5
	.byte	$41
	.byte	$05
	.byte	$F2
	.byte	$0B
	.byte	$42
	.byte	$F8
	.byte	$F8
	.byte	$B2
	.byte	$41
	.byte	$F8
	.byte	$F0
	.byte	$A2
	.byte	$41
	.byte	$80
_animate_bearwalk1eft_data:
	.byte	$00
	.byte	$F0
	.byte	$D0
	.byte	$01
	.byte	$08
	.byte	$F0
	.byte	$D1
	.byte	$01
	.byte	$00
	.byte	$F8
	.byte	$E0
	.byte	$01
	.byte	$08
	.byte	$F8
	.byte	$E1
	.byte	$01
	.byte	$00
	.byte	$00
	.byte	$F0
	.byte	$01
	.byte	$08
	.byte	$00
	.byte	$F1
	.byte	$01
	.byte	$08
	.byte	$08
	.byte	$F3
	.byte	$01
	.byte	$00
	.byte	$08
	.byte	$F2
	.byte	$01
	.byte	$10
	.byte	$08
	.byte	$D3
	.byte	$01
	.byte	$03
	.byte	$F4
	.byte	$0B
	.byte	$02
	.byte	$80
_animate_bearwalk2left_data:
	.byte	$00
	.byte	$F0
	.byte	$B4
	.byte	$01
	.byte	$08
	.byte	$F0
	.byte	$B5
	.byte	$01
	.byte	$00
	.byte	$F8
	.byte	$C4
	.byte	$01
	.byte	$08
	.byte	$F8
	.byte	$C5
	.byte	$01
	.byte	$00
	.byte	$00
	.byte	$D2
	.byte	$01
	.byte	$08
	.byte	$00
	.byte	$D5
	.byte	$01
	.byte	$00
	.byte	$08
	.byte	$F4
	.byte	$01
	.byte	$08
	.byte	$08
	.byte	$F5
	.byte	$01
	.byte	$03
	.byte	$F2
	.byte	$0B
	.byte	$02
	.byte	$80
_animate_bearwalk3left_data:
	.byte	$00
	.byte	$F0
	.byte	$D0
	.byte	$01
	.byte	$08
	.byte	$F0
	.byte	$D1
	.byte	$01
	.byte	$00
	.byte	$F8
	.byte	$E0
	.byte	$01
	.byte	$08
	.byte	$F8
	.byte	$E1
	.byte	$01
	.byte	$00
	.byte	$00
	.byte	$E2
	.byte	$01
	.byte	$08
	.byte	$00
	.byte	$E3
	.byte	$01
	.byte	$00
	.byte	$08
	.byte	$F2
	.byte	$01
	.byte	$08
	.byte	$08
	.byte	$F3
	.byte	$01
	.byte	$03
	.byte	$F4
	.byte	$0B
	.byte	$02
	.byte	$10
	.byte	$08
	.byte	$D3
	.byte	$01
	.byte	$80
_animate_bearwalkright_data:
	.byte	$08
	.byte	$F0
	.byte	$D0
	.byte	$41
	.byte	$00
	.byte	$F0
	.byte	$D1
	.byte	$41
	.byte	$08
	.byte	$F8
	.byte	$E0
	.byte	$41
	.byte	$00
	.byte	$F8
	.byte	$E1
	.byte	$41
	.byte	$08
	.byte	$00
	.byte	$F0
	.byte	$41
	.byte	$00
	.byte	$00
	.byte	$F1
	.byte	$41
	.byte	$00
	.byte	$08
	.byte	$F3
	.byte	$41
	.byte	$08
	.byte	$08
	.byte	$F2
	.byte	$41
	.byte	$F8
	.byte	$08
	.byte	$D3
	.byte	$41
	.byte	$05
	.byte	$F4
	.byte	$0B
	.byte	$42
	.byte	$80
_animate_bearwalk2right_data:
	.byte	$08
	.byte	$F0
	.byte	$B4
	.byte	$41
	.byte	$00
	.byte	$F0
	.byte	$B5
	.byte	$41
	.byte	$08
	.byte	$F8
	.byte	$C4
	.byte	$41
	.byte	$00
	.byte	$F8
	.byte	$C5
	.byte	$41
	.byte	$08
	.byte	$00
	.byte	$D2
	.byte	$41
	.byte	$00
	.byte	$00
	.byte	$D5
	.byte	$41
	.byte	$08
	.byte	$08
	.byte	$F4
	.byte	$41
	.byte	$00
	.byte	$08
	.byte	$F5
	.byte	$41
	.byte	$05
	.byte	$F2
	.byte	$0B
	.byte	$42
	.byte	$80
_animate_bearwalk3right_data:
	.byte	$08
	.byte	$F0
	.byte	$D0
	.byte	$41
	.byte	$00
	.byte	$F0
	.byte	$D1
	.byte	$41
	.byte	$08
	.byte	$F8
	.byte	$E0
	.byte	$41
	.byte	$00
	.byte	$F8
	.byte	$E1
	.byte	$41
	.byte	$08
	.byte	$00
	.byte	$E2
	.byte	$41
	.byte	$00
	.byte	$00
	.byte	$E3
	.byte	$41
	.byte	$08
	.byte	$08
	.byte	$F2
	.byte	$41
	.byte	$00
	.byte	$08
	.byte	$F3
	.byte	$41
	.byte	$05
	.byte	$F4
	.byte	$0B
	.byte	$42
	.byte	$F8
	.byte	$08
	.byte	$D3
	.byte	$41
	.byte	$80
_animate_bouldersmall_data:
	.byte	$00
	.byte	$00
	.byte	$C2
	.byte	$01
	.byte	$80
_animate_starburst1_data:
	.byte	$01
	.byte	$F8
	.byte	$59
	.byte	$01
	.byte	$08
	.byte	$F8
	.byte	$59
	.byte	$41
	.byte	$08
	.byte	$FF
	.byte	$59
	.byte	$C1
	.byte	$01
	.byte	$FF
	.byte	$59
	.byte	$81
	.byte	$80
_animate_starburst2_data:
	.byte	$01
	.byte	$F8
	.byte	$5A
	.byte	$01
	.byte	$08
	.byte	$F8
	.byte	$5A
	.byte	$41
	.byte	$08
	.byte	$FF
	.byte	$5A
	.byte	$C1
	.byte	$01
	.byte	$FF
	.byte	$5A
	.byte	$81
	.byte	$80
_animate_starburst3_data:
	.byte	$08
	.byte	$F8
	.byte	$5B
	.byte	$41
	.byte	$08
	.byte	$FF
	.byte	$5B
	.byte	$C1
	.byte	$01
	.byte	$FF
	.byte	$5B
	.byte	$81
	.byte	$01
	.byte	$F8
	.byte	$5B
	.byte	$01
	.byte	$80
_animate_slideleft_data:
	.byte	$F8
	.byte	$05
	.byte	$A6
	.byte	$00
	.byte	$00
	.byte	$05
	.byte	$B6
	.byte	$00
	.byte	$08
	.byte	$04
	.byte	$C6
	.byte	$00
	.byte	$10
	.byte	$05
	.byte	$D6
	.byte	$00
	.byte	$F0
	.byte	$0D
	.byte	$E6
	.byte	$00
	.byte	$F8
	.byte	$0D
	.byte	$F6
	.byte	$00
	.byte	$00
	.byte	$0D
	.byte	$3E
	.byte	$00
	.byte	$08
	.byte	$0C
	.byte	$4E
	.byte	$00
	.byte	$10
	.byte	$0D
	.byte	$4F
	.byte	$00
	.byte	$F9
	.byte	$06
	.byte	$0B
	.byte	$02
	.byte	$80
_animate_slideright_data:
	.byte	$10
	.byte	$05
	.byte	$A6
	.byte	$40
	.byte	$08
	.byte	$05
	.byte	$B6
	.byte	$40
	.byte	$00
	.byte	$04
	.byte	$C6
	.byte	$40
	.byte	$F8
	.byte	$05
	.byte	$D6
	.byte	$40
	.byte	$18
	.byte	$0D
	.byte	$E6
	.byte	$40
	.byte	$10
	.byte	$0D
	.byte	$F6
	.byte	$40
	.byte	$08
	.byte	$0D
	.byte	$3E
	.byte	$40
	.byte	$00
	.byte	$0C
	.byte	$4E
	.byte	$40
	.byte	$F8
	.byte	$0D
	.byte	$4F
	.byte	$40
	.byte	$0F
	.byte	$06
	.byte	$0B
	.byte	$42
	.byte	$80
_animate_scroll_data:
	.byte	$00
	.byte	$F8
	.byte	$5C
	.byte	$01
	.byte	$08
	.byte	$F8
	.byte	$5D
	.byte	$01
	.byte	$00
	.byte	$00
	.byte	$5C
	.byte	$81
	.byte	$08
	.byte	$00
	.byte	$5D
	.byte	$81
	.byte	$80
_shuffle_array:
	.byte	$00
	.byte	$01
	.byte	$02
	.byte	$03
	.byte	$04
	.byte	$05
	.byte	$06
	.byte	$07
	.byte	$08
	.byte	$09
	.byte	$0A
	.byte	$0B
	.byte	$0C
	.byte	$0D
	.byte	$0E
	.byte	$0F
	.byte	$0F
	.byte	$0E
	.byte	$0D
	.byte	$0C
	.byte	$0B
	.byte	$0A
	.byte	$09
	.byte	$08
	.byte	$07
	.byte	$06
	.byte	$05
	.byte	$04
	.byte	$03
	.byte	$02
	.byte	$01
	.byte	$00
	.byte	$00
	.byte	$02
	.byte	$04
	.byte	$06
	.byte	$08
	.byte	$0A
	.byte	$0C
	.byte	$0E
	.byte	$01
	.byte	$03
	.byte	$05
	.byte	$07
	.byte	$09
	.byte	$0B
	.byte	$0D
	.byte	$0F
	.byte	$0F
	.byte	$0D
	.byte	$0B
	.byte	$09
	.byte	$07
	.byte	$05
	.byte	$03
	.byte	$01
	.byte	$0E
	.byte	$0C
	.byte	$0A
	.byte	$08
	.byte	$06
	.byte	$04
	.byte	$02
	.byte	$00
_palette_bg:
	.byte	$21
	.byte	$0F
	.byte	$00
	.byte	$10
	.byte	$21
	.byte	$0F
	.byte	$30
	.byte	$08
	.byte	$21
	.byte	$0F
	.byte	$17
	.byte	$06
	.byte	$21
	.byte	$0F
	.byte	$19
	.byte	$29
_palette_sp:
	.byte	$21
	.byte	$17
	.byte	$24
	.byte	$36
	.byte	$21
	.byte	$05
	.byte	$16
	.byte	$37
	.byte	$21
	.byte	$0F
	.byte	$11
	.byte	$30
	.byte	$21
	.byte	$17
	.byte	$3D
	.byte	$37
_metatile:
	.byte	$7B
	.byte	$7C
	.byte	$8B
	.byte	$8C
	.byte	$00
	.byte	$7D
	.byte	$7E
	.byte	$8D
	.byte	$8E
	.byte	$00
	.byte	$9B
	.byte	$9C
	.byte	$AB
	.byte	$AC
	.byte	$00
	.byte	$9D
	.byte	$9E
	.byte	$AD
	.byte	$AE
	.byte	$00
	.byte	$BE
	.byte	$AF
	.byte	$7B
	.byte	$7C
	.byte	$00
	.byte	$BE
	.byte	$BE
	.byte	$8B
	.byte	$8C
	.byte	$00
	.byte	$BE
	.byte	$BF
	.byte	$8D
	.byte	$8E
	.byte	$00
	.byte	$BE
	.byte	$BE
	.byte	$AD
	.byte	$AE
	.byte	$00
	.byte	$BE
	.byte	$B9
	.byte	$9B
	.byte	$9C
	.byte	$00
	.byte	$BE
	.byte	$BE
	.byte	$9D
	.byte	$9E
	.byte	$00
	.byte	$BE
	.byte	$BB
	.byte	$AB
	.byte	$AC
	.byte	$00
	.byte	$BE
	.byte	$AF
	.byte	$AD
	.byte	$AE
	.byte	$00
	.byte	$BE
	.byte	$BD
	.byte	$7B
	.byte	$7C
	.byte	$00
	.byte	$BE
	.byte	$BD
	.byte	$7D
	.byte	$7E
	.byte	$00
	.byte	$BA
	.byte	$BF
	.byte	$9B
	.byte	$9C
	.byte	$00
	.byte	$BA
	.byte	$B8
	.byte	$9D
	.byte	$9E
	.byte	$00
	.byte	$7B
	.byte	$AE
	.byte	$7C
	.byte	$7B
	.byte	$00
	.byte	$8B
	.byte	$8C
	.byte	$9B
	.byte	$9C
	.byte	$00
	.byte	$8D
	.byte	$8E
	.byte	$9D
	.byte	$9E
	.byte	$00
	.byte	$7B
	.byte	$7C
	.byte	$8B
	.byte	$01
	.byte	$00
	.byte	$AD
	.byte	$8E
	.byte	$AE
	.byte	$01
	.byte	$00
	.byte	$AD
	.byte	$01
	.byte	$01
	.byte	$01
	.byte	$00
	.byte	$7D
	.byte	$7E
	.byte	$01
	.byte	$01
	.byte	$00
	.byte	$9D
	.byte	$9E
	.byte	$01
	.byte	$01
	.byte	$00
	.byte	$AB
	.byte	$AC
	.byte	$01
	.byte	$01
	.byte	$00
	.byte	$01
	.byte	$7B
	.byte	$01
	.byte	$01
	.byte	$00
	.byte	$7B
	.byte	$AD
	.byte	$01
	.byte	$AE
	.byte	$00
	.byte	$7B
	.byte	$7C
	.byte	$01
	.byte	$7B
	.byte	$00
	.byte	$7A
	.byte	$7C
	.byte	$8B
	.byte	$8C
	.byte	$00
	.byte	$00
	.byte	$00
	.byte	$00
	.byte	$7A
	.byte	$00
	.byte	$7B
	.byte	$6A
	.byte	$7C
	.byte	$7B
	.byte	$00
	.byte	$00
	.byte	$00
	.byte	$6A
	.byte	$00
	.byte	$00
	.byte	$75
	.byte	$76
	.byte	$85
	.byte	$86
	.byte	$02
	.byte	$65
	.byte	$66
	.byte	$85
	.byte	$86
	.byte	$02
	.byte	$75
	.byte	$76
	.byte	$95
	.byte	$96
	.byte	$02
	.byte	$74
	.byte	$76
	.byte	$84
	.byte	$86
	.byte	$02
	.byte	$75
	.byte	$77
	.byte	$85
	.byte	$87
	.byte	$02
	.byte	$64
	.byte	$66
	.byte	$84
	.byte	$86
	.byte	$02
	.byte	$65
	.byte	$67
	.byte	$85
	.byte	$87
	.byte	$02
	.byte	$74
	.byte	$76
	.byte	$94
	.byte	$96
	.byte	$02
	.byte	$75
	.byte	$77
	.byte	$95
	.byte	$97
	.byte	$02
	.byte	$DF
	.byte	$DF
	.byte	$DC
	.byte	$CD
	.byte	$03
	.byte	$DF
	.byte	$CE
	.byte	$CE
	.byte	$DB
	.byte	$03
	.byte	$CD
	.byte	$CE
	.byte	$EE
	.byte	$EE
	.byte	$03
	.byte	$DF
	.byte	$CF
	.byte	$DC
	.byte	$CC
	.byte	$03
	.byte	$34
	.byte	$CF
	.byte	$DF
	.byte	$33
	.byte	$03
	.byte	$DF
	.byte	$CF
	.byte	$33
	.byte	$CF
	.byte	$03
	.byte	$CB
	.byte	$CE
	.byte	$EF
	.byte	$EE
	.byte	$03
	.byte	$65
	.byte	$66
	.byte	$95
	.byte	$96
	.byte	$02
	.byte	$64
	.byte	$66
	.byte	$94
	.byte	$96
	.byte	$02
	.byte	$65
	.byte	$67
	.byte	$95
	.byte	$97
	.byte	$02
	.byte	$EB
	.byte	$EB
	.byte	$FB
	.byte	$FC
	.byte	$03
	.byte	$EB
	.byte	$EA
	.byte	$FC
	.byte	$FB
	.byte	$03
	.byte	$FA
	.byte	$EB
	.byte	$FC
	.byte	$FC
	.byte	$03
	.byte	$EB
	.byte	$EC
	.byte	$FB
	.byte	$FC
	.byte	$03
	.byte	$98
	.byte	$99
	.byte	$A8
	.byte	$A9
	.byte	$03
	.byte	$9A
	.byte	$98
	.byte	$AA
	.byte	$A8
	.byte	$03
	.byte	$01
	.byte	$01
	.byte	$9A
	.byte	$98
	.byte	$03
	.byte	$7B
	.byte	$8B
	.byte	$AD
	.byte	$9B
	.byte	$00
	.byte	$8E
	.byte	$7B
	.byte	$9C
	.byte	$AE
	.byte	$00
	.byte	$8B
	.byte	$7C
	.byte	$9B
	.byte	$AD
	.byte	$00
	.byte	$0A
	.byte	$0B
	.byte	$0A
	.byte	$0B
	.byte	$02
	.byte	$0A
	.byte	$0B
	.byte	$0A
	.byte	$0B
	.byte	$02
	.byte	$CA
	.byte	$CA
	.byte	$DA
	.byte	$DA
	.byte	$00
	.byte	$01
	.byte	$01
	.byte	$63
	.byte	$73
	.byte	$03
	.byte	$01
	.byte	$01
	.byte	$01
	.byte	$63
	.byte	$03
	.byte	$01
	.byte	$01
	.byte	$73
	.byte	$01
	.byte	$03
	.byte	$12
	.byte	$13
	.byte	$00
	.byte	$00
	.byte	$00
	.byte	$01
	.byte	$01
	.byte	$12
	.byte	$13
	.byte	$00
	.byte	$EF
	.byte	$9F
	.byte	$01
	.byte	$01
	.byte	$03
	.byte	$EF
	.byte	$EF
	.byte	$EE
	.byte	$EF
	.byte	$03
	.byte	$ED
	.byte	$ED
	.byte	$36
	.byte	$37
	.byte	$03
	.byte	$ED
	.byte	$38
	.byte	$37
	.byte	$00
	.byte	$03
	.byte	$39
	.byte	$ED
	.byte	$00
	.byte	$39
	.byte	$03
	.byte	$02
	.byte	$0D
	.byte	$0E
	.byte	$02
	.byte	$03
	.byte	$01
	.byte	$01
	.byte	$02
	.byte	$02
	.byte	$03
	.byte	$1F
	.byte	$02
	.byte	$02
	.byte	$2F
	.byte	$03
	.byte	$1B
	.byte	$0C
	.byte	$02
	.byte	$01
	.byte	$03
	.byte	$00
	.byte	$00
	.byte	$00
	.byte	$00
	.byte	$00
	.byte	$0F
	.byte	$3F
	.byte	$01
	.byte	$02
	.byte	$03
	.byte	$00
	.byte	$00
	.byte	$00
	.byte	$00
	.byte	$00
	.byte	$01
	.byte	$01
	.byte	$01
	.byte	$01
	.byte	$00
	.byte	$01
	.byte	$01
	.byte	$2A
	.byte	$01
	.byte	$03
	.byte	$1A
	.byte	$01
	.byte	$01
	.byte	$2A
	.byte	$03
	.byte	$1A
	.byte	$01
	.byte	$01
	.byte	$01
	.byte	$03
	.byte	$F2
	.byte	$F2
	.byte	$01
	.byte	$01
	.byte	$02
	.byte	$01
	.byte	$F3
	.byte	$01
	.byte	$01
	.byte	$02
	.byte	$D4
	.byte	$01
	.byte	$01
	.byte	$01
	.byte	$02
	.byte	$00
	.byte	$00
	.byte	$80
	.byte	$81
	.byte	$03
	.byte	$00
	.byte	$00
	.byte	$82
	.byte	$82
	.byte	$03
	.byte	$01
	.byte	$2A
	.byte	$02
	.byte	$02
	.byte	$03
	.byte	$1A
	.byte	$01
	.byte	$02
	.byte	$02
	.byte	$03
	.byte	$03
	.byte	$AA
	.byte	$03
	.byte	$E8
	.byte	$03
	.byte	$A8
	.byte	$A9
	.byte	$68
	.byte	$FC
	.byte	$03
	.byte	$8A
	.byte	$03
	.byte	$F8
	.byte	$03
	.byte	$03
	.byte	$03
	.byte	$03
	.byte	$E9
	.byte	$03
	.byte	$03
	.byte	$08
	.byte	$19
	.byte	$09
	.byte	$18
	.byte	$02
	.byte	$08
	.byte	$19
	.byte	$08
	.byte	$18
	.byte	$02
	.byte	$B1
	.byte	$B2
	.byte	$08
	.byte	$18
	.byte	$02
	.byte	$D4
	.byte	$B0
	.byte	$F3
	.byte	$C0
	.byte	$02
	.byte	$08
	.byte	$19
	.byte	$C1
	.byte	$C2
	.byte	$02
	.byte	$B3
	.byte	$F3
	.byte	$C3
	.byte	$D4
	.byte	$02
	.byte	$00
	.byte	$00
	.byte	$00
	.byte	$F0
	.byte	$02
	.byte	$F1
	.byte	$00
	.byte	$00
	.byte	$00
	.byte	$02
	.byte	$14
	.byte	$04
	.byte	$15
	.byte	$04
	.byte	$02
	.byte	$15
	.byte	$04
	.byte	$15
	.byte	$05
	.byte	$02
	.byte	$E5
	.byte	$E6
	.byte	$14
	.byte	$04
	.byte	$02
	.byte	$D4
	.byte	$E4
	.byte	$F3
	.byte	$F4
	.byte	$02
	.byte	$14
	.byte	$04
	.byte	$F5
	.byte	$F6
	.byte	$02
	.byte	$E7
	.byte	$F3
	.byte	$F7
	.byte	$D4
	.byte	$02
	.byte	$00
	.byte	$E2
	.byte	$00
	.byte	$00
	.byte	$02
	.byte	$E3
	.byte	$00
	.byte	$00
	.byte	$00
	.byte	$02
	.byte	$06
	.byte	$17
	.byte	$06
	.byte	$17
	.byte	$02
	.byte	$07
	.byte	$16
	.byte	$07
	.byte	$17
	.byte	$02
	.byte	$06
	.byte	$17
	.byte	$07
	.byte	$17
	.byte	$02
	.byte	$E0
	.byte	$E1
	.byte	$06
	.byte	$16
	.byte	$02
	.byte	$D4
	.byte	$D0
	.byte	$F2
	.byte	$F2
	.byte	$02
	.byte	$D1
	.byte	$F3
	.byte	$F2
	.byte	$F2
	.byte	$02
	.byte	$00
	.byte	$00
	.byte	$00
	.byte	$D2
	.byte	$02
	.byte	$00
	.byte	$00
	.byte	$D3
	.byte	$00
	.byte	$02
	.byte	$03
	.byte	$03
	.byte	$AA
	.byte	$AA
	.byte	$03
	.byte	$00
	.byte	$00
	.byte	$00
	.byte	$00
	.byte	$00
	.byte	$A9
	.byte	$A9
	.byte	$78
	.byte	$69
	.byte	$03
	.byte	$00
	.byte	$00
	.byte	$89
	.byte	$00
	.byte	$03
	.byte	$8A
	.byte	$00
	.byte	$8A
	.byte	$00
	.byte	$03
	.byte	$8A
	.byte	$00
	.byte	$79
	.byte	$00
	.byte	$03
	.byte	$03
	.byte	$03
	.byte	$03
	.byte	$F9
	.byte	$03
	.byte	$F9
	.byte	$E9
	.byte	$AA
	.byte	$AA
	.byte	$03
	.byte	$90
	.byte	$90
	.byte	$00
	.byte	$00
	.byte	$02
	.byte	$91
	.byte	$92
	.byte	$00
	.byte	$00
	.byte	$02
	.byte	$01
	.byte	$01
	.byte	$92
	.byte	$92
	.byte	$02
	.byte	$92
	.byte	$90
	.byte	$00
	.byte	$00
	.byte	$02
	.byte	$01
	.byte	$01
	.byte	$92
	.byte	$90
	.byte	$02
	.byte	$01
	.byte	$92
	.byte	$90
	.byte	$00
	.byte	$02
	.byte	$7A
	.byte	$32
	.byte	$32
	.byte	$DF
	.byte	$03
	.byte	$CF
	.byte	$89
	.byte	$DF
	.byte	$CF
	.byte	$03
	.byte	$DF
	.byte	$33
	.byte	$DE
	.byte	$DF
	.byte	$03
	.byte	$DD
	.byte	$CF
	.byte	$DF
	.byte	$34
	.byte	$03
	.byte	$00
	.byte	$00
	.byte	$00
	.byte	$00
	.byte	$00
	.byte	$00
	.byte	$00
	.byte	$00
	.byte	$7A
	.byte	$03
	.byte	$AA
	.byte	$A8
	.byte	$68
	.byte	$69
	.byte	$03
	.byte	$AA
	.byte	$A8
	.byte	$68
	.byte	$68
	.byte	$03
	.byte	$00
	.byte	$00
	.byte	$D7
	.byte	$A7
	.byte	$00
	.byte	$D7
	.byte	$A7
	.byte	$01
	.byte	$01
	.byte	$00
	.byte	$DF
	.byte	$CF
	.byte	$DC
	.byte	$DB
	.byte	$03
	.byte	$32
	.byte	$33
	.byte	$DE
	.byte	$DF
	.byte	$03
	.byte	$DF
	.byte	$35
	.byte	$CF
	.byte	$DD
	.byte	$03
	.byte	$32
	.byte	$34
	.byte	$32
	.byte	$33
	.byte	$03
	.byte	$33
	.byte	$35
	.byte	$34
	.byte	$35
	.byte	$03
	.byte	$00
	.byte	$7A
	.byte	$88
	.byte	$DF
	.byte	$03
	.byte	$00
	.byte	$88
	.byte	$88
	.byte	$CF
	.byte	$03
	.byte	$6A
	.byte	$00
	.byte	$CF
	.byte	$6A
	.byte	$03
	.byte	$89
	.byte	$00
	.byte	$A8
	.byte	$89
	.byte	$03
	.byte	$A9
	.byte	$6A
	.byte	$A9
	.byte	$AA
	.byte	$03
	.byte	$01
	.byte	$FF
	.byte	$FF
	.byte	$00
	.byte	$03
	.byte	$FF
	.byte	$01
	.byte	$00
	.byte	$FE
	.byte	$03
	.byte	$EF
	.byte	$EF
	.byte	$FE
	.byte	$FD
	.byte	$03
	.byte	$ED
	.byte	$EE
	.byte	$FE
	.byte	$FF
	.byte	$03
	.byte	$FD
	.byte	$FE
	.byte	$00
	.byte	$00
	.byte	$03
	.byte	$FF
	.byte	$FD
	.byte	$00
	.byte	$00
	.byte	$03
	.byte	$05
	.byte	$03
	.byte	$05
	.byte	$03
	.byte	$03
	.byte	$3F
	.byte	$03
	.byte	$05
	.byte	$03
	.byte	$03
	.byte	$05
	.byte	$03
	.byte	$2F
	.byte	$03
	.byte	$03
	.byte	$01
	.byte	$1F
	.byte	$1F
	.byte	$02
	.byte	$03
	.byte	$0F
	.byte	$02
	.byte	$01
	.byte	$0F
	.byte	$03
	.byte	$02
	.byte	$2F
	.byte	$11
	.byte	$11
	.byte	$03
	.byte	$03
	.byte	$03
	.byte	$11
	.byte	$11
	.byte	$03
	.byte	$03
	.byte	$61
	.byte	$60
	.byte	$03
	.byte	$03
	.byte	$03
	.byte	$62
	.byte	$03
	.byte	$03
	.byte	$03
	.byte	$03
	.byte	$03
	.byte	$61
	.byte	$03
	.byte	$03
	.byte	$60
	.byte	$03
	.byte	$03
	.byte	$03
	.byte	$03
	.byte	$03
	.byte	$03
	.byte	$72
	.byte	$03
	.byte	$03
	.byte	$00
	.byte	$00
	.byte	$00
	.byte	$71
	.byte	$03
	.byte	$00
	.byte	$00
	.byte	$00
	.byte	$70
	.byte	$03
	.byte	$C8
	.byte	$01
	.byte	$01
	.byte	$01
	.byte	$01
	.byte	$C8
	.byte	$C9
	.byte	$01
	.byte	$D9
	.byte	$01
	.byte	$03
	.byte	$03
	.byte	$03
	.byte	$03
	.byte	$03
	.byte	$00
	.byte	$00
	.byte	$00
	.byte	$00
	.byte	$00
	.byte	$00
	.byte	$00
	.byte	$00
	.byte	$00
	.byte	$00
	.byte	$3F
	.byte	$03
	.byte	$02
	.byte	$3F
	.byte	$03
	.byte	$01
	.byte	$01
	.byte	$0D
	.byte	$01
	.byte	$03
	.byte	$03
	.byte	$0E
	.byte	$03
	.byte	$03
	.byte	$03
	.byte	$A1
	.byte	$03
	.byte	$03
	.byte	$03
	.byte	$03
	.byte	$03
	.byte	$03
	.byte	$A2
	.byte	$03
	.byte	$03
	.byte	$A2
	.byte	$03
	.byte	$03
	.byte	$A1
	.byte	$03
	.byte	$A0
	.byte	$03
	.byte	$03
	.byte	$A1
	.byte	$03
	.byte	$83
	.byte	$03
	.byte	$03
	.byte	$83
	.byte	$03
	.byte	$83
	.byte	$93
	.byte	$03
	.byte	$03
	.byte	$03
	.byte	$83
	.byte	$03
	.byte	$03
	.byte	$93
	.byte	$03
	.byte	$03
	.byte	$03
	.byte	$83
	.byte	$03
	.byte	$03
	.byte	$83
	.byte	$03
	.byte	$03
	.byte	$03
	.byte	$03
	.byte	$C9
	.byte	$D9
	.byte	$D8
	.byte	$01
	.byte	$01
	.byte	$B5
	.byte	$B6
	.byte	$C5
	.byte	$C6
	.byte	$02
	.byte	$01
	.byte	$B4
	.byte	$01
	.byte	$C4
	.byte	$02
	.byte	$B7
	.byte	$01
	.byte	$C7
	.byte	$01
	.byte	$02
	.byte	$01
	.byte	$01
	.byte	$A5
	.byte	$A6
	.byte	$02
	.byte	$D5
	.byte	$D6
	.byte	$01
	.byte	$01
	.byte	$02
	.byte	$00
	.byte	$00
	.byte	$6B
	.byte	$6B
	.byte	$00
	.byte	$00
	.byte	$00
	.byte	$00
	.byte	$00
	.byte	$01
	.byte	$10
	.byte	$10
	.byte	$01
	.byte	$01
	.byte	$00
	.byte	$01
	.byte	$9F
	.byte	$01
	.byte	$01
	.byte	$00
	.byte	$C8
	.byte	$C9
	.byte	$D8
	.byte	$D9
	.byte	$01
	.byte	$01
	.byte	$01
	.byte	$D8
	.byte	$D9
	.byte	$01
	.byte	$C8
	.byte	$01
	.byte	$D8
	.byte	$D9
	.byte	$01
	.byte	$01
	.byte	$C9
	.byte	$D8
	.byte	$D9
	.byte	$01
	.byte	$01
	.byte	$01
	.byte	$D8
	.byte	$01
	.byte	$01
	.byte	$01
	.byte	$01
	.byte	$01
	.byte	$D9
	.byte	$01
	.byte	$01
	.byte	$D9
	.byte	$01
	.byte	$01
	.byte	$01
	.byte	$00
	.byte	$5E
	.byte	$6C
	.byte	$03
	.byte	$00
	.byte	$00
	.byte	$00
	.byte	$6B
	.byte	$6C
	.byte	$00
	.byte	$6B
	.byte	$5E
	.byte	$03
	.byte	$6D
	.byte	$00
	.byte	$6B
	.byte	$5E
	.byte	$6D
	.byte	$5D
	.byte	$00
	.byte	$6D
	.byte	$03
	.byte	$03
	.byte	$6D
	.byte	$00
	.byte	$6D
	.byte	$6D
	.byte	$03
	.byte	$03
	.byte	$00
	.byte	$6D
	.byte	$03
	.byte	$03
	.byte	$03
	.byte	$00
	.byte	$6D
	.byte	$40
	.byte	$6D
	.byte	$40
	.byte	$00
	.byte	$40
	.byte	$6E
	.byte	$6F
	.byte	$40
	.byte	$00
	.byte	$6D
	.byte	$14
	.byte	$03
	.byte	$6F
	.byte	$00
	.byte	$40
	.byte	$6E
	.byte	$40
	.byte	$40
	.byte	$00
	.byte	$6E
	.byte	$6E
	.byte	$40
	.byte	$6E
	.byte	$00
	.byte	$00
	.byte	$00
	.byte	$1E
	.byte	$1E
	.byte	$01
	.byte	$00
	.byte	$00
	.byte	$00
	.byte	$1C
	.byte	$01
	.byte	$00
	.byte	$00
	.byte	$1D
	.byte	$00
	.byte	$01
	.byte	$6D
	.byte	$6D
	.byte	$A3
	.byte	$A4
	.byte	$00
	.byte	$5D
	.byte	$5B
	.byte	$40
	.byte	$9F
	.byte	$00
	.byte	$5C
	.byte	$80
	.byte	$9F
	.byte	$01
	.byte	$00
	.byte	$00
	.byte	$00
	.byte	$5B
	.byte	$5C
	.byte	$00
	.byte	$5F
	.byte	$00
	.byte	$9F
	.byte	$5F
	.byte	$00
	.byte	$5B
	.byte	$5C
	.byte	$9F
	.byte	$01
	.byte	$00
	.byte	$6B
	.byte	$6C
	.byte	$01
	.byte	$A3
	.byte	$00
	.byte	$6D
	.byte	$03
	.byte	$A4
	.byte	$03
	.byte	$00
	.byte	$A3
	.byte	$A4
	.byte	$9F
	.byte	$9F
	.byte	$00
	.byte	$03
	.byte	$6D
	.byte	$A4
	.byte	$03
	.byte	$00
	.byte	$9F
	.byte	$9F
	.byte	$9F
	.byte	$9F
	.byte	$00
	.byte	$01
	.byte	$01
	.byte	$9F
	.byte	$9F
	.byte	$00
	.byte	$9F
	.byte	$01
	.byte	$9F
	.byte	$9F
	.byte	$00
	.byte	$6E
	.byte	$9F
	.byte	$6E
	.byte	$8F
	.byte	$00
	.byte	$8F
	.byte	$7F
	.byte	$6E
	.byte	$6E
	.byte	$00
	.byte	$9F
	.byte	$9F
	.byte	$8F
	.byte	$7F
	.byte	$00
	.byte	$7F
	.byte	$9F
	.byte	$6E
	.byte	$8F
	.byte	$00
_metatile_colision_map:
	.byte	$40
	.byte	$40
	.byte	$40
	.byte	$40
	.byte	$40
	.byte	$40
	.byte	$40
	.byte	$40
	.byte	$40
	.byte	$40
	.byte	$40
	.byte	$40
	.byte	$40
	.byte	$40
	.byte	$40
	.byte	$40
	.byte	$40
	.byte	$40
	.byte	$40
	.byte	$40
	.byte	$40
	.byte	$40
	.byte	$40
	.byte	$40
	.byte	$40
	.byte	$40
	.byte	$00
	.byte	$40
	.byte	$40
	.byte	$00
	.byte	$40
	.byte	$40
	.byte	$40
	.byte	$40
	.byte	$40
	.byte	$40
	.byte	$40
	.byte	$40
	.byte	$40
	.byte	$40
	.byte	$40
	.byte	$00
	.byte	$00
	.byte	$00
	.byte	$00
	.byte	$00
	.byte	$00
	.byte	$00
	.byte	$40
	.byte	$40
	.byte	$40
	.byte	$40
	.byte	$40
	.byte	$40
	.byte	$40
	.byte	$40
	.byte	$40
	.byte	$40
	.byte	$40
	.byte	$40
	.byte	$40
	.byte	$01
	.byte	$01
	.byte	$00
	.byte	$00
	.byte	$00
	.byte	$00
	.byte	$00
	.byte	$00
	.byte	$00
	.byte	$00
	.byte	$00
	.byte	$00
	.byte	$00
	.byte	$00
	.byte	$00
	.byte	$00
	.byte	$00
	.byte	$00
	.byte	$00
	.byte	$00
	.byte	$00
	.byte	$00
	.byte	$00
	.byte	$00
	.byte	$00
	.byte	$00
	.byte	$00
	.byte	$00
	.byte	$00
	.byte	$00
	.byte	$00
	.byte	$00
	.byte	$00
	.byte	$00
	.byte	$00
	.byte	$00
	.byte	$00
	.byte	$00
	.byte	$00
	.byte	$00
	.byte	$00
	.byte	$00
	.byte	$00
	.byte	$00
	.byte	$00
	.byte	$00
	.byte	$00
	.byte	$00
	.byte	$00
	.byte	$00
	.byte	$00
	.byte	$00
	.byte	$00
	.byte	$00
	.byte	$00
	.byte	$00
	.byte	$00
	.byte	$00
	.byte	$00
	.byte	$00
	.byte	$00
	.byte	$00
	.byte	$00
	.byte	$00
	.byte	$00
	.byte	$00
	.byte	$00
	.byte	$00
	.byte	$00
	.byte	$00
	.byte	$00
	.byte	$00
	.byte	$00
	.byte	$00
	.byte	$00
	.byte	$00
	.byte	$00
	.byte	$00
	.byte	$00
	.byte	$00
	.byte	$00
	.byte	$00
	.byte	$00
	.byte	$00
	.byte	$00
	.byte	$00
	.byte	$00
	.byte	$00
	.byte	$00
	.byte	$00
	.byte	$00
	.byte	$00
	.byte	$00
	.byte	$00
	.byte	$00
	.byte	$00
	.byte	$00
	.byte	$00
	.byte	$00
	.byte	$00
	.byte	$00
	.byte	$00
	.byte	$00
	.byte	$00
	.byte	$00
	.byte	$00
	.byte	$00
	.byte	$00
	.byte	$00
	.byte	$00
	.byte	$00
	.byte	$00
	.byte	$00
	.byte	$00
	.byte	$00
	.byte	$00
	.byte	$00
	.byte	$00
	.byte	$00
	.byte	$00
	.byte	$00
	.byte	$00
	.byte	$00
	.byte	$00
	.byte	$00
	.byte	$00
	.byte	$00
	.byte	$00
	.byte	$00
	.byte	$00
	.byte	$00
	.byte	$00
	.byte	$00
	.byte	$00
	.byte	$00
	.byte	$00
	.byte	$00
	.byte	$00
	.byte	$00
	.byte	$00
	.byte	$00
	.byte	$00
	.byte	$00
	.byte	$00
	.byte	$00
	.byte	$00
	.byte	$00
	.byte	$00
	.byte	$00
	.byte	$00
	.byte	$00
	.byte	$00
	.byte	$00
	.byte	$00
	.byte	$00
	.byte	$00
	.byte	$00
	.byte	$00
	.byte	$00
	.byte	$00
	.byte	$00
	.byte	$00
	.byte	$00
	.byte	$00
	.byte	$00
	.byte	$00
	.byte	$00
	.byte	$00
	.byte	$00
	.byte	$00
	.byte	$00
	.byte	$00
	.byte	$00
	.byte	$00
	.byte	$00
	.byte	$00
	.byte	$00
	.byte	$00
	.byte	$00
_level0_0:
	.byte	$3C
	.byte	$1E
	.byte	$1F
	.byte	$50
	.byte	$8B
	.byte	$86
	.byte	$2D
	.byte	$87
	.byte	$7B
	.byte	$86
	.byte	$2D
	.byte	$2D
	.byte	$92
	.byte	$94
	.byte	$89
	.byte	$94
	.byte	$00
	.byte	$01
	.byte	$1E
	.byte	$1F
	.byte	$86
	.byte	$93
	.byte	$2D
	.byte	$2D
	.byte	$87
	.byte	$93
	.byte	$2E
	.byte	$93
	.byte	$2D
	.byte	$2D
	.byte	$89
	.byte	$91
	.byte	$02
	.byte	$03
	.byte	$00
	.byte	$1E
	.byte	$93
	.byte	$92
	.byte	$2E
	.byte	$2D
	.byte	$92
	.byte	$91
	.byte	$2E
	.byte	$2E
	.byte	$93
	.byte	$2D
	.byte	$94
	.byte	$2D
	.byte	$00
	.byte	$01
	.byte	$02
	.byte	$02
	.byte	$91
	.byte	$93
	.byte	$2D
	.byte	$2D
	.byte	$2D
	.byte	$91
	.byte	$89
	.byte	$2D
	.byte	$2D
	.byte	$92
	.byte	$94
	.byte	$91
	.byte	$02
	.byte	$03
	.byte	$15
	.byte	$1B
	.byte	$91
	.byte	$2D
	.byte	$2D
	.byte	$2D
	.byte	$89
	.byte	$90
	.byte	$88
	.byte	$2E
	.byte	$2D
	.byte	$2E
	.byte	$88
	.byte	$91
	.byte	$00
	.byte	$15
	.byte	$CC
	.byte	$CD
	.byte	$29
	.byte	$89
	.byte	$2D
	.byte	$88
	.byte	$2A
	.byte	$46
	.byte	$90
	.byte	$2A
	.byte	$2B
	.byte	$2F
	.byte	$90
	.byte	$88
	.byte	$14
	.byte	$CE
	.byte	$BF
	.byte	$9A
	.byte	$49
	.byte	$90
	.byte	$2C
	.byte	$2A
	.byte	$47
	.byte	$73
	.byte	$48
	.byte	$49
	.byte	$6A
	.byte	$9F
	.byte	$49
	.byte	$2B
	.byte	$CA
	.byte	$C9
	.byte	$CD
	.byte	$50
	.byte	$50
	.byte	$49
	.byte	$62
	.byte	$48
	.byte	$50
	.byte	$71
	.byte	$77
	.byte	$50
	.byte	$69
	.byte	$50
	.byte	$50
	.byte	$9F
	.byte	$C9
	.byte	$CB
	.byte	$51
	.byte	$50
	.byte	$50
	.byte	$66
	.byte	$60
	.byte	$67
	.byte	$50
	.byte	$71
	.byte	$50
	.byte	$6E
	.byte	$69
	.byte	$50
	.byte	$50
	.byte	$76
	.byte	$C9
	.byte	$CB
	.byte	$CD
	.byte	$E2
	.byte	$59
	.byte	$59
	.byte	$61
	.byte	$58
	.byte	$59
	.byte	$72
	.byte	$58
	.byte	$59
	.byte	$68
	.byte	$58
	.byte	$59
	.byte	$58
	.byte	$C9
	.byte	$C9
	.byte	$CB
	.byte	$51
	.byte	$54
	.byte	$63
	.byte	$64
	.byte	$65
	.byte	$74
	.byte	$55
	.byte	$75
	.byte	$52
	.byte	$69
	.byte	$54
	.byte	$51
	.byte	$74
	.byte	$0F
	.byte	$04
	.byte	$04
	.byte	$0C
	.byte	$42
	.byte	$51
	.byte	$55
	.byte	$42
	.byte	$54
	.byte	$55
	.byte	$53
	.byte	$6B
	.byte	$6C
	.byte	$6D
	.byte	$53
	.byte	$51
	.byte	$02
	.byte	$3A
	.byte	$3B
	.byte	$00
	.byte	$0F
	.byte	$06
	.byte	$08
	.byte	$0C
	.byte	$51
	.byte	$40
	.byte	$41
	.byte	$56
	.byte	$55
	.byte	$57
	.byte	$56
	.byte	$56
	.byte	$00
	.byte	$3C
	.byte	$10
	.byte	$02
	.byte	$00
	.byte	$03
	.byte	$00
	.byte	$01
	.byte	$0E
	.byte	$07
	.byte	$05
	.byte	$06
	.byte	$07
	.byte	$08
	.byte	$09
	.byte	$0A
	.byte	$37
	.byte	$37
	.byte	$37
	.byte	$38
	.byte	$38
	.byte	$37
	.byte	$37
	.byte	$38
	.byte	$38
	.byte	$37
	.byte	$38
	.byte	$38
	.byte	$37
	.byte	$37
	.byte	$38
	.byte	$37
_level0_1:
	.byte	$2D
	.byte	$2E
	.byte	$89
	.byte	$88
	.byte	$89
	.byte	$2E
	.byte	$2E
	.byte	$89
	.byte	$88
	.byte	$89
	.byte	$2E
	.byte	$2E
	.byte	$89
	.byte	$87
	.byte	$50
	.byte	$50
	.byte	$2D
	.byte	$2E
	.byte	$94
	.byte	$93
	.byte	$93
	.byte	$2D
	.byte	$92
	.byte	$2E
	.byte	$94
	.byte	$2E
	.byte	$2E
	.byte	$2E
	.byte	$2E
	.byte	$2E
	.byte	$50
	.byte	$50
	.byte	$2E
	.byte	$2E
	.byte	$2E
	.byte	$91
	.byte	$2D
	.byte	$2E
	.byte	$2D
	.byte	$2E
	.byte	$92
	.byte	$2D
	.byte	$2E
	.byte	$2E
	.byte	$92
	.byte	$2A
	.byte	$50
	.byte	$50
	.byte	$2D
	.byte	$2E
	.byte	$92
	.byte	$88
	.byte	$94
	.byte	$2D
	.byte	$2E
	.byte	$2E
	.byte	$92
	.byte	$93
	.byte	$2E
	.byte	$2E
	.byte	$94
	.byte	$48
	.byte	$50
	.byte	$50
	.byte	$2D
	.byte	$2D
	.byte	$94
	.byte	$89
	.byte	$88
	.byte	$2D
	.byte	$2D
	.byte	$89
	.byte	$2A
	.byte	$2B
	.byte	$2C
	.byte	$2E
	.byte	$2A
	.byte	$DC
	.byte	$DE
	.byte	$50
	.byte	$90
	.byte	$2B
	.byte	$2C
	.byte	$2A
	.byte	$90
	.byte	$2D
	.byte	$2C
	.byte	$2A
	.byte	$46
	.byte	$62
	.byte	$47
	.byte	$2B
	.byte	$48
	.byte	$50
	.byte	$50
	.byte	$50
	.byte	$46
	.byte	$62
	.byte	$48
	.byte	$49
	.byte	$46
	.byte	$2F
	.byte	$46
	.byte	$46
	.byte	$48
	.byte	$61
	.byte	$67
	.byte	$9F
	.byte	$50
	.byte	$50
	.byte	$50
	.byte	$50
	.byte	$73
	.byte	$61
	.byte	$DC
	.byte	$DE
	.byte	$9F
	.byte	$6A
	.byte	$73
	.byte	$9E
	.byte	$50
	.byte	$61
	.byte	$50
	.byte	$50
	.byte	$50
	.byte	$50
	.byte	$50
	.byte	$50
	.byte	$71
	.byte	$60
	.byte	$50
	.byte	$50
	.byte	$50
	.byte	$69
	.byte	$71
	.byte	$77
	.byte	$50
	.byte	$61
	.byte	$50
	.byte	$50
	.byte	$50
	.byte	$50
	.byte	$50
	.byte	$50
	.byte	$72
	.byte	$60
	.byte	$58
	.byte	$58
	.byte	$59
	.byte	$68
	.byte	$72
	.byte	$58
	.byte	$59
	.byte	$61
	.byte	$58
	.byte	$59
	.byte	$58
	.byte	$58
	.byte	$58
	.byte	$58
	.byte	$63
	.byte	$64
	.byte	$65
	.byte	$54
	.byte	$52
	.byte	$69
	.byte	$72
	.byte	$52
	.byte	$63
	.byte	$64
	.byte	$65
	.byte	$54
	.byte	$55
	.byte	$54
	.byte	$51
	.byte	$53
	.byte	$55
	.byte	$55
	.byte	$52
	.byte	$42
	.byte	$6B
	.byte	$6C
	.byte	$6D
	.byte	$75
	.byte	$56
	.byte	$55
	.byte	$57
	.byte	$52
	.byte	$51
	.byte	$56
	.byte	$51
	.byte	$52
	.byte	$51
	.byte	$54
	.byte	$55
	.byte	$57
	.byte	$56
	.byte	$41
	.byte	$57
	.byte	$51
	.byte	$51
	.byte	$53
	.byte	$41
	.byte	$40
	.byte	$42
	.byte	$0F
	.byte	$04
	.byte	$0C
	.byte	$0B
	.byte	$04
	.byte	$05
	.byte	$06
	.byte	$07
	.byte	$04
	.byte	$08
	.byte	$06
	.byte	$07
	.byte	$04
	.byte	$05
	.byte	$06
	.byte	$0D
	.byte	$00
	.byte	$10
	.byte	$11
	.byte	$37
	.byte	$38
	.byte	$38
	.byte	$37
	.byte	$38
	.byte	$37
	.byte	$37
	.byte	$38
	.byte	$37
	.byte	$38
	.byte	$37
	.byte	$37
	.byte	$37
	.byte	$37
	.byte	$37
	.byte	$38
_level0_2:
	.byte	$50
	.byte	$50
	.byte	$50
	.byte	$50
	.byte	$50
	.byte	$50
	.byte	$50
	.byte	$50
	.byte	$50
	.byte	$50
	.byte	$50
	.byte	$50
	.byte	$50
	.byte	$50
	.byte	$50
	.byte	$50
	.byte	$50
	.byte	$50
	.byte	$50
	.byte	$50
	.byte	$50
	.byte	$50
	.byte	$50
	.byte	$50
	.byte	$50
	.byte	$50
	.byte	$50
	.byte	$50
	.byte	$DD
	.byte	$DC
	.byte	$DC
	.byte	$DC
	.byte	$DD
	.byte	$DC
	.byte	$DC
	.byte	$DE
	.byte	$50
	.byte	$50
	.byte	$50
	.byte	$50
	.byte	$50
	.byte	$50
	.byte	$50
	.byte	$50
	.byte	$50
	.byte	$50
	.byte	$50
	.byte	$50
	.byte	$50
	.byte	$50
	.byte	$50
	.byte	$50
	.byte	$50
	.byte	$50
	.byte	$50
	.byte	$50
	.byte	$50
	.byte	$50
	.byte	$50
	.byte	$50
	.byte	$50
	.byte	$50
	.byte	$50
	.byte	$50
	.byte	$50
	.byte	$50
	.byte	$50
	.byte	$50
	.byte	$50
	.byte	$50
	.byte	$50
	.byte	$50
	.byte	$50
	.byte	$50
	.byte	$50
	.byte	$50
	.byte	$50
	.byte	$50
	.byte	$50
	.byte	$50
	.byte	$50
	.byte	$50
	.byte	$50
	.byte	$50
	.byte	$50
	.byte	$50
	.byte	$DD
	.byte	$DC
	.byte	$DE
	.byte	$50
	.byte	$50
	.byte	$50
	.byte	$50
	.byte	$50
	.byte	$50
	.byte	$50
	.byte	$50
	.byte	$50
	.byte	$50
	.byte	$50
	.byte	$50
	.byte	$50
	.byte	$50
	.byte	$50
	.byte	$50
	.byte	$50
	.byte	$50
	.byte	$50
	.byte	$50
	.byte	$50
	.byte	$50
	.byte	$50
	.byte	$50
	.byte	$50
	.byte	$50
	.byte	$50
	.byte	$50
	.byte	$50
	.byte	$50
	.byte	$50
	.byte	$50
	.byte	$50
	.byte	$50
	.byte	$50
	.byte	$50
	.byte	$50
	.byte	$50
	.byte	$50
	.byte	$50
	.byte	$50
	.byte	$50
	.byte	$50
	.byte	$50
	.byte	$50
	.byte	$50
	.byte	$50
	.byte	$50
	.byte	$50
	.byte	$50
	.byte	$50
	.byte	$50
	.byte	$50
	.byte	$AC
	.byte	$50
	.byte	$50
	.byte	$50
	.byte	$50
	.byte	$AC
	.byte	$50
	.byte	$50
	.byte	$50
	.byte	$50
	.byte	$50
	.byte	$50
	.byte	$AD
	.byte	$50
	.byte	$50
	.byte	$50
	.byte	$35
	.byte	$34
	.byte	$A4
	.byte	$A1
	.byte	$BB
	.byte	$BD
	.byte	$B6
	.byte	$BD
	.byte	$BA
	.byte	$B0
	.byte	$BC
	.byte	$B0
	.byte	$BD
	.byte	$BC
	.byte	$35
	.byte	$36
	.byte	$25
	.byte	$21
	.byte	$51
	.byte	$A0
	.byte	$B8
	.byte	$B0
	.byte	$BC
	.byte	$B0
	.byte	$B8
	.byte	$B0
	.byte	$B7
	.byte	$B9
	.byte	$B0
	.byte	$B8
	.byte	$25
	.byte	$21
	.byte	$20
	.byte	$20
	.byte	$A3
	.byte	$A2
	.byte	$AA
	.byte	$A9
	.byte	$B0
	.byte	$A8
	.byte	$AB
	.byte	$B0
	.byte	$A8
	.byte	$A9
	.byte	$35
	.byte	$36
	.byte	$23
	.byte	$20
	.byte	$20
	.byte	$20
	.byte	$A5
	.byte	$A6
	.byte	$A6
	.byte	$A6
	.byte	$A6
	.byte	$35
	.byte	$34
	.byte	$33
	.byte	$34
	.byte	$36
	.byte	$25
	.byte	$21
	.byte	$20
	.byte	$20
	.byte	$20
	.byte	$20
	.byte	$51
	.byte	$51
	.byte	$51
	.byte	$51
	.byte	$51
	.byte	$37
	.byte	$37
	.byte	$37
	.byte	$38
	.byte	$38
	.byte	$23
	.byte	$20
	.byte	$20
	.byte	$20
	.byte	$20
	.byte	$20
_level0_3:
	.byte	$50
	.byte	$50
	.byte	$50
	.byte	$50
	.byte	$50
	.byte	$50
	.byte	$50
	.byte	$50
	.byte	$8B
	.byte	$86
	.byte	$89
	.byte	$2D
	.byte	$89
	.byte	$87
	.byte	$7B
	.byte	$50
	.byte	$DE
	.byte	$50
	.byte	$50
	.byte	$50
	.byte	$50
	.byte	$50
	.byte	$50
	.byte	$50
	.byte	$86
	.byte	$89
	.byte	$2E
	.byte	$88
	.byte	$88
	.byte	$89
	.byte	$87
	.byte	$50
	.byte	$50
	.byte	$50
	.byte	$50
	.byte	$50
	.byte	$50
	.byte	$50
	.byte	$DD
	.byte	$DC
	.byte	$89
	.byte	$93
	.byte	$88
	.byte	$2D
	.byte	$91
	.byte	$2E
	.byte	$94
	.byte	$50
	.byte	$50
	.byte	$50
	.byte	$50
	.byte	$50
	.byte	$50
	.byte	$50
	.byte	$50
	.byte	$50
	.byte	$91
	.byte	$89
	.byte	$2E
	.byte	$2D
	.byte	$92
	.byte	$2E
	.byte	$89
	.byte	$50
	.byte	$50
	.byte	$50
	.byte	$50
	.byte	$50
	.byte	$50
	.byte	$50
	.byte	$50
	.byte	$50
	.byte	$2C
	.byte	$88
	.byte	$91
	.byte	$2E
	.byte	$88
	.byte	$89
	.byte	$2A
	.byte	$50
	.byte	$50
	.byte	$DD
	.byte	$DC
	.byte	$DC
	.byte	$DE
	.byte	$50
	.byte	$50
	.byte	$50
	.byte	$49
	.byte	$2C
	.byte	$90
	.byte	$2B
	.byte	$90
	.byte	$2A
	.byte	$48
	.byte	$50
	.byte	$50
	.byte	$50
	.byte	$50
	.byte	$50
	.byte	$50
	.byte	$50
	.byte	$50
	.byte	$50
	.byte	$50
	.byte	$9F
	.byte	$49
	.byte	$6A
	.byte	$47
	.byte	$48
	.byte	$50
	.byte	$50
	.byte	$50
	.byte	$50
	.byte	$50
	.byte	$50
	.byte	$50
	.byte	$50
	.byte	$50
	.byte	$50
	.byte	$50
	.byte	$50
	.byte	$6E
	.byte	$69
	.byte	$50
	.byte	$50
	.byte	$50
	.byte	$50
	.byte	$50
	.byte	$AD
	.byte	$50
	.byte	$50
	.byte	$50
	.byte	$50
	.byte	$50
	.byte	$50
	.byte	$50
	.byte	$50
	.byte	$50
	.byte	$68
	.byte	$50
	.byte	$50
	.byte	$50
	.byte	$50
	.byte	$33
	.byte	$36
	.byte	$50
	.byte	$50
	.byte	$50
	.byte	$50
	.byte	$AC
	.byte	$50
	.byte	$50
	.byte	$50
	.byte	$50
	.byte	$69
	.byte	$50
	.byte	$50
	.byte	$50
	.byte	$50
	.byte	$21
	.byte	$26
	.byte	$35
	.byte	$36
	.byte	$BC
	.byte	$B0
	.byte	$BD
	.byte	$BC
	.byte	$B0
	.byte	$4D
	.byte	$6B
	.byte	$6C
	.byte	$6D
	.byte	$53
	.byte	$4F
	.byte	$BE
	.byte	$20
	.byte	$20
	.byte	$21
	.byte	$26
	.byte	$BD
	.byte	$B8
	.byte	$B0
	.byte	$B7
	.byte	$B6
	.byte	$4A
	.byte	$4B
	.byte	$5A
	.byte	$4B
	.byte	$5B
	.byte	$4C
	.byte	$B6
	.byte	$20
	.byte	$20
	.byte	$20
	.byte	$24
	.byte	$35
	.byte	$34
	.byte	$36
	.byte	$B0
	.byte	$A8
	.byte	$B0
	.byte	$B0
	.byte	$B9
	.byte	$B0
	.byte	$A8
	.byte	$AB
	.byte	$A8
	.byte	$20
	.byte	$20
	.byte	$20
	.byte	$20
	.byte	$21
	.byte	$21
	.byte	$26
	.byte	$35
	.byte	$33
	.byte	$34
	.byte	$33
	.byte	$34
	.byte	$33
	.byte	$33
	.byte	$33
	.byte	$36
	.byte	$20
	.byte	$20
	.byte	$20
	.byte	$20
	.byte	$20
	.byte	$20
	.byte	$24
	.byte	$38
	.byte	$37
	.byte	$38
	.byte	$37
	.byte	$37
	.byte	$37
	.byte	$37
	.byte	$37
	.byte	$38
_level0_4:
	.byte	$50
	.byte	$50
	.byte	$50
	.byte	$50
	.byte	$50
	.byte	$50
	.byte	$50
	.byte	$50
	.byte	$50
	.byte	$50
	.byte	$50
	.byte	$50
	.byte	$50
	.byte	$50
	.byte	$50
	.byte	$50
	.byte	$50
	.byte	$50
	.byte	$50
	.byte	$50
	.byte	$50
	.byte	$50
	.byte	$50
	.byte	$50
	.byte	$50
	.byte	$50
	.byte	$50
	.byte	$50
	.byte	$DD
	.byte	$DC
	.byte	$DC
	.byte	$DE
	.byte	$50
	.byte	$50
	.byte	$50
	.byte	$50
	.byte	$50
	.byte	$50
	.byte	$50
	.byte	$50
	.byte	$50
	.byte	$50
	.byte	$50
	.byte	$50
	.byte	$50
	.byte	$50
	.byte	$50
	.byte	$50
	.byte	$50
	.byte	$DD
	.byte	$DC
	.byte	$DC
	.byte	$DE
	.byte	$50
	.byte	$50
	.byte	$50
	.byte	$50
	.byte	$50
	.byte	$50
	.byte	$50
	.byte	$50
	.byte	$50
	.byte	$50
	.byte	$50
	.byte	$50
	.byte	$50
	.byte	$50
	.byte	$50
	.byte	$50
	.byte	$50
	.byte	$50
	.byte	$50
	.byte	$50
	.byte	$50
	.byte	$50
	.byte	$50
	.byte	$50
	.byte	$50
	.byte	$50
	.byte	$50
	.byte	$50
	.byte	$50
	.byte	$50
	.byte	$50
	.byte	$50
	.byte	$50
	.byte	$50
	.byte	$50
	.byte	$50
	.byte	$50
	.byte	$50
	.byte	$50
	.byte	$50
	.byte	$50
	.byte	$50
	.byte	$50
	.byte	$50
	.byte	$50
	.byte	$50
	.byte	$50
	.byte	$50
	.byte	$50
	.byte	$50
	.byte	$50
	.byte	$DD
	.byte	$DC
	.byte	$DE
	.byte	$50
	.byte	$50
	.byte	$50
	.byte	$50
	.byte	$50
	.byte	$50
	.byte	$50
	.byte	$50
	.byte	$50
	.byte	$50
	.byte	$50
	.byte	$50
	.byte	$50
	.byte	$50
	.byte	$50
	.byte	$50
	.byte	$50
	.byte	$50
	.byte	$50
	.byte	$50
	.byte	$D1
	.byte	$50
	.byte	$50
	.byte	$50
	.byte	$50
	.byte	$50
	.byte	$50
	.byte	$50
	.byte	$50
	.byte	$50
	.byte	$50
	.byte	$50
	.byte	$50
	.byte	$50
	.byte	$D1
	.byte	$D2
	.byte	$D6
	.byte	$50
	.byte	$50
	.byte	$AC
	.byte	$50
	.byte	$50
	.byte	$50
	.byte	$50
	.byte	$50
	.byte	$50
	.byte	$50
	.byte	$AD
	.byte	$50
	.byte	$D0
	.byte	$D5
	.byte	$D4
	.byte	$D4
	.byte	$B0
	.byte	$B6
	.byte	$B0
	.byte	$BA
	.byte	$B0
	.byte	$BB
	.byte	$7E
	.byte	$78
	.byte	$5F
	.byte	$BA
	.byte	$B0
	.byte	$BA
	.byte	$BD
	.byte	$BE
	.byte	$BA
	.byte	$B0
	.byte	$B8
	.byte	$B0
	.byte	$B9
	.byte	$B0
	.byte	$B7
	.byte	$BC
	.byte	$5C
	.byte	$5D
	.byte	$5E
	.byte	$B6
	.byte	$B7
	.byte	$A9
	.byte	$AB
	.byte	$B7
	.byte	$0E
	.byte	$0D
	.byte	$B0
	.byte	$B9
	.byte	$B0
	.byte	$AA
	.byte	$B0
	.byte	$B7
	.byte	$B0
	.byte	$A8
	.byte	$B7
	.byte	$B0
	.byte	$A9
	.byte	$B0
	.byte	$0E
	.byte	$0D
	.byte	$00
	.byte	$3C
	.byte	$A6
	.byte	$A6
	.byte	$A6
	.byte	$A6
	.byte	$A6
	.byte	$0E
	.byte	$09
	.byte	$04
	.byte	$05
	.byte	$06
	.byte	$07
	.byte	$08
	.byte	$00
	.byte	$14
	.byte	$02
	.byte	$01
	.byte	$51
	.byte	$51
	.byte	$51
	.byte	$51
	.byte	$51
	.byte	$38
	.byte	$37
	.byte	$37
	.byte	$38
	.byte	$38
	.byte	$37
	.byte	$38
	.byte	$38
	.byte	$37
	.byte	$37
	.byte	$38
_level0_5:
	.byte	$50
	.byte	$50
	.byte	$50
	.byte	$50
	.byte	$50
	.byte	$50
	.byte	$50
	.byte	$DD
	.byte	$DC
	.byte	$DC
	.byte	$DC
	.byte	$DE
	.byte	$50
	.byte	$50
	.byte	$50
	.byte	$50
	.byte	$50
	.byte	$50
	.byte	$50
	.byte	$50
	.byte	$50
	.byte	$50
	.byte	$50
	.byte	$50
	.byte	$50
	.byte	$50
	.byte	$50
	.byte	$50
	.byte	$50
	.byte	$50
	.byte	$50
	.byte	$DD
	.byte	$50
	.byte	$50
	.byte	$50
	.byte	$50
	.byte	$50
	.byte	$50
	.byte	$50
	.byte	$50
	.byte	$50
	.byte	$50
	.byte	$50
	.byte	$50
	.byte	$50
	.byte	$50
	.byte	$50
	.byte	$50
	.byte	$50
	.byte	$50
	.byte	$50
	.byte	$50
	.byte	$50
	.byte	$50
	.byte	$50
	.byte	$50
	.byte	$50
	.byte	$50
	.byte	$DD
	.byte	$DC
	.byte	$DE
	.byte	$50
	.byte	$50
	.byte	$50
	.byte	$50
	.byte	$50
	.byte	$50
	.byte	$50
	.byte	$50
	.byte	$50
	.byte	$50
	.byte	$50
	.byte	$50
	.byte	$50
	.byte	$50
	.byte	$50
	.byte	$50
	.byte	$50
	.byte	$D1
	.byte	$D3
	.byte	$50
	.byte	$50
	.byte	$C5
	.byte	$D1
	.byte	$D3
	.byte	$E0
	.byte	$E1
	.byte	$E2
	.byte	$50
	.byte	$50
	.byte	$50
	.byte	$50
	.byte	$D1
	.byte	$D2
	.byte	$D5
	.byte	$0E
	.byte	$50
	.byte	$D0
	.byte	$D4
	.byte	$D6
	.byte	$D7
	.byte	$EC
	.byte	$EB
	.byte	$EA
	.byte	$E3
	.byte	$50
	.byte	$50
	.byte	$D0
	.byte	$D5
	.byte	$D4
	.byte	$D4
	.byte	$00
	.byte	$D2
	.byte	$D4
	.byte	$D4
	.byte	$D4
	.byte	$D9
	.byte	$DA
	.byte	$EE
	.byte	$E9
	.byte	$E9
	.byte	$E4
	.byte	$E5
	.byte	$E6
	.byte	$D4
	.byte	$0F
	.byte	$0C
	.byte	$02
	.byte	$D6
	.byte	$D4
	.byte	$D6
	.byte	$D6
	.byte	$D4
	.byte	$D8
	.byte	$DA
	.byte	$EF
	.byte	$E9
	.byte	$E9
	.byte	$EB
	.byte	$EA
	.byte	$E7
	.byte	$3C
	.byte	$12
	.byte	$3A
	.byte	$0E
	.byte	$07
	.byte	$04
	.byte	$06
	.byte	$04
	.byte	$0C
	.byte	$D8
	.byte	$DB
	.byte	$EE
	.byte	$0E
	.byte	$0C
	.byte	$E9
	.byte	$EB
	.byte	$12
	.byte	$01
	.byte	$12
	.byte	$00
	.byte	$3C
	.byte	$12
	.byte	$02
	.byte	$10
	.byte	$01
	.byte	$BC
	.byte	$B0
	.byte	$BD
	.byte	$00
	.byte	$01
	.byte	$BB
	.byte	$BD
	.byte	$10
	.byte	$03
	.byte	$3C
	.byte	$02
	.byte	$3A
	.byte	$3B
	.byte	$10
	.byte	$12
	.byte	$11
	.byte	$B9
	.byte	$B0
	.byte	$B9
	.byte	$02
	.byte	$03
	.byte	$B8
	.byte	$BC
	.byte	$3A
	.byte	$3B
	.byte	$3C
	.byte	$00
	.byte	$01
	.byte	$3C
	.byte	$3A
	.byte	$3B
	.byte	$01
	.byte	$A9
	.byte	$B6
	.byte	$A9
	.byte	$00
	.byte	$01
	.byte	$B0
	.byte	$A7
	.byte	$00
	.byte	$3C
	.byte	$00
	.byte	$02
	.byte	$03
	.byte	$10
	.byte	$3C
	.byte	$10
	.byte	$03
	.byte	$A6
	.byte	$A6
	.byte	$A6
	.byte	$02
	.byte	$03
	.byte	$A6
	.byte	$A6
	.byte	$02
	.byte	$01
	.byte	$02
	.byte	$38
	.byte	$37
	.byte	$37
	.byte	$38
	.byte	$37
	.byte	$38
	.byte	$51
	.byte	$51
	.byte	$51
	.byte	$38
	.byte	$38
	.byte	$51
	.byte	$51
	.byte	$38
	.byte	$38
	.byte	$37
_level0_6:
	.byte	$50
	.byte	$50
	.byte	$50
	.byte	$50
	.byte	$50
	.byte	$50
	.byte	$50
	.byte	$50
	.byte	$DD
	.byte	$DC
	.byte	$DC
	.byte	$DC
	.byte	$DE
	.byte	$50
	.byte	$50
	.byte	$50
	.byte	$DC
	.byte	$DC
	.byte	$DC
	.byte	$DE
	.byte	$50
	.byte	$50
	.byte	$50
	.byte	$50
	.byte	$50
	.byte	$50
	.byte	$50
	.byte	$50
	.byte	$50
	.byte	$50
	.byte	$50
	.byte	$50
	.byte	$50
	.byte	$50
	.byte	$50
	.byte	$50
	.byte	$50
	.byte	$50
	.byte	$50
	.byte	$50
	.byte	$50
	.byte	$50
	.byte	$50
	.byte	$50
	.byte	$50
	.byte	$50
	.byte	$50
	.byte	$DD
	.byte	$50
	.byte	$50
	.byte	$50
	.byte	$50
	.byte	$50
	.byte	$50
	.byte	$50
	.byte	$50
	.byte	$50
	.byte	$50
	.byte	$50
	.byte	$50
	.byte	$50
	.byte	$50
	.byte	$50
	.byte	$50
	.byte	$E3
	.byte	$AC
	.byte	$50
	.byte	$50
	.byte	$50
	.byte	$50
	.byte	$50
	.byte	$DD
	.byte	$DC
	.byte	$DC
	.byte	$DE
	.byte	$50
	.byte	$50
	.byte	$50
	.byte	$50
	.byte	$50
	.byte	$0A
	.byte	$06
	.byte	$0C
	.byte	$50
	.byte	$50
	.byte	$50
	.byte	$50
	.byte	$50
	.byte	$50
	.byte	$50
	.byte	$50
	.byte	$50
	.byte	$50
	.byte	$D1
	.byte	$D3
	.byte	$E0
	.byte	$01
	.byte	$02
	.byte	$03
	.byte	$E4
	.byte	$E2
	.byte	$50
	.byte	$AC
	.byte	$50
	.byte	$50
	.byte	$50
	.byte	$50
	.byte	$C5
	.byte	$D0
	.byte	$D4
	.byte	$D9
	.byte	$EC
	.byte	$02
	.byte	$00
	.byte	$01
	.byte	$0E
	.byte	$08
	.byte	$06
	.byte	$0D
	.byte	$50
	.byte	$50
	.byte	$D1
	.byte	$D2
	.byte	$D4
	.byte	$D6
	.byte	$D4
	.byte	$D5
	.byte	$DB
	.byte	$3B
	.byte	$02
	.byte	$03
	.byte	$00
	.byte	$01
	.byte	$02
	.byte	$11
	.byte	$E4
	.byte	$E5
	.byte	$E8
	.byte	$D6
	.byte	$D6
	.byte	$D4
	.byte	$D6
	.byte	$D4
	.byte	$D8
	.byte	$12
	.byte	$3C
	.byte	$01
	.byte	$02
	.byte	$03
	.byte	$00
	.byte	$3C
	.byte	$E9
	.byte	$EB
	.byte	$EB
	.byte	$E7
	.byte	$DF
	.byte	$D6
	.byte	$D4
	.byte	$D6
	.byte	$D9
	.byte	$01
	.byte	$3A
	.byte	$3B
	.byte	$00
	.byte	$3C
	.byte	$02
	.byte	$01
	.byte	$0E
	.byte	$0A
	.byte	$0C
	.byte	$B9
	.byte	$BA
	.byte	$BA
	.byte	$B0
	.byte	$BC
	.byte	$B0
	.byte	$03
	.byte	$00
	.byte	$00
	.byte	$02
	.byte	$10
	.byte	$01
	.byte	$02
	.byte	$3A
	.byte	$3B
	.byte	$3C
	.byte	$B8
	.byte	$B0
	.byte	$B8
	.byte	$AB
	.byte	$B9
	.byte	$BA
	.byte	$01
	.byte	$02
	.byte	$03
	.byte	$3C
	.byte	$3C
	.byte	$03
	.byte	$00
	.byte	$3C
	.byte	$14
	.byte	$10
	.byte	$A9
	.byte	$AB
	.byte	$A7
	.byte	$B8
	.byte	$B0
	.byte	$AA
	.byte	$03
	.byte	$01
	.byte	$00
	.byte	$01
	.byte	$3A
	.byte	$3B
	.byte	$02
	.byte	$10
	.byte	$3C
	.byte	$12
	.byte	$A6
	.byte	$A6
	.byte	$A6
	.byte	$A6
	.byte	$0E
	.byte	$09
	.byte	$37
	.byte	$38
	.byte	$38
	.byte	$37
	.byte	$38
	.byte	$38
	.byte	$37
	.byte	$37
	.byte	$38
	.byte	$37
	.byte	$51
	.byte	$51
	.byte	$51
	.byte	$51
	.byte	$10
	.byte	$00
_level0_7:
	.byte	$50
	.byte	$50
	.byte	$50
	.byte	$50
	.byte	$50
	.byte	$43
	.byte	$44
	.byte	$19
	.byte	$18
	.byte	$10
	.byte	$3D
	.byte	$00
	.byte	$3C
	.byte	$02
	.byte	$03
	.byte	$02
	.byte	$50
	.byte	$50
	.byte	$50
	.byte	$50
	.byte	$50
	.byte	$50
	.byte	$50
	.byte	$9B
	.byte	$44
	.byte	$19
	.byte	$3D
	.byte	$02
	.byte	$10
	.byte	$14
	.byte	$01
	.byte	$00
	.byte	$DC
	.byte	$DC
	.byte	$DE
	.byte	$50
	.byte	$50
	.byte	$50
	.byte	$50
	.byte	$50
	.byte	$50
	.byte	$9F
	.byte	$3D
	.byte	$00
	.byte	$3A
	.byte	$3B
	.byte	$03
	.byte	$02
	.byte	$50
	.byte	$50
	.byte	$50
	.byte	$50
	.byte	$50
	.byte	$50
	.byte	$50
	.byte	$50
	.byte	$50
	.byte	$50
	.byte	$3D
	.byte	$02
	.byte	$3C
	.byte	$00
	.byte	$01
	.byte	$00
	.byte	$50
	.byte	$50
	.byte	$50
	.byte	$50
	.byte	$50
	.byte	$50
	.byte	$50
	.byte	$AD
	.byte	$50
	.byte	$50
	.byte	$3D
	.byte	$00
	.byte	$10
	.byte	$03
	.byte	$02
	.byte	$02
	.byte	$E1
	.byte	$E2
	.byte	$50
	.byte	$50
	.byte	$50
	.byte	$50
	.byte	$3E
	.byte	$0E
	.byte	$05
	.byte	$0A
	.byte	$0D
	.byte	$02
	.byte	$01
	.byte	$00
	.byte	$3A
	.byte	$3B
	.byte	$E9
	.byte	$E9
	.byte	$E3
	.byte	$50
	.byte	$50
	.byte	$50
	.byte	$3D
	.byte	$3C
	.byte	$03
	.byte	$00
	.byte	$01
	.byte	$10
	.byte	$12
	.byte	$02
	.byte	$3C
	.byte	$00
	.byte	$ED
	.byte	$EF
	.byte	$EB
	.byte	$E3
	.byte	$50
	.byte	$50
	.byte	$3D
	.byte	$00
	.byte	$01
	.byte	$02
	.byte	$03
	.byte	$00
	.byte	$01
	.byte	$11
	.byte	$10
	.byte	$02
	.byte	$DB
	.byte	$DB
	.byte	$E9
	.byte	$EB
	.byte	$E3
	.byte	$AC
	.byte	$3D
	.byte	$02
	.byte	$03
	.byte	$3C
	.byte	$01
	.byte	$02
	.byte	$03
	.byte	$3A
	.byte	$3B
	.byte	$00
	.byte	$DA
	.byte	$DB
	.byte	$EF
	.byte	$EB
	.byte	$0F
	.byte	$07
	.byte	$0D
	.byte	$00
	.byte	$01
	.byte	$10
	.byte	$02
	.byte	$00
	.byte	$01
	.byte	$3C
	.byte	$01
	.byte	$02
	.byte	$BC
	.byte	$B0
	.byte	$BD
	.byte	$BC
	.byte	$3C
	.byte	$10
	.byte	$10
	.byte	$02
	.byte	$03
	.byte	$3C
	.byte	$1A
	.byte	$02
	.byte	$03
	.byte	$00
	.byte	$02
	.byte	$25
	.byte	$B9
	.byte	$0F
	.byte	$08
	.byte	$0C
	.byte	$00
	.byte	$12
	.byte	$3C
	.byte	$00
	.byte	$01
	.byte	$10
	.byte	$00
	.byte	$3C
	.byte	$01
	.byte	$02
	.byte	$25
	.byte	$20
	.byte	$A9
	.byte	$00
	.byte	$03
	.byte	$00
	.byte	$02
	.byte	$10
	.byte	$3C
	.byte	$02
	.byte	$03
	.byte	$00
	.byte	$02
	.byte	$10
	.byte	$02
	.byte	$25
	.byte	$20
	.byte	$20
	.byte	$0D
	.byte	$02
	.byte	$01
	.byte	$02
	.byte	$11
	.byte	$3C
	.byte	$10
	.byte	$00
	.byte	$10
	.byte	$02
	.byte	$25
	.byte	$21
	.byte	$21
	.byte	$20
	.byte	$20
	.byte	$20
	.byte	$01
	.byte	$10
	.byte	$01
	.byte	$3A
	.byte	$3B
	.byte	$10
	.byte	$01
	.byte	$02
	.byte	$25
	.byte	$21
	.byte	$20
	.byte	$20
	.byte	$20
	.byte	$20
	.byte	$20
	.byte	$20
_level1_0:
	.byte	$50
	.byte	$50
	.byte	$50
	.byte	$3D
	.byte	$3C
	.byte	$10
	.byte	$01
	.byte	$10
	.byte	$12
	.byte	$15
	.byte	$16
	.byte	$12
	.byte	$02
	.byte	$10
	.byte	$3A
	.byte	$3B
	.byte	$50
	.byte	$50
	.byte	$50
	.byte	$3D
	.byte	$44
	.byte	$18
	.byte	$17
	.byte	$51
	.byte	$CE
	.byte	$CA
	.byte	$CA
	.byte	$51
	.byte	$51
	.byte	$1B
	.byte	$3C
	.byte	$11
	.byte	$50
	.byte	$50
	.byte	$50
	.byte	$3D
	.byte	$50
	.byte	$9E
	.byte	$9B
	.byte	$CF
	.byte	$C9
	.byte	$C9
	.byte	$C9
	.byte	$CB
	.byte	$CB
	.byte	$51
	.byte	$00
	.byte	$01
	.byte	$50
	.byte	$50
	.byte	$50
	.byte	$3D
	.byte	$DD
	.byte	$DC
	.byte	$DE
	.byte	$43
	.byte	$CF
	.byte	$CF
	.byte	$C9
	.byte	$C9
	.byte	$C9
	.byte	$CB
	.byte	$02
	.byte	$03
	.byte	$50
	.byte	$50
	.byte	$50
	.byte	$50
	.byte	$50
	.byte	$50
	.byte	$50
	.byte	$50
	.byte	$9B
	.byte	$CF
	.byte	$C9
	.byte	$C9
	.byte	$C9
	.byte	$BF
	.byte	$3C
	.byte	$01
	.byte	$50
	.byte	$50
	.byte	$50
	.byte	$50
	.byte	$50
	.byte	$50
	.byte	$58
	.byte	$8E
	.byte	$8F
	.byte	$CE
	.byte	$C9
	.byte	$C9
	.byte	$0E
	.byte	$0C
	.byte	$10
	.byte	$03
	.byte	$50
	.byte	$50
	.byte	$58
	.byte	$58
	.byte	$8E
	.byte	$8F
	.byte	$CA
	.byte	$CE
	.byte	$CC
	.byte	$C9
	.byte	$C9
	.byte	$C9
	.byte	$CB
	.byte	$CA
	.byte	$3A
	.byte	$3B
	.byte	$1D
	.byte	$8F
	.byte	$51
	.byte	$51
	.byte	$CE
	.byte	$0E
	.byte	$04
	.byte	$04
	.byte	$07
	.byte	$0C
	.byte	$C9
	.byte	$C9
	.byte	$C9
	.byte	$C9
	.byte	$13
	.byte	$01
	.byte	$1C
	.byte	$51
	.byte	$CA
	.byte	$CC
	.byte	$C9
	.byte	$CB
	.byte	$CA
	.byte	$CA
	.byte	$CA
	.byte	$CC
	.byte	$C9
	.byte	$C9
	.byte	$C9
	.byte	$C9
	.byte	$10
	.byte	$03
	.byte	$01
	.byte	$CC
	.byte	$C9
	.byte	$C9
	.byte	$C9
	.byte	$C9
	.byte	$C9
	.byte	$C9
	.byte	$C9
	.byte	$C9
	.byte	$C9
	.byte	$C9
	.byte	$C9
	.byte	$BF
	.byte	$3C
	.byte	$01
	.byte	$01
	.byte	$0E
	.byte	$0D
	.byte	$C9
	.byte	$C9
	.byte	$C9
	.byte	$C9
	.byte	$C9
	.byte	$C9
	.byte	$C9
	.byte	$C9
	.byte	$C9
	.byte	$AE
	.byte	$51
	.byte	$10
	.byte	$03
	.byte	$1A
	.byte	$12
	.byte	$11
	.byte	$C9
	.byte	$C9
	.byte	$C9
	.byte	$C9
	.byte	$C9
	.byte	$C9
	.byte	$C9
	.byte	$C9
	.byte	$BF
	.byte	$51
	.byte	$51
	.byte	$00
	.byte	$01
	.byte	$44
	.byte	$18
	.byte	$1A
	.byte	$0F
	.byte	$05
	.byte	$07
	.byte	$08
	.byte	$05
	.byte	$07
	.byte	$07
	.byte	$3E
	.byte	$05
	.byte	$08
	.byte	$0D
	.byte	$02
	.byte	$03
	.byte	$50
	.byte	$9B
	.byte	$84
	.byte	$1A
	.byte	$02
	.byte	$3C
	.byte	$11
	.byte	$02
	.byte	$10
	.byte	$11
	.byte	$3D
	.byte	$03
	.byte	$3C
	.byte	$10
	.byte	$00
	.byte	$01
	.byte	$50
	.byte	$50
	.byte	$50
	.byte	$9B
	.byte	$44
	.byte	$1B
	.byte	$11
	.byte	$10
	.byte	$3A
	.byte	$3B
	.byte	$3D
	.byte	$10
	.byte	$11
	.byte	$3C
	.byte	$02
	.byte	$03
_level2_0:
	.byte	$50
	.byte	$50
	.byte	$50
	.byte	$50
	.byte	$50
	.byte	$50
	.byte	$50
	.byte	$50
	.byte	$50
	.byte	$50
	.byte	$50
	.byte	$50
	.byte	$50
	.byte	$50
	.byte	$50
	.byte	$50
	.byte	$50
	.byte	$DD
	.byte	$DC
	.byte	$DC
	.byte	$DC
	.byte	$DE
	.byte	$50
	.byte	$50
	.byte	$50
	.byte	$DD
	.byte	$DC
	.byte	$DC
	.byte	$DE
	.byte	$50
	.byte	$50
	.byte	$50
	.byte	$50
	.byte	$50
	.byte	$50
	.byte	$50
	.byte	$50
	.byte	$50
	.byte	$50
	.byte	$50
	.byte	$50
	.byte	$50
	.byte	$50
	.byte	$50
	.byte	$50
	.byte	$50
	.byte	$50
	.byte	$50
	.byte	$50
	.byte	$50
	.byte	$50
	.byte	$50
	.byte	$50
	.byte	$50
	.byte	$DD
	.byte	$DC
	.byte	$DC
	.byte	$DE
	.byte	$50
	.byte	$50
	.byte	$50
	.byte	$50
	.byte	$50
	.byte	$50
	.byte	$DC
	.byte	$DC
	.byte	$DE
	.byte	$50
	.byte	$50
	.byte	$50
	.byte	$50
	.byte	$50
	.byte	$50
	.byte	$50
	.byte	$50
	.byte	$50
	.byte	$50
	.byte	$DD
	.byte	$DC
	.byte	$DC
	.byte	$50
	.byte	$50
	.byte	$50
	.byte	$50
	.byte	$50
	.byte	$50
	.byte	$50
	.byte	$50
	.byte	$50
	.byte	$50
	.byte	$50
	.byte	$50
	.byte	$50
	.byte	$50
	.byte	$50
	.byte	$50
	.byte	$50
	.byte	$50
	.byte	$50
	.byte	$50
	.byte	$50
	.byte	$50
	.byte	$50
	.byte	$50
	.byte	$50
	.byte	$50
	.byte	$50
	.byte	$50
	.byte	$50
	.byte	$50
	.byte	$50
	.byte	$50
	.byte	$50
	.byte	$50
	.byte	$50
	.byte	$50
	.byte	$50
	.byte	$50
	.byte	$50
	.byte	$50
	.byte	$50
	.byte	$50
	.byte	$50
	.byte	$50
	.byte	$50
	.byte	$50
	.byte	$50
	.byte	$50
	.byte	$DE
	.byte	$50
	.byte	$50
	.byte	$50
	.byte	$50
	.byte	$50
	.byte	$50
	.byte	$50
	.byte	$50
	.byte	$50
	.byte	$50
	.byte	$50
	.byte	$50
	.byte	$50
	.byte	$50
	.byte	$50
	.byte	$50
	.byte	$50
	.byte	$50
	.byte	$50
	.byte	$50
	.byte	$50
	.byte	$50
	.byte	$50
	.byte	$AC
	.byte	$50
	.byte	$50
	.byte	$50
	.byte	$50
	.byte	$50
	.byte	$50
	.byte	$50
	.byte	$50
	.byte	$50
	.byte	$50
	.byte	$50
	.byte	$50
	.byte	$50
	.byte	$50
	.byte	$0E
	.byte	$0B
	.byte	$06
	.byte	$07
	.byte	$08
	.byte	$0D
	.byte	$50
	.byte	$50
	.byte	$50
	.byte	$50
	.byte	$50
	.byte	$AC
	.byte	$50
	.byte	$50
	.byte	$58
	.byte	$59
	.byte	$3A
	.byte	$3B
	.byte	$03
	.byte	$10
	.byte	$3C
	.byte	$10
	.byte	$AD
	.byte	$8E
	.byte	$8F
	.byte	$50
	.byte	$50
	.byte	$0E
	.byte	$3E
	.byte	$04
	.byte	$04
	.byte	$0C
	.byte	$10
	.byte	$3C
	.byte	$10
	.byte	$11
	.byte	$10
	.byte	$10
	.byte	$0E
	.byte	$09
	.byte	$0C
	.byte	$50
	.byte	$50
	.byte	$43
	.byte	$3D
	.byte	$3B
	.byte	$01
	.byte	$3C
	.byte	$11
	.byte	$10
	.byte	$10
	.byte	$10
	.byte	$03
	.byte	$01
	.byte	$3C
	.byte	$10
	.byte	$03
	.byte	$50
	.byte	$50
	.byte	$50
	.byte	$3D
	.byte	$3C
	.byte	$03
	.byte	$3A
	.byte	$3B
	.byte	$10
	.byte	$10
	.byte	$3C
	.byte	$3C
	.byte	$03
	.byte	$10
	.byte	$00
	.byte	$01
_level2_1:
	.byte	$DD
	.byte	$DC
	.byte	$DC
	.byte	$DE
	.byte	$50
	.byte	$50
	.byte	$50
	.byte	$50
	.byte	$50
	.byte	$50
	.byte	$50
	.byte	$DD
	.byte	$DC
	.byte	$DC
	.byte	$DE
	.byte	$50
	.byte	$50
	.byte	$50
	.byte	$50
	.byte	$50
	.byte	$50
	.byte	$50
	.byte	$50
	.byte	$50
	.byte	$50
	.byte	$50
	.byte	$50
	.byte	$50
	.byte	$50
	.byte	$50
	.byte	$50
	.byte	$50
	.byte	$50
	.byte	$50
	.byte	$50
	.byte	$50
	.byte	$50
	.byte	$50
	.byte	$DD
	.byte	$DC
	.byte	$DC
	.byte	$DC
	.byte	$DE
	.byte	$50
	.byte	$50
	.byte	$50
	.byte	$50
	.byte	$50
	.byte	$50
	.byte	$50
	.byte	$50
	.byte	$50
	.byte	$50
	.byte	$50
	.byte	$50
	.byte	$50
	.byte	$50
	.byte	$50
	.byte	$50
	.byte	$50
	.byte	$50
	.byte	$50
	.byte	$50
	.byte	$50
	.byte	$DE
	.byte	$50
	.byte	$50
	.byte	$50
	.byte	$50
	.byte	$50
	.byte	$50
	.byte	$50
	.byte	$50
	.byte	$50
	.byte	$50
	.byte	$50
	.byte	$50
	.byte	$50
	.byte	$50
	.byte	$50
	.byte	$50
	.byte	$50
	.byte	$50
	.byte	$50
	.byte	$50
	.byte	$50
	.byte	$50
	.byte	$50
	.byte	$50
	.byte	$50
	.byte	$50
	.byte	$50
	.byte	$DD
	.byte	$DC
	.byte	$DE
	.byte	$50
	.byte	$50
	.byte	$DD
	.byte	$DC
	.byte	$DC
	.byte	$DC
	.byte	$DC
	.byte	$DE
	.byte	$50
	.byte	$50
	.byte	$50
	.byte	$50
	.byte	$50
	.byte	$50
	.byte	$50
	.byte	$50
	.byte	$50
	.byte	$50
	.byte	$50
	.byte	$50
	.byte	$50
	.byte	$50
	.byte	$50
	.byte	$50
	.byte	$50
	.byte	$50
	.byte	$50
	.byte	$50
	.byte	$50
	.byte	$50
	.byte	$50
	.byte	$50
	.byte	$50
	.byte	$50
	.byte	$50
	.byte	$50
	.byte	$50
	.byte	$50
	.byte	$50
	.byte	$50
	.byte	$50
	.byte	$50
	.byte	$50
	.byte	$50
	.byte	$50
	.byte	$50
	.byte	$50
	.byte	$50
	.byte	$50
	.byte	$50
	.byte	$50
	.byte	$50
	.byte	$50
	.byte	$50
	.byte	$50
	.byte	$50
	.byte	$50
	.byte	$50
	.byte	$AC
	.byte	$50
	.byte	$50
	.byte	$50
	.byte	$50
	.byte	$50
	.byte	$58
	.byte	$8E
	.byte	$E2
	.byte	$50
	.byte	$50
	.byte	$AC
	.byte	$50
	.byte	$58
	.byte	$58
	.byte	$8E
	.byte	$0E
	.byte	$0D
	.byte	$E2
	.byte	$58
	.byte	$0F
	.byte	$0C
	.byte	$51
	.byte	$CE
	.byte	$CD
	.byte	$0E
	.byte	$0B
	.byte	$05
	.byte	$0D
	.byte	$CE
	.byte	$CD
	.byte	$51
	.byte	$11
	.byte	$10
	.byte	$CD
	.byte	$51
	.byte	$3C
	.byte	$12
	.byte	$CB
	.byte	$C9
	.byte	$C9
	.byte	$3A
	.byte	$3B
	.byte	$14
	.byte	$CC
	.byte	$C9
	.byte	$C9
	.byte	$CC
	.byte	$CB
	.byte	$CC
	.byte	$C9
	.byte	$CC
	.byte	$CB
	.byte	$CC
	.byte	$C9
	.byte	$AF
	.byte	$C9
	.byte	$CB
	.byte	$CA
	.byte	$CC
	.byte	$C9
	.byte	$C9
	.byte	$C9
	.byte	$C9
	.byte	$C9
	.byte	$C9
	.byte	$C9
	.byte	$C9
	.byte	$C9
	.byte	$C9
	.byte	$BF
	.byte	$3F
	.byte	$3F
	.byte	$3F
	.byte	$3F
	.byte	$3F
	.byte	$3F
	.byte	$3F
	.byte	$3F
	.byte	$3F
	.byte	$3F
	.byte	$3F
	.byte	$3F
	.byte	$3F
	.byte	$3F
	.byte	$3F
	.byte	$3F
_level2_2:
	.byte	$50
	.byte	$50
	.byte	$50
	.byte	$50
	.byte	$50
	.byte	$50
	.byte	$50
	.byte	$50
	.byte	$50
	.byte	$50
	.byte	$50
	.byte	$50
	.byte	$50
	.byte	$50
	.byte	$DD
	.byte	$DC
	.byte	$50
	.byte	$50
	.byte	$50
	.byte	$50
	.byte	$50
	.byte	$50
	.byte	$DD
	.byte	$DC
	.byte	$DE
	.byte	$50
	.byte	$50
	.byte	$50
	.byte	$50
	.byte	$50
	.byte	$50
	.byte	$50
	.byte	$50
	.byte	$50
	.byte	$50
	.byte	$50
	.byte	$50
	.byte	$50
	.byte	$50
	.byte	$50
	.byte	$50
	.byte	$50
	.byte	$50
	.byte	$50
	.byte	$50
	.byte	$50
	.byte	$50
	.byte	$50
	.byte	$50
	.byte	$50
	.byte	$50
	.byte	$50
	.byte	$50
	.byte	$50
	.byte	$50
	.byte	$50
	.byte	$50
	.byte	$50
	.byte	$50
	.byte	$DD
	.byte	$DC
	.byte	$DC
	.byte	$DC
	.byte	$DE
	.byte	$50
	.byte	$50
	.byte	$DD
	.byte	$DC
	.byte	$DC
	.byte	$DE
	.byte	$50
	.byte	$50
	.byte	$50
	.byte	$50
	.byte	$50
	.byte	$50
	.byte	$50
	.byte	$50
	.byte	$50
	.byte	$50
	.byte	$50
	.byte	$50
	.byte	$50
	.byte	$50
	.byte	$50
	.byte	$50
	.byte	$95
	.byte	$99
	.byte	$7B
	.byte	$50
	.byte	$50
	.byte	$50
	.byte	$50
	.byte	$50
	.byte	$50
	.byte	$50
	.byte	$50
	.byte	$50
	.byte	$50
	.byte	$50
	.byte	$AC
	.byte	$50
	.byte	$7A
	.byte	$8D
	.byte	$7D
	.byte	$50
	.byte	$50
	.byte	$50
	.byte	$50
	.byte	$50
	.byte	$50
	.byte	$50
	.byte	$50
	.byte	$50
	.byte	$50
	.byte	$0E
	.byte	$06
	.byte	$07
	.byte	$08
	.byte	$09
	.byte	$0D
	.byte	$50
	.byte	$50
	.byte	$50
	.byte	$50
	.byte	$50
	.byte	$50
	.byte	$50
	.byte	$50
	.byte	$50
	.byte	$8E
	.byte	$10
	.byte	$02
	.byte	$00
	.byte	$01
	.byte	$3C
	.byte	$11
	.byte	$50
	.byte	$50
	.byte	$50
	.byte	$50
	.byte	$50
	.byte	$50
	.byte	$50
	.byte	$8E
	.byte	$0E
	.byte	$0C
	.byte	$10
	.byte	$3C
	.byte	$02
	.byte	$01
	.byte	$00
	.byte	$01
	.byte	$E2
	.byte	$50
	.byte	$50
	.byte	$50
	.byte	$AC
	.byte	$50
	.byte	$50
	.byte	$51
	.byte	$CE
	.byte	$CD
	.byte	$1A
	.byte	$10
	.byte	$10
	.byte	$03
	.byte	$00
	.byte	$10
	.byte	$C8
	.byte	$E3
	.byte	$8E
	.byte	$0E
	.byte	$05
	.byte	$08
	.byte	$0C
	.byte	$C9
	.byte	$C9
	.byte	$C9
	.byte	$CD
	.byte	$03
	.byte	$3A
	.byte	$3B
	.byte	$02
	.byte	$3C
	.byte	$CB
	.byte	$CD
	.byte	$C8
	.byte	$11
	.byte	$02
	.byte	$10
	.byte	$12
	.byte	$C9
	.byte	$C9
	.byte	$C9
	.byte	$C9
	.byte	$01
	.byte	$10
	.byte	$3C
	.byte	$00
	.byte	$01
	.byte	$C9
	.byte	$C9
	.byte	$C9
	.byte	$CB
	.byte	$CA
	.byte	$CA
	.byte	$CA
	.byte	$CF
	.byte	$0E
	.byte	$05
	.byte	$0C
	.byte	$03
	.byte	$00
	.byte	$01
	.byte	$02
	.byte	$03
	.byte	$CF
	.byte	$C9
	.byte	$C9
	.byte	$C9
	.byte	$C9
	.byte	$C9
	.byte	$C9
	.byte	$3F
	.byte	$10
	.byte	$03
	.byte	$00
	.byte	$01
	.byte	$02
	.byte	$3A
	.byte	$3B
	.byte	$01
	.byte	$3F
	.byte	$3F
	.byte	$3F
	.byte	$3F
	.byte	$3F
	.byte	$3F
	.byte	$3F
_level2_3:
	.byte	$DC
	.byte	$DE
	.byte	$50
	.byte	$50
	.byte	$50
	.byte	$50
	.byte	$50
	.byte	$50
	.byte	$50
	.byte	$50
	.byte	$50
	.byte	$50
	.byte	$DD
	.byte	$DC
	.byte	$DC
	.byte	$DC
	.byte	$50
	.byte	$50
	.byte	$50
	.byte	$50
	.byte	$50
	.byte	$50
	.byte	$50
	.byte	$50
	.byte	$50
	.byte	$50
	.byte	$50
	.byte	$50
	.byte	$50
	.byte	$50
	.byte	$50
	.byte	$50
	.byte	$50
	.byte	$50
	.byte	$50
	.byte	$DD
	.byte	$DC
	.byte	$DC
	.byte	$DC
	.byte	$DE
	.byte	$50
	.byte	$50
	.byte	$50
	.byte	$50
	.byte	$50
	.byte	$50
	.byte	$50
	.byte	$50
	.byte	$50
	.byte	$50
	.byte	$50
	.byte	$50
	.byte	$50
	.byte	$50
	.byte	$50
	.byte	$50
	.byte	$50
	.byte	$50
	.byte	$50
	.byte	$50
	.byte	$50
	.byte	$50
	.byte	$DD
	.byte	$DC
	.byte	$50
	.byte	$50
	.byte	$50
	.byte	$50
	.byte	$50
	.byte	$50
	.byte	$50
	.byte	$50
	.byte	$50
	.byte	$50
	.byte	$50
	.byte	$50
	.byte	$50
	.byte	$50
	.byte	$50
	.byte	$50
	.byte	$50
	.byte	$50
	.byte	$50
	.byte	$50
	.byte	$50
	.byte	$50
	.byte	$50
	.byte	$DD
	.byte	$DC
	.byte	$DC
	.byte	$DC
	.byte	$DE
	.byte	$50
	.byte	$50
	.byte	$50
	.byte	$50
	.byte	$50
	.byte	$DD
	.byte	$DC
	.byte	$DE
	.byte	$50
	.byte	$50
	.byte	$50
	.byte	$50
	.byte	$50
	.byte	$50
	.byte	$50
	.byte	$50
	.byte	$50
	.byte	$50
	.byte	$50
	.byte	$50
	.byte	$50
	.byte	$50
	.byte	$50
	.byte	$50
	.byte	$50
	.byte	$50
	.byte	$50
	.byte	$50
	.byte	$50
	.byte	$50
	.byte	$50
	.byte	$50
	.byte	$50
	.byte	$50
	.byte	$50
	.byte	$50
	.byte	$50
	.byte	$50
	.byte	$50
	.byte	$50
	.byte	$50
	.byte	$50
	.byte	$50
	.byte	$50
	.byte	$50
	.byte	$50
	.byte	$50
	.byte	$50
	.byte	$50
	.byte	$50
	.byte	$50
	.byte	$50
	.byte	$50
	.byte	$50
	.byte	$50
	.byte	$50
	.byte	$50
	.byte	$50
	.byte	$50
	.byte	$50
	.byte	$50
	.byte	$50
	.byte	$50
	.byte	$DD
	.byte	$DC
	.byte	$DC
	.byte	$DE
	.byte	$50
	.byte	$50
	.byte	$50
	.byte	$50
	.byte	$50
	.byte	$50
	.byte	$50
	.byte	$50
	.byte	$50
	.byte	$50
	.byte	$50
	.byte	$50
	.byte	$50
	.byte	$50
	.byte	$50
	.byte	$50
	.byte	$50
	.byte	$E1
	.byte	$E2
	.byte	$58
	.byte	$50
	.byte	$50
	.byte	$50
	.byte	$50
	.byte	$50
	.byte	$50
	.byte	$50
	.byte	$50
	.byte	$50
	.byte	$50
	.byte	$50
	.byte	$50
	.byte	$50
	.byte	$CD
	.byte	$C8
	.byte	$C8
	.byte	$E4
	.byte	$E2
	.byte	$AC
	.byte	$AD
	.byte	$50
	.byte	$50
	.byte	$50
	.byte	$AC
	.byte	$50
	.byte	$50
	.byte	$50
	.byte	$50
	.byte	$50
	.byte	$C9
	.byte	$CB
	.byte	$CD
	.byte	$0F
	.byte	$06
	.byte	$07
	.byte	$06
	.byte	$08
	.byte	$07
	.byte	$05
	.byte	$08
	.byte	$3E
	.byte	$50
	.byte	$50
	.byte	$50
	.byte	$50
	.byte	$3F
	.byte	$3F
	.byte	$3F
	.byte	$10
	.byte	$03
	.byte	$10
	.byte	$03
	.byte	$3A
	.byte	$3B
	.byte	$02
	.byte	$10
	.byte	$3D
	.byte	$50
	.byte	$50
	.byte	$50
	.byte	$50
_level3_0:
	.byte	$10
	.byte	$3C
	.byte	$01
	.byte	$00
	.byte	$01
	.byte	$3C
	.byte	$10
	.byte	$00
	.byte	$01
	.byte	$00
	.byte	$01
	.byte	$3D
	.byte	$E3
	.byte	$50
	.byte	$50
	.byte	$50
	.byte	$3A
	.byte	$3B
	.byte	$03
	.byte	$02
	.byte	$03
	.byte	$3A
	.byte	$3B
	.byte	$02
	.byte	$03
	.byte	$02
	.byte	$03
	.byte	$3D
	.byte	$C8
	.byte	$E4
	.byte	$E2
	.byte	$50
	.byte	$00
	.byte	$12
	.byte	$00
	.byte	$12
	.byte	$3C
	.byte	$12
	.byte	$11
	.byte	$01
	.byte	$10
	.byte	$00
	.byte	$01
	.byte	$3D
	.byte	$CB
	.byte	$C8
	.byte	$C8
	.byte	$E4
	.byte	$00
	.byte	$01
	.byte	$13
	.byte	$16
	.byte	$15
	.byte	$CA
	.byte	$CA
	.byte	$51
	.byte	$1B
	.byte	$02
	.byte	$14
	.byte	$3D
	.byte	$C9
	.byte	$CC
	.byte	$0E
	.byte	$0D
	.byte	$02
	.byte	$03
	.byte	$15
	.byte	$CC
	.byte	$C9
	.byte	$C9
	.byte	$C9
	.byte	$C9
	.byte	$CB
	.byte	$CD
	.byte	$CE
	.byte	$C9
	.byte	$C9
	.byte	$C9
	.byte	$3A
	.byte	$3B
	.byte	$00
	.byte	$11
	.byte	$CC
	.byte	$C9
	.byte	$BF
	.byte	$C3
	.byte	$AF
	.byte	$C9
	.byte	$C9
	.byte	$C9
	.byte	$C9
	.byte	$C9
	.byte	$C9
	.byte	$C9
	.byte	$10
	.byte	$12
	.byte	$02
	.byte	$10
	.byte	$C9
	.byte	$C9
	.byte	$C1
	.byte	$C0
	.byte	$C2
	.byte	$C9
	.byte	$C9
	.byte	$C9
	.byte	$C9
	.byte	$C9
	.byte	$C9
	.byte	$C9
	.byte	$00
	.byte	$01
	.byte	$00
	.byte	$01
	.byte	$C9
	.byte	$C9
	.byte	$CB
	.byte	$C4
	.byte	$CC
	.byte	$C9
	.byte	$C9
	.byte	$C9
	.byte	$BF
	.byte	$C9
	.byte	$0E
	.byte	$0C
	.byte	$02
	.byte	$03
	.byte	$02
	.byte	$03
	.byte	$C9
	.byte	$C9
	.byte	$C9
	.byte	$C9
	.byte	$C9
	.byte	$C9
	.byte	$C9
	.byte	$BF
	.byte	$51
	.byte	$51
	.byte	$3A
	.byte	$3B
	.byte	$01
	.byte	$10
	.byte	$3C
	.byte	$01
	.byte	$C9
	.byte	$3E
	.byte	$0E
	.byte	$06
	.byte	$06
	.byte	$07
	.byte	$08
	.byte	$09
	.byte	$0A
	.byte	$0D
	.byte	$10
	.byte	$01
	.byte	$02
	.byte	$01
	.byte	$10
	.byte	$03
	.byte	$C9
	.byte	$3D
	.byte	$10
	.byte	$03
	.byte	$02
	.byte	$3C
	.byte	$01
	.byte	$3C
	.byte	$10
	.byte	$3A
	.byte	$3B
	.byte	$03
	.byte	$00
	.byte	$03
	.byte	$01
	.byte	$14
	.byte	$C9
	.byte	$3D
	.byte	$CD
	.byte	$CA
	.byte	$19
	.byte	$16
	.byte	$17
	.byte	$11
	.byte	$10
	.byte	$12
	.byte	$11
	.byte	$01
	.byte	$17
	.byte	$19
	.byte	$03
	.byte	$15
	.byte	$C9
	.byte	$3D
	.byte	$C9
	.byte	$C9
	.byte	$CB
	.byte	$C9
	.byte	$CD
	.byte	$51
	.byte	$1A
	.byte	$14
	.byte	$51
	.byte	$51
	.byte	$CC
	.byte	$CB
	.byte	$10
	.byte	$CC
	.byte	$C9
	.byte	$3D
	.byte	$C9
	.byte	$C9
	.byte	$C9
	.byte	$C9
	.byte	$C9
	.byte	$CB
	.byte	$CD
	.byte	$CE
	.byte	$C9
	.byte	$C9
	.byte	$C9
	.byte	$C9
	.byte	$3C
	.byte	$C9
	.byte	$C9
	.byte	$3D
	.byte	$C9
	.byte	$C9
	.byte	$C9
	.byte	$C9
	.byte	$C9
	.byte	$C9
	.byte	$C9
	.byte	$C9
	.byte	$C9
	.byte	$C9
	.byte	$C9
	.byte	$C9
_level4_0:
	.byte	$3C
	.byte	$C9
	.byte	$C9
	.byte	$3D
	.byte	$C9
	.byte	$C9
	.byte	$C9
	.byte	$C9
	.byte	$CB
	.byte	$51
	.byte	$19
	.byte	$10
	.byte	$00
	.byte	$01
	.byte	$10
	.byte	$12
	.byte	$10
	.byte	$C9
	.byte	$C9
	.byte	$3D
	.byte	$C9
	.byte	$C9
	.byte	$C9
	.byte	$C9
	.byte	$C9
	.byte	$CB
	.byte	$CD
	.byte	$19
	.byte	$02
	.byte	$03
	.byte	$11
	.byte	$10
	.byte	$01
	.byte	$AF
	.byte	$AE
	.byte	$3D
	.byte	$C9
	.byte	$C9
	.byte	$C9
	.byte	$C9
	.byte	$C9
	.byte	$C9
	.byte	$C9
	.byte	$CD
	.byte	$16
	.byte	$10
	.byte	$10
	.byte	$3A
	.byte	$02
	.byte	$0F
	.byte	$0D
	.byte	$3D
	.byte	$C9
	.byte	$C9
	.byte	$C9
	.byte	$C9
	.byte	$C9
	.byte	$C9
	.byte	$C9
	.byte	$C9
	.byte	$CD
	.byte	$19
	.byte	$18
	.byte	$10
	.byte	$12
	.byte	$10
	.byte	$3C
	.byte	$3D
	.byte	$AF
	.byte	$C9
	.byte	$C9
	.byte	$C9
	.byte	$C9
	.byte	$C9
	.byte	$C9
	.byte	$C9
	.byte	$C9
	.byte	$CB
	.byte	$51
	.byte	$1A
	.byte	$00
	.byte	$01
	.byte	$11
	.byte	$3D
	.byte	$51
	.byte	$AE
	.byte	$AF
	.byte	$C9
	.byte	$C9
	.byte	$C9
	.byte	$C9
	.byte	$C9
	.byte	$C9
	.byte	$C9
	.byte	$CB
	.byte	$CD
	.byte	$02
	.byte	$03
	.byte	$00
	.byte	$0E
	.byte	$0B
	.byte	$06
	.byte	$05
	.byte	$0D
	.byte	$C9
	.byte	$C9
	.byte	$C9
	.byte	$C9
	.byte	$C9
	.byte	$C9
	.byte	$C9
	.byte	$C9
	.byte	$00
	.byte	$01
	.byte	$02
	.byte	$03
	.byte	$10
	.byte	$02
	.byte	$02
	.byte	$10
	.byte	$C9
	.byte	$C9
	.byte	$BF
	.byte	$51
	.byte	$AE
	.byte	$AF
	.byte	$C9
	.byte	$C9
	.byte	$02
	.byte	$03
	.byte	$00
	.byte	$01
	.byte	$00
	.byte	$10
	.byte	$10
	.byte	$11
	.byte	$C9
	.byte	$BF
	.byte	$51
	.byte	$51
	.byte	$51
	.byte	$51
	.byte	$AF
	.byte	$C9
	.byte	$00
	.byte	$01
	.byte	$02
	.byte	$03
	.byte	$02
	.byte	$00
	.byte	$01
	.byte	$01
	.byte	$0E
	.byte	$07
	.byte	$08
	.byte	$09
	.byte	$0A
	.byte	$0B
	.byte	$0C
	.byte	$C9
	.byte	$26
	.byte	$03
	.byte	$00
	.byte	$01
	.byte	$10
	.byte	$02
	.byte	$03
	.byte	$02
	.byte	$3A
	.byte	$3B
	.byte	$01
	.byte	$00
	.byte	$12
	.byte	$01
	.byte	$11
	.byte	$C9
	.byte	$20
	.byte	$26
	.byte	$02
	.byte	$03
	.byte	$12
	.byte	$10
	.byte	$00
	.byte	$3A
	.byte	$3B
	.byte	$10
	.byte	$03
	.byte	$02
	.byte	$10
	.byte	$03
	.byte	$3C
	.byte	$C9
	.byte	$20
	.byte	$20
	.byte	$21
	.byte	$26
	.byte	$10
	.byte	$11
	.byte	$10
	.byte	$12
	.byte	$11
	.byte	$10
	.byte	$11
	.byte	$01
	.byte	$10
	.byte	$3C
	.byte	$01
	.byte	$CF
	.byte	$20
	.byte	$20
	.byte	$20
	.byte	$20
	.byte	$21
	.byte	$26
	.byte	$11
	.byte	$10
	.byte	$00
	.byte	$01
	.byte	$10
	.byte	$10
	.byte	$00
	.byte	$01
	.byte	$10
	.byte	$0E
	.byte	$20
	.byte	$20
	.byte	$20
	.byte	$20
	.byte	$20
	.byte	$20
	.byte	$21
	.byte	$21
	.byte	$26
	.byte	$3A
	.byte	$3B
	.byte	$01
	.byte	$02
	.byte	$03
	.byte	$00
	.byte	$01
_level4_1:
	.byte	$10
	.byte	$11
	.byte	$1E
	.byte	$50
	.byte	$50
	.byte	$50
	.byte	$50
	.byte	$50
	.byte	$50
	.byte	$50
	.byte	$50
	.byte	$50
	.byte	$50
	.byte	$50
	.byte	$50
	.byte	$50
	.byte	$3C
	.byte	$00
	.byte	$01
	.byte	$1F
	.byte	$50
	.byte	$50
	.byte	$50
	.byte	$50
	.byte	$50
	.byte	$50
	.byte	$50
	.byte	$50
	.byte	$50
	.byte	$50
	.byte	$50
	.byte	$50
	.byte	$3B
	.byte	$02
	.byte	$03
	.byte	$1E
	.byte	$50
	.byte	$50
	.byte	$DD
	.byte	$DC
	.byte	$DC
	.byte	$DE
	.byte	$50
	.byte	$50
	.byte	$50
	.byte	$50
	.byte	$50
	.byte	$50
	.byte	$00
	.byte	$01
	.byte	$00
	.byte	$01
	.byte	$1F
	.byte	$50
	.byte	$50
	.byte	$50
	.byte	$50
	.byte	$50
	.byte	$50
	.byte	$50
	.byte	$50
	.byte	$50
	.byte	$50
	.byte	$50
	.byte	$02
	.byte	$03
	.byte	$02
	.byte	$03
	.byte	$1E
	.byte	$1F
	.byte	$50
	.byte	$50
	.byte	$50
	.byte	$50
	.byte	$50
	.byte	$DD
	.byte	$DC
	.byte	$DE
	.byte	$50
	.byte	$50
	.byte	$1A
	.byte	$10
	.byte	$10
	.byte	$00
	.byte	$01
	.byte	$1E
	.byte	$50
	.byte	$50
	.byte	$50
	.byte	$50
	.byte	$50
	.byte	$50
	.byte	$C5
	.byte	$D1
	.byte	$D3
	.byte	$E1
	.byte	$CD
	.byte	$51
	.byte	$1A
	.byte	$02
	.byte	$03
	.byte	$11
	.byte	$50
	.byte	$50
	.byte	$50
	.byte	$50
	.byte	$50
	.byte	$D0
	.byte	$D5
	.byte	$D4
	.byte	$D7
	.byte	$ED
	.byte	$C9
	.byte	$CB
	.byte	$51
	.byte	$1A
	.byte	$11
	.byte	$14
	.byte	$E3
	.byte	$50
	.byte	$50
	.byte	$D1
	.byte	$D2
	.byte	$D5
	.byte	$D6
	.byte	$D4
	.byte	$D9
	.byte	$DB
	.byte	$C9
	.byte	$C9
	.byte	$C9
	.byte	$CD
	.byte	$CA
	.byte	$CD
	.byte	$C8
	.byte	$E4
	.byte	$E5
	.byte	$D4
	.byte	$D4
	.byte	$D6
	.byte	$D6
	.byte	$D6
	.byte	$D4
	.byte	$DA
	.byte	$C9
	.byte	$C9
	.byte	$C9
	.byte	$C9
	.byte	$CB
	.byte	$CD
	.byte	$CF
	.byte	$C8
	.byte	$C8
	.byte	$E7
	.byte	$DF
	.byte	$D6
	.byte	$D6
	.byte	$D6
	.byte	$D6
	.byte	$D8
	.byte	$C9
	.byte	$C9
	.byte	$C9
	.byte	$C9
	.byte	$C9
	.byte	$C9
	.byte	$CA
	.byte	$CD
	.byte	$AE
	.byte	$C8
	.byte	$EB
	.byte	$A4
	.byte	$B3
	.byte	$BC
	.byte	$B0
	.byte	$BC
	.byte	$C9
	.byte	$C9
	.byte	$C9
	.byte	$C9
	.byte	$C9
	.byte	$BF
	.byte	$C9
	.byte	$C9
	.byte	$CB
	.byte	$51
	.byte	$CD
	.byte	$C8
	.byte	$A4
	.byte	$A1
	.byte	$BE
	.byte	$7E
	.byte	$C9
	.byte	$C9
	.byte	$C9
	.byte	$BF
	.byte	$51
	.byte	$51
	.byte	$AF
	.byte	$C9
	.byte	$C9
	.byte	$CB
	.byte	$CD
	.byte	$CD
	.byte	$A3
	.byte	$A2
	.byte	$A8
	.byte	$5C
	.byte	$05
	.byte	$04
	.byte	$0A
	.byte	$0B
	.byte	$07
	.byte	$05
	.byte	$04
	.byte	$05
	.byte	$07
	.byte	$09
	.byte	$05
	.byte	$0D
	.byte	$35
	.byte	$33
	.byte	$33
	.byte	$34
	.byte	$02
	.byte	$3C
	.byte	$02
	.byte	$01
	.byte	$10
	.byte	$02
	.byte	$00
	.byte	$02
	.byte	$10
	.byte	$00
	.byte	$12
	.byte	$37
	.byte	$37
	.byte	$37
	.byte	$37
	.byte	$37
_level4_2:
	.byte	$50
	.byte	$50
	.byte	$50
	.byte	$50
	.byte	$50
	.byte	$50
	.byte	$50
	.byte	$50
	.byte	$50
	.byte	$50
	.byte	$50
	.byte	$50
	.byte	$50
	.byte	$50
	.byte	$50
	.byte	$86
	.byte	$DD
	.byte	$DC
	.byte	$DE
	.byte	$50
	.byte	$50
	.byte	$50
	.byte	$50
	.byte	$50
	.byte	$50
	.byte	$50
	.byte	$50
	.byte	$50
	.byte	$50
	.byte	$50
	.byte	$86
	.byte	$93
	.byte	$50
	.byte	$50
	.byte	$50
	.byte	$50
	.byte	$50
	.byte	$50
	.byte	$50
	.byte	$50
	.byte	$50
	.byte	$50
	.byte	$DD
	.byte	$DC
	.byte	$DC
	.byte	$DE
	.byte	$91
	.byte	$94
	.byte	$50
	.byte	$50
	.byte	$50
	.byte	$50
	.byte	$50
	.byte	$DD
	.byte	$DC
	.byte	$DC
	.byte	$DC
	.byte	$DE
	.byte	$50
	.byte	$50
	.byte	$50
	.byte	$50
	.byte	$91
	.byte	$89
	.byte	$50
	.byte	$50
	.byte	$50
	.byte	$50
	.byte	$50
	.byte	$50
	.byte	$50
	.byte	$50
	.byte	$50
	.byte	$50
	.byte	$50
	.byte	$50
	.byte	$50
	.byte	$50
	.byte	$91
	.byte	$92
	.byte	$E2
	.byte	$50
	.byte	$50
	.byte	$DD
	.byte	$DC
	.byte	$DE
	.byte	$50
	.byte	$50
	.byte	$50
	.byte	$50
	.byte	$50
	.byte	$50
	.byte	$50
	.byte	$50
	.byte	$2C
	.byte	$93
	.byte	$EB
	.byte	$E3
	.byte	$50
	.byte	$50
	.byte	$50
	.byte	$50
	.byte	$50
	.byte	$50
	.byte	$50
	.byte	$50
	.byte	$50
	.byte	$50
	.byte	$50
	.byte	$50
	.byte	$49
	.byte	$29
	.byte	$EF
	.byte	$EB
	.byte	$E3
	.byte	$50
	.byte	$50
	.byte	$D1
	.byte	$D3
	.byte	$E3
	.byte	$50
	.byte	$50
	.byte	$50
	.byte	$50
	.byte	$50
	.byte	$50
	.byte	$50
	.byte	$49
	.byte	$DB
	.byte	$ED
	.byte	$EB
	.byte	$E4
	.byte	$E5
	.byte	$D5
	.byte	$D9
	.byte	$EF
	.byte	$E3
	.byte	$D1
	.byte	$D3
	.byte	$E4
	.byte	$E2
	.byte	$50
	.byte	$50
	.byte	$66
	.byte	$DB
	.byte	$DB
	.byte	$EF
	.byte	$E9
	.byte	$EB
	.byte	$E7
	.byte	$DF
	.byte	$D8
	.byte	$EC
	.byte	$E7
	.byte	$DF
	.byte	$EF
	.byte	$EE
	.byte	$E3
	.byte	$50
	.byte	$58
	.byte	$BD
	.byte	$B8
	.byte	$B7
	.byte	$BD
	.byte	$BC
	.byte	$BC
	.byte	$7E
	.byte	$78
	.byte	$5F
	.byte	$BD
	.byte	$B0
	.byte	$BC
	.byte	$BC
	.byte	$A8
	.byte	$4D
	.byte	$63
	.byte	$7F
	.byte	$5F
	.byte	$B7
	.byte	$B0
	.byte	$B7
	.byte	$B0
	.byte	$5C
	.byte	$8C
	.byte	$5E
	.byte	$B7
	.byte	$B6
	.byte	$B6
	.byte	$B0
	.byte	$AB
	.byte	$4A
	.byte	$B4
	.byte	$8C
	.byte	$5E
	.byte	$AB
	.byte	$A8
	.byte	$B0
	.byte	$B8
	.byte	$A8
	.byte	$B0
	.byte	$A9
	.byte	$B0
	.byte	$A8
	.byte	$B0
	.byte	$AA
	.byte	$B7
	.byte	$B5
	.byte	$4A
	.byte	$34
	.byte	$33
	.byte	$33
	.byte	$34
	.byte	$34
	.byte	$34
	.byte	$34
	.byte	$34
	.byte	$34
	.byte	$34
	.byte	$34
	.byte	$33
	.byte	$34
	.byte	$33
	.byte	$33
	.byte	$34
	.byte	$37
	.byte	$37
	.byte	$37
	.byte	$37
	.byte	$37
	.byte	$37
	.byte	$37
	.byte	$37
	.byte	$37
	.byte	$37
	.byte	$37
	.byte	$37
	.byte	$37
	.byte	$37
	.byte	$37
	.byte	$37
_level4_3:
	.byte	$88
	.byte	$89
	.byte	$94
	.byte	$2D
	.byte	$89
	.byte	$7B
	.byte	$50
	.byte	$50
	.byte	$1D
	.byte	$1C
	.byte	$10
	.byte	$11
	.byte	$10
	.byte	$11
	.byte	$10
	.byte	$3A
	.byte	$89
	.byte	$2E
	.byte	$88
	.byte	$93
	.byte	$94
	.byte	$87
	.byte	$50
	.byte	$1D
	.byte	$1C
	.byte	$12
	.byte	$3A
	.byte	$3B
	.byte	$01
	.byte	$10
	.byte	$11
	.byte	$10
	.byte	$2D
	.byte	$93
	.byte	$89
	.byte	$2E
	.byte	$2D
	.byte	$89
	.byte	$50
	.byte	$1C
	.byte	$02
	.byte	$11
	.byte	$10
	.byte	$10
	.byte	$03
	.byte	$00
	.byte	$01
	.byte	$10
	.byte	$93
	.byte	$88
	.byte	$2D
	.byte	$92
	.byte	$2E
	.byte	$92
	.byte	$1D
	.byte	$02
	.byte	$10
	.byte	$00
	.byte	$01
	.byte	$10
	.byte	$10
	.byte	$02
	.byte	$03
	.byte	$10
	.byte	$89
	.byte	$2E
	.byte	$93
	.byte	$89
	.byte	$89
	.byte	$92
	.byte	$1C
	.byte	$10
	.byte	$10
	.byte	$02
	.byte	$03
	.byte	$00
	.byte	$01
	.byte	$10
	.byte	$10
	.byte	$3C
	.byte	$89
	.byte	$2A
	.byte	$2B
	.byte	$2C
	.byte	$90
	.byte	$2A
	.byte	$02
	.byte	$00
	.byte	$01
	.byte	$3A
	.byte	$3B
	.byte	$02
	.byte	$03
	.byte	$11
	.byte	$10
	.byte	$10
	.byte	$2F
	.byte	$46
	.byte	$6A
	.byte	$46
	.byte	$90
	.byte	$48
	.byte	$10
	.byte	$02
	.byte	$03
	.byte	$12
	.byte	$11
	.byte	$10
	.byte	$10
	.byte	$10
	.byte	$14
	.byte	$51
	.byte	$62
	.byte	$47
	.byte	$68
	.byte	$73
	.byte	$48
	.byte	$50
	.byte	$1B
	.byte	$3A
	.byte	$3B
	.byte	$3A
	.byte	$3B
	.byte	$10
	.byte	$13
	.byte	$16
	.byte	$CE
	.byte	$C9
	.byte	$61
	.byte	$67
	.byte	$68
	.byte	$70
	.byte	$77
	.byte	$50
	.byte	$9B
	.byte	$18
	.byte	$10
	.byte	$16
	.byte	$10
	.byte	$14
	.byte	$51
	.byte	$CC
	.byte	$C9
	.byte	$C9
	.byte	$61
	.byte	$58
	.byte	$68
	.byte	$70
	.byte	$58
	.byte	$58
	.byte	$58
	.byte	$C8
	.byte	$CD
	.byte	$CD
	.byte	$CD
	.byte	$CF
	.byte	$CC
	.byte	$C9
	.byte	$BF
	.byte	$C3
	.byte	$64
	.byte	$65
	.byte	$68
	.byte	$55
	.byte	$75
	.byte	$51
	.byte	$53
	.byte	$CD
	.byte	$CD
	.byte	$CF
	.byte	$CA
	.byte	$CE
	.byte	$CE
	.byte	$C9
	.byte	$C1
	.byte	$C0
	.byte	$55
	.byte	$6B
	.byte	$6C
	.byte	$6D
	.byte	$57
	.byte	$51
	.byte	$C8
	.byte	$AE
	.byte	$CF
	.byte	$CD
	.byte	$CD
	.byte	$CC
	.byte	$C9
	.byte	$C9
	.byte	$CB
	.byte	$C4
	.byte	$B4
	.byte	$55
	.byte	$51
	.byte	$53
	.byte	$57
	.byte	$57
	.byte	$53
	.byte	$C8
	.byte	$EA
	.byte	$C8
	.byte	$CB
	.byte	$C9
	.byte	$C9
	.byte	$C9
	.byte	$C9
	.byte	$C9
	.byte	$33
	.byte	$36
	.byte	$0E
	.byte	$04
	.byte	$07
	.byte	$06
	.byte	$07
	.byte	$08
	.byte	$09
	.byte	$0A
	.byte	$0B
	.byte	$04
	.byte	$09
	.byte	$06
	.byte	$07
	.byte	$08
	.byte	$37
	.byte	$37
	.byte	$37
	.byte	$10
	.byte	$10
	.byte	$03
	.byte	$12
	.byte	$10
	.byte	$12
	.byte	$10
	.byte	$11
	.byte	$12
	.byte	$10
	.byte	$03
	.byte	$10
	.byte	$11
_level4_4:
	.byte	$3B
	.byte	$00
	.byte	$3A
	.byte	$3B
	.byte	$01
	.byte	$00
	.byte	$01
	.byte	$10
	.byte	$00
	.byte	$01
	.byte	$10
	.byte	$00
	.byte	$3D
	.byte	$00
	.byte	$3A
	.byte	$3B
	.byte	$11
	.byte	$02
	.byte	$10
	.byte	$13
	.byte	$03
	.byte	$02
	.byte	$03
	.byte	$18
	.byte	$02
	.byte	$03
	.byte	$10
	.byte	$02
	.byte	$3D
	.byte	$02
	.byte	$3C
	.byte	$03
	.byte	$3C
	.byte	$01
	.byte	$14
	.byte	$51
	.byte	$19
	.byte	$51
	.byte	$51
	.byte	$CA
	.byte	$51
	.byte	$51
	.byte	$16
	.byte	$1A
	.byte	$3D
	.byte	$14
	.byte	$00
	.byte	$01
	.byte	$10
	.byte	$10
	.byte	$51
	.byte	$CC
	.byte	$C9
	.byte	$C9
	.byte	$BF
	.byte	$C3
	.byte	$AF
	.byte	$C9
	.byte	$C9
	.byte	$CD
	.byte	$3D
	.byte	$CD
	.byte	$1B
	.byte	$10
	.byte	$10
	.byte	$51
	.byte	$CC
	.byte	$C9
	.byte	$C9
	.byte	$C9
	.byte	$C1
	.byte	$C0
	.byte	$C2
	.byte	$C9
	.byte	$C9
	.byte	$C9
	.byte	$3D
	.byte	$C9
	.byte	$CD
	.byte	$01
	.byte	$18
	.byte	$CE
	.byte	$C9
	.byte	$C9
	.byte	$C9
	.byte	$C9
	.byte	$CB
	.byte	$C4
	.byte	$CC
	.byte	$C9
	.byte	$C9
	.byte	$C9
	.byte	$3D
	.byte	$C9
	.byte	$C9
	.byte	$03
	.byte	$CC
	.byte	$C9
	.byte	$BF
	.byte	$51
	.byte	$CF
	.byte	$C9
	.byte	$C9
	.byte	$C9
	.byte	$C9
	.byte	$C9
	.byte	$C9
	.byte	$C9
	.byte	$3D
	.byte	$C9
	.byte	$12
	.byte	$01
	.byte	$C9
	.byte	$C9
	.byte	$0E
	.byte	$07
	.byte	$08
	.byte	$06
	.byte	$0D
	.byte	$C9
	.byte	$C9
	.byte	$3E
	.byte	$0E
	.byte	$09
	.byte	$04
	.byte	$0D
	.byte	$10
	.byte	$01
	.byte	$C9
	.byte	$C9
	.byte	$CB
	.byte	$CA
	.byte	$CA
	.byte	$CA
	.byte	$CC
	.byte	$C9
	.byte	$C9
	.byte	$3D
	.byte	$12
	.byte	$1B
	.byte	$10
	.byte	$02
	.byte	$00
	.byte	$03
	.byte	$AF
	.byte	$C9
	.byte	$C9
	.byte	$C9
	.byte	$C9
	.byte	$C9
	.byte	$C9
	.byte	$C9
	.byte	$C9
	.byte	$3D
	.byte	$CB
	.byte	$51
	.byte	$1A
	.byte	$01
	.byte	$00
	.byte	$25
	.byte	$C2
	.byte	$C9
	.byte	$C9
	.byte	$C9
	.byte	$C9
	.byte	$C9
	.byte	$C9
	.byte	$C9
	.byte	$C9
	.byte	$3D
	.byte	$C9
	.byte	$CB
	.byte	$51
	.byte	$1A
	.byte	$25
	.byte	$20
	.byte	$CC
	.byte	$C9
	.byte	$C9
	.byte	$C9
	.byte	$C9
	.byte	$C9
	.byte	$C9
	.byte	$C9
	.byte	$C9
	.byte	$3D
	.byte	$C9
	.byte	$C9
	.byte	$CB
	.byte	$12
	.byte	$23
	.byte	$20
	.byte	$C9
	.byte	$C9
	.byte	$C9
	.byte	$C9
	.byte	$C9
	.byte	$C9
	.byte	$C9
	.byte	$C9
	.byte	$C9
	.byte	$3D
	.byte	$C9
	.byte	$C9
	.byte	$3C
	.byte	$25
	.byte	$20
	.byte	$20
	.byte	$09
	.byte	$05
	.byte	$09
	.byte	$07
	.byte	$04
	.byte	$04
	.byte	$06
	.byte	$08
	.byte	$04
	.byte	$07
	.byte	$07
	.byte	$0D
	.byte	$25
	.byte	$20
	.byte	$20
	.byte	$20
	.byte	$10
	.byte	$03
	.byte	$12
	.byte	$10
	.byte	$11
	.byte	$12
	.byte	$03
	.byte	$10
	.byte	$11
	.byte	$10
	.byte	$3C
	.byte	$25
	.byte	$20
	.byte	$20
	.byte	$20
	.byte	$20
_level5_0:
	.byte	$10
	.byte	$11
	.byte	$10
	.byte	$3D
	.byte	$10
	.byte	$10
	.byte	$3A
	.byte	$3B
	.byte	$10
	.byte	$10
	.byte	$14
	.byte	$19
	.byte	$10
	.byte	$01
	.byte	$10
	.byte	$12
	.byte	$10
	.byte	$10
	.byte	$13
	.byte	$3D
	.byte	$19
	.byte	$16
	.byte	$15
	.byte	$19
	.byte	$18
	.byte	$51
	.byte	$51
	.byte	$51
	.byte	$16
	.byte	$02
	.byte	$10
	.byte	$10
	.byte	$10
	.byte	$15
	.byte	$CE
	.byte	$3D
	.byte	$CC
	.byte	$CB
	.byte	$CC
	.byte	$CB
	.byte	$51
	.byte	$CC
	.byte	$CB
	.byte	$CD
	.byte	$51
	.byte	$51
	.byte	$01
	.byte	$3C
	.byte	$00
	.byte	$CC
	.byte	$C9
	.byte	$3D
	.byte	$C9
	.byte	$C9
	.byte	$C9
	.byte	$C9
	.byte	$C9
	.byte	$C9
	.byte	$C9
	.byte	$C9
	.byte	$C9
	.byte	$CB
	.byte	$02
	.byte	$10
	.byte	$03
	.byte	$AF
	.byte	$C9
	.byte	$3D
	.byte	$C9
	.byte	$C9
	.byte	$C9
	.byte	$C9
	.byte	$C9
	.byte	$C9
	.byte	$C9
	.byte	$C9
	.byte	$C9
	.byte	$C9
	.byte	$10
	.byte	$11
	.byte	$11
	.byte	$51
	.byte	$AF
	.byte	$C9
	.byte	$C9
	.byte	$C9
	.byte	$C9
	.byte	$C9
	.byte	$C9
	.byte	$C9
	.byte	$C9
	.byte	$C9
	.byte	$C9
	.byte	$C9
	.byte	$3C
	.byte	$10
	.byte	$10
	.byte	$0F
	.byte	$07
	.byte	$04
	.byte	$0A
	.byte	$0B
	.byte	$0C
	.byte	$C9
	.byte	$C9
	.byte	$C9
	.byte	$C9
	.byte	$BF
	.byte	$AF
	.byte	$C9
	.byte	$10
	.byte	$01
	.byte	$10
	.byte	$01
	.byte	$51
	.byte	$CA
	.byte	$CA
	.byte	$CA
	.byte	$CC
	.byte	$C9
	.byte	$C9
	.byte	$BF
	.byte	$AE
	.byte	$51
	.byte	$51
	.byte	$AF
	.byte	$3C
	.byte	$02
	.byte	$3C
	.byte	$03
	.byte	$CC
	.byte	$C9
	.byte	$C9
	.byte	$C9
	.byte	$C9
	.byte	$C9
	.byte	$C9
	.byte	$0E
	.byte	$08
	.byte	$09
	.byte	$0A
	.byte	$0C
	.byte	$3A
	.byte	$3B
	.byte	$10
	.byte	$10
	.byte	$C9
	.byte	$C9
	.byte	$C9
	.byte	$C9
	.byte	$C9
	.byte	$C9
	.byte	$C9
	.byte	$CB
	.byte	$CA
	.byte	$CA
	.byte	$CD
	.byte	$51
	.byte	$11
	.byte	$10
	.byte	$3A
	.byte	$14
	.byte	$C9
	.byte	$C9
	.byte	$0E
	.byte	$07
	.byte	$0A
	.byte	$0C
	.byte	$C9
	.byte	$C9
	.byte	$C9
	.byte	$C9
	.byte	$C9
	.byte	$CD
	.byte	$1A
	.byte	$10
	.byte	$10
	.byte	$15
	.byte	$CF
	.byte	$C9
	.byte	$CB
	.byte	$CA
	.byte	$CA
	.byte	$CC
	.byte	$C9
	.byte	$C9
	.byte	$C9
	.byte	$C9
	.byte	$C9
	.byte	$C9
	.byte	$CD
	.byte	$11
	.byte	$10
	.byte	$51
	.byte	$51
	.byte	$CF
	.byte	$AF
	.byte	$C9
	.byte	$C9
	.byte	$C9
	.byte	$C9
	.byte	$C9
	.byte	$C9
	.byte	$C9
	.byte	$C9
	.byte	$C9
	.byte	$C9
	.byte	$10
	.byte	$3C
	.byte	$0F
	.byte	$07
	.byte	$06
	.byte	$06
	.byte	$07
	.byte	$08
	.byte	$09
	.byte	$0A
	.byte	$0B
	.byte	$06
	.byte	$07
	.byte	$3E
	.byte	$04
	.byte	$0D
	.byte	$10
	.byte	$10
	.byte	$10
	.byte	$3A
	.byte	$3B
	.byte	$10
	.byte	$11
	.byte	$10
	.byte	$10
	.byte	$10
	.byte	$12
	.byte	$03
	.byte	$10
	.byte	$3D
	.byte	$10
	.byte	$3C
	.byte	$12
_level6_0:
	.byte	$02
	.byte	$00
	.byte	$3C
	.byte	$03
	.byte	$02
	.byte	$3A
	.byte	$3B
	.byte	$03
	.byte	$02
	.byte	$3C
	.byte	$10
	.byte	$02
	.byte	$03
	.byte	$3C
	.byte	$10
	.byte	$02
	.byte	$00
	.byte	$02
	.byte	$10
	.byte	$3A
	.byte	$3B
	.byte	$3C
	.byte	$11
	.byte	$03
	.byte	$14
	.byte	$18
	.byte	$19
	.byte	$16
	.byte	$10
	.byte	$03
	.byte	$3C
	.byte	$13
	.byte	$02
	.byte	$1B
	.byte	$3B
	.byte	$11
	.byte	$14
	.byte	$16
	.byte	$51
	.byte	$51
	.byte	$51
	.byte	$CA
	.byte	$CD
	.byte	$51
	.byte	$51
	.byte	$1B
	.byte	$10
	.byte	$11
	.byte	$10
	.byte	$10
	.byte	$14
	.byte	$51
	.byte	$CE
	.byte	$CA
	.byte	$C9
	.byte	$C9
	.byte	$C9
	.byte	$C9
	.byte	$C9
	.byte	$CA
	.byte	$51
	.byte	$51
	.byte	$10
	.byte	$10
	.byte	$11
	.byte	$00
	.byte	$CE
	.byte	$C9
	.byte	$C9
	.byte	$C9
	.byte	$C9
	.byte	$C9
	.byte	$C9
	.byte	$C9
	.byte	$C9
	.byte	$C9
	.byte	$CB
	.byte	$51
	.byte	$3C
	.byte	$10
	.byte	$12
	.byte	$02
	.byte	$BF
	.byte	$C3
	.byte	$AF
	.byte	$C9
	.byte	$C9
	.byte	$C9
	.byte	$C9
	.byte	$C9
	.byte	$C9
	.byte	$C9
	.byte	$C9
	.byte	$CB
	.byte	$10
	.byte	$00
	.byte	$3C
	.byte	$10
	.byte	$C1
	.byte	$C0
	.byte	$C2
	.byte	$C9
	.byte	$C9
	.byte	$C9
	.byte	$C9
	.byte	$C9
	.byte	$C9
	.byte	$C9
	.byte	$C9
	.byte	$C9
	.byte	$01
	.byte	$02
	.byte	$10
	.byte	$10
	.byte	$CB
	.byte	$C4
	.byte	$CC
	.byte	$C9
	.byte	$C9
	.byte	$C9
	.byte	$C9
	.byte	$C9
	.byte	$C9
	.byte	$C9
	.byte	$C9
	.byte	$C9
	.byte	$02
	.byte	$3C
	.byte	$3A
	.byte	$3B
	.byte	$0E
	.byte	$08
	.byte	$0C
	.byte	$C9
	.byte	$C9
	.byte	$C9
	.byte	$C9
	.byte	$C9
	.byte	$C9
	.byte	$C9
	.byte	$C9
	.byte	$C9
	.byte	$1A
	.byte	$10
	.byte	$10
	.byte	$3C
	.byte	$14
	.byte	$16
	.byte	$CC
	.byte	$C9
	.byte	$C9
	.byte	$C9
	.byte	$C9
	.byte	$C9
	.byte	$C9
	.byte	$C9
	.byte	$C9
	.byte	$C9
	.byte	$CB
	.byte	$CA
	.byte	$3B
	.byte	$00
	.byte	$CE
	.byte	$C9
	.byte	$C9
	.byte	$C9
	.byte	$C9
	.byte	$C9
	.byte	$C9
	.byte	$C9
	.byte	$C9
	.byte	$C9
	.byte	$C9
	.byte	$C9
	.byte	$C9
	.byte	$C9
	.byte	$12
	.byte	$02
	.byte	$C9
	.byte	$C9
	.byte	$C9
	.byte	$C9
	.byte	$C9
	.byte	$C9
	.byte	$C9
	.byte	$C9
	.byte	$C9
	.byte	$C9
	.byte	$C9
	.byte	$C9
	.byte	$C9
	.byte	$C9
	.byte	$11
	.byte	$00
	.byte	$C9
	.byte	$C9
	.byte	$C9
	.byte	$BF
	.byte	$AE
	.byte	$51
	.byte	$AF
	.byte	$C9
	.byte	$C9
	.byte	$C9
	.byte	$C9
	.byte	$C9
	.byte	$C9
	.byte	$C9
	.byte	$10
	.byte	$02
	.byte	$0E
	.byte	$3E
	.byte	$04
	.byte	$09
	.byte	$0A
	.byte	$07
	.byte	$04
	.byte	$05
	.byte	$04
	.byte	$07
	.byte	$04
	.byte	$08
	.byte	$05
	.byte	$04
	.byte	$3C
	.byte	$00
	.byte	$10
	.byte	$3D
	.byte	$3C
	.byte	$10
	.byte	$01
	.byte	$11
	.byte	$01
	.byte	$02
	.byte	$3C
	.byte	$10
	.byte	$10
	.byte	$3A
	.byte	$02
	.byte	$10
_level6_1:
	.byte	$3C
	.byte	$10
	.byte	$03
	.byte	$10
	.byte	$10
	.byte	$10
	.byte	$11
	.byte	$10
	.byte	$3A
	.byte	$3B
	.byte	$10
	.byte	$02
	.byte	$01
	.byte	$10
	.byte	$10
	.byte	$03
	.byte	$10
	.byte	$10
	.byte	$11
	.byte	$10
	.byte	$12
	.byte	$3C
	.byte	$17
	.byte	$17
	.byte	$10
	.byte	$14
	.byte	$51
	.byte	$1B
	.byte	$10
	.byte	$3C
	.byte	$13
	.byte	$3A
	.byte	$3C
	.byte	$10
	.byte	$10
	.byte	$14
	.byte	$51
	.byte	$CE
	.byte	$CA
	.byte	$CA
	.byte	$51
	.byte	$51
	.byte	$CA
	.byte	$51
	.byte	$51
	.byte	$1B
	.byte	$10
	.byte	$10
	.byte	$10
	.byte	$10
	.byte	$13
	.byte	$CE
	.byte	$C9
	.byte	$C9
	.byte	$C9
	.byte	$C9
	.byte	$C9
	.byte	$C9
	.byte	$C9
	.byte	$CB
	.byte	$51
	.byte	$51
	.byte	$11
	.byte	$10
	.byte	$10
	.byte	$3C
	.byte	$51
	.byte	$BF
	.byte	$C3
	.byte	$AF
	.byte	$C9
	.byte	$C9
	.byte	$C9
	.byte	$C9
	.byte	$BF
	.byte	$C3
	.byte	$AF
	.byte	$CD
	.byte	$10
	.byte	$11
	.byte	$10
	.byte	$11
	.byte	$CC
	.byte	$C1
	.byte	$C0
	.byte	$C2
	.byte	$C9
	.byte	$C9
	.byte	$C9
	.byte	$C9
	.byte	$C1
	.byte	$C0
	.byte	$C2
	.byte	$C9
	.byte	$10
	.byte	$10
	.byte	$00
	.byte	$10
	.byte	$C9
	.byte	$CB
	.byte	$C4
	.byte	$CC
	.byte	$C9
	.byte	$C9
	.byte	$C9
	.byte	$C9
	.byte	$CB
	.byte	$C4
	.byte	$CC
	.byte	$C9
	.byte	$10
	.byte	$3A
	.byte	$03
	.byte	$10
	.byte	$C9
	.byte	$C9
	.byte	$C9
	.byte	$C9
	.byte	$C9
	.byte	$C9
	.byte	$C9
	.byte	$C9
	.byte	$C9
	.byte	$C9
	.byte	$C9
	.byte	$C9
	.byte	$3A
	.byte	$3B
	.byte	$10
	.byte	$14
	.byte	$C9
	.byte	$C9
	.byte	$C9
	.byte	$C9
	.byte	$C9
	.byte	$C9
	.byte	$C9
	.byte	$C9
	.byte	$C9
	.byte	$C9
	.byte	$C9
	.byte	$C9
	.byte	$11
	.byte	$3C
	.byte	$CA
	.byte	$CC
	.byte	$C9
	.byte	$C9
	.byte	$C9
	.byte	$C9
	.byte	$C9
	.byte	$C9
	.byte	$C9
	.byte	$C9
	.byte	$C9
	.byte	$C9
	.byte	$C9
	.byte	$C9
	.byte	$10
	.byte	$10
	.byte	$C9
	.byte	$C9
	.byte	$BF
	.byte	$51
	.byte	$AF
	.byte	$AF
	.byte	$C9
	.byte	$C9
	.byte	$C9
	.byte	$C9
	.byte	$C9
	.byte	$C9
	.byte	$C9
	.byte	$C9
	.byte	$3C
	.byte	$11
	.byte	$C9
	.byte	$BF
	.byte	$51
	.byte	$51
	.byte	$51
	.byte	$51
	.byte	$CF
	.byte	$C9
	.byte	$C9
	.byte	$C9
	.byte	$C9
	.byte	$C9
	.byte	$C9
	.byte	$C9
	.byte	$3C
	.byte	$10
	.byte	$C9
	.byte	$CD
	.byte	$51
	.byte	$51
	.byte	$51
	.byte	$51
	.byte	$51
	.byte	$AF
	.byte	$C9
	.byte	$C9
	.byte	$C9
	.byte	$C9
	.byte	$C9
	.byte	$C9
	.byte	$10
	.byte	$11
	.byte	$07
	.byte	$09
	.byte	$04
	.byte	$04
	.byte	$0A
	.byte	$09
	.byte	$04
	.byte	$06
	.byte	$04
	.byte	$07
	.byte	$04
	.byte	$07
	.byte	$04
	.byte	$0C
	.byte	$3C
	.byte	$3A
	.byte	$3C
	.byte	$10
	.byte	$12
	.byte	$01
	.byte	$10
	.byte	$10
	.byte	$11
	.byte	$03
	.byte	$13
	.byte	$10
	.byte	$3A
	.byte	$3B
	.byte	$3C
	.byte	$10
	.byte	$01
	.byte	$11
_level7_0:
	.byte	$3C
	.byte	$10
	.byte	$03
	.byte	$10
	.byte	$10
	.byte	$10
	.byte	$11
	.byte	$10
	.byte	$3A
	.byte	$3B
	.byte	$10
	.byte	$02
	.byte	$01
	.byte	$10
	.byte	$10
	.byte	$03
	.byte	$10
	.byte	$10
	.byte	$11
	.byte	$10
	.byte	$12
	.byte	$3C
	.byte	$17
	.byte	$17
	.byte	$10
	.byte	$14
	.byte	$51
	.byte	$1B
	.byte	$10
	.byte	$3C
	.byte	$13
	.byte	$3A
	.byte	$3C
	.byte	$10
	.byte	$10
	.byte	$14
	.byte	$51
	.byte	$CE
	.byte	$CA
	.byte	$CA
	.byte	$51
	.byte	$51
	.byte	$CA
	.byte	$51
	.byte	$51
	.byte	$1B
	.byte	$10
	.byte	$10
	.byte	$10
	.byte	$10
	.byte	$13
	.byte	$CE
	.byte	$C9
	.byte	$C9
	.byte	$C9
	.byte	$C9
	.byte	$C9
	.byte	$C9
	.byte	$C9
	.byte	$CB
	.byte	$51
	.byte	$51
	.byte	$11
	.byte	$10
	.byte	$10
	.byte	$3C
	.byte	$51
	.byte	$BF
	.byte	$C3
	.byte	$AF
	.byte	$C9
	.byte	$C9
	.byte	$C9
	.byte	$C9
	.byte	$BF
	.byte	$C3
	.byte	$AF
	.byte	$CD
	.byte	$10
	.byte	$11
	.byte	$10
	.byte	$11
	.byte	$CC
	.byte	$C1
	.byte	$C0
	.byte	$C2
	.byte	$C9
	.byte	$C9
	.byte	$C9
	.byte	$C9
	.byte	$C1
	.byte	$C0
	.byte	$C2
	.byte	$C9
	.byte	$10
	.byte	$10
	.byte	$00
	.byte	$10
	.byte	$C9
	.byte	$CB
	.byte	$C4
	.byte	$CC
	.byte	$C9
	.byte	$C9
	.byte	$C9
	.byte	$C9
	.byte	$CB
	.byte	$C4
	.byte	$CC
	.byte	$C9
	.byte	$10
	.byte	$3A
	.byte	$03
	.byte	$10
	.byte	$C9
	.byte	$C9
	.byte	$C9
	.byte	$C9
	.byte	$C9
	.byte	$C9
	.byte	$C9
	.byte	$C9
	.byte	$C9
	.byte	$C9
	.byte	$C9
	.byte	$C9
	.byte	$3A
	.byte	$3B
	.byte	$10
	.byte	$14
	.byte	$C9
	.byte	$C9
	.byte	$C9
	.byte	$C9
	.byte	$C9
	.byte	$C9
	.byte	$C9
	.byte	$C9
	.byte	$C9
	.byte	$C9
	.byte	$C9
	.byte	$C9
	.byte	$11
	.byte	$3C
	.byte	$10
	.byte	$CC
	.byte	$C9
	.byte	$BF
	.byte	$C9
	.byte	$C9
	.byte	$C9
	.byte	$C9
	.byte	$C9
	.byte	$C9
	.byte	$C9
	.byte	$C9
	.byte	$C9
	.byte	$C9
	.byte	$10
	.byte	$10
	.byte	$10
	.byte	$BF
	.byte	$51
	.byte	$51
	.byte	$AF
	.byte	$AF
	.byte	$C9
	.byte	$C9
	.byte	$C9
	.byte	$C9
	.byte	$C9
	.byte	$C9
	.byte	$C9
	.byte	$C9
	.byte	$3C
	.byte	$11
	.byte	$3C
	.byte	$AE
	.byte	$51
	.byte	$51
	.byte	$51
	.byte	$51
	.byte	$CF
	.byte	$C9
	.byte	$C9
	.byte	$C9
	.byte	$C9
	.byte	$C9
	.byte	$C9
	.byte	$C9
	.byte	$3C
	.byte	$10
	.byte	$10
	.byte	$CD
	.byte	$51
	.byte	$51
	.byte	$51
	.byte	$51
	.byte	$51
	.byte	$AF
	.byte	$C9
	.byte	$C9
	.byte	$C9
	.byte	$C9
	.byte	$C9
	.byte	$C9
	.byte	$10
	.byte	$11
	.byte	$10
	.byte	$0F
	.byte	$04
	.byte	$04
	.byte	$0A
	.byte	$09
	.byte	$04
	.byte	$06
	.byte	$04
	.byte	$07
	.byte	$04
	.byte	$07
	.byte	$04
	.byte	$0C
	.byte	$3C
	.byte	$3A
	.byte	$3C
	.byte	$10
	.byte	$12
	.byte	$01
	.byte	$10
	.byte	$10
	.byte	$11
	.byte	$03
	.byte	$13
	.byte	$10
	.byte	$3A
	.byte	$3B
	.byte	$3C
	.byte	$10
	.byte	$01
	.byte	$11
_stage1_levels_list:
	.addr	_level0_0
	.addr	_level0_1
	.addr	_level0_2
	.addr	_level0_3
	.addr	_level0_4
	.addr	_level0_5
	.addr	_level0_6
	.addr	_level0_7
	.addr	_level1_0
	.addr	_level2_0
	.addr	_level2_1
	.addr	_level2_2
	.addr	_level2_3
	.addr	_level3_0
	.addr	_level4_0
	.addr	_level4_1
	.addr	_level4_2
	.addr	_level4_3
	.addr	_level4_4
	.addr	_level5_0
	.addr	_level6_0
	.addr	_level6_1
	.addr	_level7_0
_level_max_rooms:
	.byte	$08
	.byte	$01
	.byte	$04
	.byte	$01
	.byte	$05
	.byte	$01
	.byte	$02
	.byte	$01
_level_offsets:
	.byte	$00
	.byte	$08
	.byte	$09
	.byte	$0D
	.byte	$0E
	.byte	$13
	.byte	$14
	.byte	$16
_level_0_enemies:
	.byte	$C0
	.byte	$00
	.byte	$E0
	.byte	$00
	.byte	$30
	.byte	$01
	.byte	$90
	.byte	$01
	.byte	$B0
	.byte	$01
	.byte	$E0
	.byte	$00
	.byte	$80
	.byte	$03
	.byte	$00
	.byte	$00
	.byte	$30
	.byte	$03
	.byte	$90
	.byte	$01
	.byte	$80
	.byte	$05
	.byte	$A0
	.byte	$00
	.byte	$90
	.byte	$06
	.byte	$80
	.byte	$00
	.byte	$00
	.byte	$07
	.byte	$70
	.byte	$01
	.byte	$40
	.byte	$07
	.byte	$90
	.byte	$00
	.byte	$FF
_level_1_enemies:
	.byte	$60
	.byte	$00
	.byte	$80
	.byte	$00
	.byte	$10
	.byte	$00
	.byte	$C0
	.byte	$01
	.byte	$FF
_level_2_enemies:
	.byte	$90
	.byte	$00
	.byte	$80
	.byte	$00
	.byte	$A0
	.byte	$01
	.byte	$40
	.byte	$00
	.byte	$60
	.byte	$02
	.byte	$60
	.byte	$00
	.byte	$90
	.byte	$02
	.byte	$E0
	.byte	$00
	.byte	$C0
	.byte	$03
	.byte	$A0
	.byte	$00
	.byte	$FF
_level_3_enemies:
	.byte	$30
	.byte	$00
	.byte	$30
	.byte	$01
	.byte	$80
	.byte	$00
	.byte	$B0
	.byte	$00
	.byte	$FF
_level_4_enemies:
	.byte	$00
	.byte	$00
	.byte	$A0
	.byte	$01
	.byte	$80
	.byte	$00
	.byte	$E0
	.byte	$00
	.byte	$30
	.byte	$00
	.byte	$E0
	.byte	$01
	.byte	$C0
	.byte	$01
	.byte	$B0
	.byte	$00
	.byte	$60
	.byte	$04
	.byte	$C0
	.byte	$00
	.byte	$20
	.byte	$04
	.byte	$D0
	.byte	$01
	.byte	$FF
_level_5_enemies:
	.byte	$90
	.byte	$00
	.byte	$50
	.byte	$00
	.byte	$70
	.byte	$00
	.byte	$C0
	.byte	$00
	.byte	$50
	.byte	$00
	.byte	$20
	.byte	$01
	.byte	$50
	.byte	$00
	.byte	$70
	.byte	$01
	.byte	$FF
_level_6_enemies:
	.byte	$BE
	.byte	$00
	.byte	$C8
	.byte	$00
	.byte	$FF
_level_7_enemies:
	.byte	$BE
	.byte	$00
	.byte	$28
	.byte	$02
	.byte	$FF
_Enemy_list:
	.addr	_level_0_enemies
	.addr	_level_1_enemies
	.addr	_level_2_enemies
	.addr	_level_3_enemies
	.addr	_level_4_enemies
	.addr	_level_5_enemies
	.addr	_level_6_enemies
	.addr	_level_7_enemies
_level_0_entities:
	.byte	$E6
	.byte	$02
	.byte	$00
	.byte	$02
	.byte	$E6
	.byte	$02
	.byte	$40
	.byte	$02
	.byte	$E6
	.byte	$04
	.byte	$00
	.byte	$02
	.byte	$E6
	.byte	$04
	.byte	$40
	.byte	$02
	.byte	$E6
	.byte	$05
	.byte	$60
	.byte	$02
	.byte	$E6
	.byte	$05
	.byte	$B0
	.byte	$02
	.byte	$E6
	.byte	$06
	.byte	$A0
	.byte	$02
	.byte	$00
	.byte	$07
	.byte	$A0
	.byte	$00
	.byte	$FF
_level_1_entities:
	.byte	$E6
	.byte	$00
	.byte	$A0
	.byte	$03
	.byte	$00
	.byte	$00
	.byte	$30
	.byte	$00
	.byte	$48
	.byte	$00
	.byte	$C8
	.byte	$09
	.byte	$FF
_level_2_entities:
	.byte	$E6
	.byte	$00
	.byte	$30
	.byte	$03
	.byte	$E6
	.byte	$00
	.byte	$00
	.byte	$04
	.byte	$E6
	.byte	$01
	.byte	$00
	.byte	$06
	.byte	$E6
	.byte	$01
	.byte	$40
	.byte	$06
	.byte	$E6
	.byte	$01
	.byte	$80
	.byte	$06
	.byte	$E6
	.byte	$01
	.byte	$C0
	.byte	$06
	.byte	$E6
	.byte	$02
	.byte	$00
	.byte	$06
	.byte	$C0
	.byte	$02
	.byte	$28
	.byte	$08
	.byte	$E6
	.byte	$02
	.byte	$90
	.byte	$06
	.byte	$E6
	.byte	$02
	.byte	$D0
	.byte	$06
	.byte	$E6
	.byte	$03
	.byte	$10
	.byte	$06
	.byte	$E6
	.byte	$03
	.byte	$B0
	.byte	$00
	.byte	$E6
	.byte	$03
	.byte	$C0
	.byte	$00
	.byte	$E6
	.byte	$03
	.byte	$DA
	.byte	$00
	.byte	$E6
	.byte	$03
	.byte	$EA
	.byte	$00
	.byte	$FF
_level_3_entities:
	.byte	$00
	.byte	$00
	.byte	$B0
	.byte	$03
	.byte	$E6
	.byte	$00
	.byte	$30
	.byte	$00
	.byte	$E6
	.byte	$00
	.byte	$00
	.byte	$05
	.byte	$FF
_level_4_entities:
	.byte	$00
	.byte	$00
	.byte	$30
	.byte	$03
	.byte	$00
	.byte	$04
	.byte	$C0
	.byte	$00
	.byte	$FF
_level_5_entities:
	.byte	$E6
	.byte	$00
	.byte	$C0
	.byte	$03
	.byte	$E6
	.byte	$00
	.byte	$00
	.byte	$04
	.byte	$00
	.byte	$00
	.byte	$30
	.byte	$00
	.byte	$FF
_level_6_entities:
	.byte	$E6
	.byte	$00
	.byte	$30
	.byte	$03
	.byte	$70
	.byte	$00
	.byte	$38
	.byte	$08
	.byte	$BE
	.byte	$01
	.byte	$C8
	.byte	$0C
	.byte	$FF
_entity_list:
	.addr	_level_0_entities
	.addr	_level_1_entities
	.addr	_level_2_entities
	.addr	_level_3_entities
	.addr	_level_4_entities
	.addr	_level_5_entities
	.addr	_level_6_entities
_titletiled_0:
	.byte	$50
	.byte	$50
	.byte	$50
	.byte	$50
	.byte	$50
	.byte	$50
	.byte	$50
	.byte	$50
	.byte	$50
	.byte	$50
	.byte	$50
	.byte	$DD
	.byte	$DC
	.byte	$DC
	.byte	$DE
	.byte	$50
	.byte	$DC
	.byte	$DE
	.byte	$95
	.byte	$91
	.byte	$97
	.byte	$50
	.byte	$DD
	.byte	$DC
	.byte	$DE
	.byte	$50
	.byte	$50
	.byte	$50
	.byte	$50
	.byte	$50
	.byte	$50
	.byte	$50
	.byte	$50
	.byte	$96
	.byte	$91
	.byte	$2D
	.byte	$89
	.byte	$97
	.byte	$C6
	.byte	$C6
	.byte	$C6
	.byte	$C6
	.byte	$C6
	.byte	$C6
	.byte	$C6
	.byte	$C6
	.byte	$C6
	.byte	$C6
	.byte	$50
	.byte	$91
	.byte	$89
	.byte	$94
	.byte	$89
	.byte	$94
	.byte	$C6
	.byte	$C6
	.byte	$C6
	.byte	$C6
	.byte	$C6
	.byte	$C6
	.byte	$C6
	.byte	$C6
	.byte	$C6
	.byte	$C6
	.byte	$50
	.byte	$2C
	.byte	$91
	.byte	$89
	.byte	$94
	.byte	$2A
	.byte	$C6
	.byte	$C6
	.byte	$C6
	.byte	$C6
	.byte	$C6
	.byte	$C6
	.byte	$C6
	.byte	$C6
	.byte	$C6
	.byte	$C6
	.byte	$50
	.byte	$49
	.byte	$2C
	.byte	$90
	.byte	$90
	.byte	$48
	.byte	$C6
	.byte	$C6
	.byte	$C6
	.byte	$C6
	.byte	$C6
	.byte	$C6
	.byte	$C6
	.byte	$C6
	.byte	$C6
	.byte	$C6
	.byte	$50
	.byte	$50
	.byte	$49
	.byte	$6A
	.byte	$48
	.byte	$50
	.byte	$50
	.byte	$D1
	.byte	$D3
	.byte	$E0
	.byte	$E1
	.byte	$E2
	.byte	$50
	.byte	$50
	.byte	$D1
	.byte	$D3
	.byte	$D1
	.byte	$D2
	.byte	$E4
	.byte	$68
	.byte	$58
	.byte	$59
	.byte	$D0
	.byte	$D4
	.byte	$D9
	.byte	$EC
	.byte	$EE
	.byte	$E9
	.byte	$E3
	.byte	$D0
	.byte	$D4
	.byte	$D9
	.byte	$BE
	.byte	$BE
	.byte	$BD
	.byte	$69
	.byte	$BD
	.byte	$BC
	.byte	$B0
	.byte	$BD
	.byte	$B0
	.byte	$BC
	.byte	$BD
	.byte	$BC
	.byte	$B0
	.byte	$BD
	.byte	$BE
	.byte	$BD
	.byte	$B0
	.byte	$B8
	.byte	$B0
	.byte	$68
	.byte	$B0
	.byte	$BE
	.byte	$BC
	.byte	$B0
	.byte	$BE
	.byte	$B6
	.byte	$7E
	.byte	$7F
	.byte	$5F
	.byte	$B9
	.byte	$B0
	.byte	$BC
	.byte	$BC
	.byte	$4D
	.byte	$6B
	.byte	$6C
	.byte	$6D
	.byte	$4F
	.byte	$B0
	.byte	$A7
	.byte	$B0
	.byte	$B8
	.byte	$5C
	.byte	$5D
	.byte	$5E
	.byte	$A8
	.byte	$A9
	.byte	$AA
	.byte	$B0
	.byte	$4A
	.byte	$4B
	.byte	$4B
	.byte	$4B
	.byte	$4C
	.byte	$B6
	.byte	$B7
	.byte	$B8
	.byte	$AB
	.byte	$A7
	.byte	$B0
	.byte	$A8
	.byte	$A9
	.byte	$B0
	.byte	$A9
	.byte	$B6
	.byte	$B7
	.byte	$B0
	.byte	$B0
	.byte	$B8
	.byte	$B0
	.byte	$B6
	.byte	$B0
	.byte	$B0
	.byte	$A9
	.byte	$B0
	.byte	$AA
	.byte	$B0
	.byte	$B7
	.byte	$B0
	.byte	$B9
	.byte	$A7
	.byte	$A8
	.byte	$AB
	.byte	$AA
	.byte	$B0
	.byte	$A7
	.byte	$A8
	.byte	$B0
	.byte	$B0
	.byte	$B0
	.byte	$AA
	.byte	$B0
	.byte	$A9
	.byte	$B0
	.byte	$B9
	.byte	$B0
	.byte	$B0
	.byte	$B6
	.byte	$B7
	.byte	$B0
	.byte	$B0
	.byte	$B0
	.byte	$B0
	.byte	$A9
	.byte	$B7
	.byte	$B0
	.byte	$B0
	.byte	$A9
	.byte	$AA
	.byte	$B0
	.byte	$B0
	.byte	$AB
_gameovertiled_0:
	.byte	$3A
	.byte	$3B
	.byte	$02
	.byte	$14
	.byte	$03
	.byte	$10
	.byte	$14
	.byte	$10
	.byte	$3C
	.byte	$10
	.byte	$01
	.byte	$10
	.byte	$10
	.byte	$01
	.byte	$02
	.byte	$03
	.byte	$00
	.byte	$01
	.byte	$10
	.byte	$10
	.byte	$01
	.byte	$14
	.byte	$51
	.byte	$1A
	.byte	$03
	.byte	$12
	.byte	$03
	.byte	$1A
	.byte	$00
	.byte	$10
	.byte	$3A
	.byte	$3B
	.byte	$02
	.byte	$03
	.byte	$14
	.byte	$51
	.byte	$17
	.byte	$CE
	.byte	$C9
	.byte	$CD
	.byte	$51
	.byte	$51
	.byte	$51
	.byte	$CD
	.byte	$19
	.byte	$18
	.byte	$10
	.byte	$10
	.byte	$14
	.byte	$51
	.byte	$51
	.byte	$CC
	.byte	$CA
	.byte	$C9
	.byte	$C9
	.byte	$C9
	.byte	$C9
	.byte	$C9
	.byte	$C9
	.byte	$C9
	.byte	$C9
	.byte	$CD
	.byte	$19
	.byte	$1B
	.byte	$51
	.byte	$CC
	.byte	$C9
	.byte	$C9
	.byte	$C9
	.byte	$C9
	.byte	$C9
	.byte	$C9
	.byte	$C9
	.byte	$C9
	.byte	$C9
	.byte	$C9
	.byte	$C9
	.byte	$C9
	.byte	$CB
	.byte	$51
	.byte	$CC
	.byte	$C9
	.byte	$C9
	.byte	$C9
	.byte	$C9
	.byte	$C9
	.byte	$C9
	.byte	$C9
	.byte	$C9
	.byte	$C9
	.byte	$C9
	.byte	$C9
	.byte	$C9
	.byte	$C9
	.byte	$C9
	.byte	$CB
	.byte	$C9
	.byte	$C9
	.byte	$BF
	.byte	$C3
	.byte	$AF
	.byte	$C9
	.byte	$C9
	.byte	$C9
	.byte	$C9
	.byte	$C9
	.byte	$C9
	.byte	$BF
	.byte	$C3
	.byte	$AF
	.byte	$C9
	.byte	$C9
	.byte	$C9
	.byte	$C9
	.byte	$C1
	.byte	$C0
	.byte	$C2
	.byte	$C9
	.byte	$C9
	.byte	$C9
	.byte	$C9
	.byte	$C9
	.byte	$C9
	.byte	$C1
	.byte	$C0
	.byte	$C2
	.byte	$C9
	.byte	$C9
	.byte	$C9
	.byte	$C9
	.byte	$CB
	.byte	$C4
	.byte	$CC
	.byte	$C9
	.byte	$C9
	.byte	$C9
	.byte	$C9
	.byte	$C9
	.byte	$C9
	.byte	$CB
	.byte	$C4
	.byte	$CC
	.byte	$C9
	.byte	$C9
	.byte	$C9
	.byte	$C9
	.byte	$C9
	.byte	$C9
	.byte	$C9
	.byte	$C9
	.byte	$C9
	.byte	$C9
	.byte	$C9
	.byte	$C9
	.byte	$C9
	.byte	$C9
	.byte	$C9
	.byte	$C9
	.byte	$C9
	.byte	$C9
	.byte	$C9
	.byte	$C9
	.byte	$C9
	.byte	$C9
	.byte	$C9
	.byte	$C9
	.byte	$BF
	.byte	$BF
	.byte	$51
	.byte	$AF
	.byte	$AF
	.byte	$C9
	.byte	$C9
	.byte	$C9
	.byte	$C9
	.byte	$C9
	.byte	$C9
	.byte	$C9
	.byte	$C9
	.byte	$C9
	.byte	$BF
	.byte	$51
	.byte	$51
	.byte	$51
	.byte	$51
	.byte	$51
	.byte	$CF
	.byte	$AF
	.byte	$C9
	.byte	$C9
	.byte	$C9
	.byte	$C9
	.byte	$C9
	.byte	$C9
	.byte	$C9
	.byte	$BF
	.byte	$51
	.byte	$51
	.byte	$51
	.byte	$51
	.byte	$51
	.byte	$51
	.byte	$51
	.byte	$CF
	.byte	$C9
	.byte	$C9
	.byte	$C9
	.byte	$C9
	.byte	$04
	.byte	$05
	.byte	$07
	.byte	$07
	.byte	$08
	.byte	$09
	.byte	$06
	.byte	$04
	.byte	$06
	.byte	$06
	.byte	$07
	.byte	$08
	.byte	$09
	.byte	$0A
	.byte	$0B
	.byte	$04
	.byte	$00
	.byte	$02
	.byte	$3A
	.byte	$3B
	.byte	$10
	.byte	$00
	.byte	$01
	.byte	$00
	.byte	$03
	.byte	$02
	.byte	$10
	.byte	$00
	.byte	$3C
	.byte	$01
	.byte	$3A
	.byte	$3B
_palette_gameover:
	.byte	$0F
	.byte	$0F
	.byte	$00
	.byte	$10
	.byte	$0F
	.byte	$0F
	.byte	$30
	.byte	$08
	.byte	$0F
	.byte	$0F
	.byte	$17
	.byte	$06
	.byte	$0F
	.byte	$0F
	.byte	$19
	.byte	$29
_victory:
	.byte	$02
	.byte	$01
	.byte	$02
	.byte	$06
	.byte	$EF
	.byte	$EF
	.byte	$ED
	.byte	$39
	.byte	$EF
	.byte	$C1
	.byte	$C1
	.byte	$01
	.byte	$02
	.byte	$02
	.byte	$B0
	.byte	$01
	.byte	$01
	.byte	$B0
	.byte	$01
	.byte	$02
	.byte	$03
	.byte	$C0
	.byte	$01
	.byte	$02
	.byte	$09
	.byte	$C3
	.byte	$01
	.byte	$C0
	.byte	$C1
	.byte	$EF
	.byte	$38
	.byte	$00
	.byte	$39
	.byte	$36
	.byte	$36
	.byte	$37
	.byte	$36
	.byte	$EF
	.byte	$6D
	.byte	$C1
	.byte	$C1
	.byte	$B0
	.byte	$6D
	.byte	$EF
	.byte	$5D
	.byte	$36
	.byte	$39
	.byte	$EF
	.byte	$C0
	.byte	$01
	.byte	$C3
	.byte	$01
	.byte	$01
	.byte	$C1
	.byte	$01
	.byte	$02
	.byte	$02
	.byte	$C1
	.byte	$C1
	.byte	$EF
	.byte	$5D
	.byte	$00
	.byte	$02
	.byte	$07
	.byte	$39
	.byte	$37
	.byte	$37
	.byte	$39
	.byte	$5D
	.byte	$5D
	.byte	$38
	.byte	$00
	.byte	$02
	.byte	$02
	.byte	$36
	.byte	$EF
	.byte	$01
	.byte	$C0
	.byte	$01
	.byte	$02
	.byte	$02
	.byte	$C1
	.byte	$9F
	.byte	$EE
	.byte	$38
	.byte	$FF
	.byte	$FF
	.byte	$00
	.byte	$02
	.byte	$13
	.byte	$39
	.byte	$EE
	.byte	$B0
	.byte	$B0
	.byte	$01
	.byte	$9F
	.byte	$5D
	.byte	$39
	.byte	$38
	.byte	$00
	.byte	$02
	.byte	$17
	.byte	$39
	.byte	$ED
	.byte	$C0
	.byte	$01
	.byte	$38
	.byte	$00
	.byte	$02
	.byte	$1B
	.byte	$39
	.byte	$EE
	.byte	$C0
	.byte	$00
	.byte	$02
	.byte	$1D
	.byte	$39
	.byte	$5D
	.byte	$00
	.byte	$02
	.byte	$2B
	.byte	$59
	.byte	$4F
	.byte	$55
	.byte	$00
	.byte	$57
	.byte	$49
	.byte	$4E
	.byte	$21
	.byte	$00
	.byte	$02
	.byte	$30
	.byte	$59
	.byte	$4F
	.byte	$55
	.byte	$52
	.byte	$00
	.byte	$53
	.byte	$4B
	.byte	$49
	.byte	$4C
	.byte	$4C
	.byte	$53
	.byte	$00
	.byte	$41
	.byte	$52
	.byte	$45
	.byte	$00
	.byte	$44
	.byte	$49
	.byte	$56
	.byte	$49
	.byte	$4E
	.byte	$45
	.byte	$00
	.byte	$02
	.byte	$6A
	.byte	$42
	.byte	$55
	.byte	$59
	.byte	$00
	.byte	$54
	.byte	$48
	.byte	$45
	.byte	$00
	.byte	$46
	.byte	$55
	.byte	$4C
	.byte	$4C
	.byte	$00
	.byte	$56
	.byte	$45
	.byte	$52
	.byte	$53
	.byte	$49
	.byte	$4F
	.byte	$4E
	.byte	$00
	.byte	$02
	.byte	$30
	.byte	$4E
	.byte	$45
	.byte	$58
	.byte	$54
	.byte	$00
	.byte	$59
	.byte	$45
	.byte	$41
	.byte	$52
	.byte	$00
	.byte	$02
	.byte	$55
	.byte	$50
	.byte	$52
	.byte	$45
	.byte	$53
	.byte	$45
	.byte	$4E
	.byte	$54
	.byte	$45
	.byte	$44
	.byte	$00
	.byte	$42
	.byte	$59
	.byte	$00
	.byte	$02
	.byte	$33
	.byte	$41
	.byte	$4C
	.byte	$41
	.byte	$4E
	.byte	$00
	.byte	$26
	.byte	$00
	.byte	$42
	.byte	$52
	.byte	$49
	.byte	$41
	.byte	$4E
	.byte	$00
	.byte	$02
	.byte	$07
	.byte	$5E
	.byte	$5F
	.byte	$6F
	.byte	$82
	.byte	$00
	.byte	$02
	.byte	$1A
	.byte	$6C
	.byte	$6D
	.byte	$B1
	.byte	$6D
	.byte	$6D
	.byte	$6F
	.byte	$00
	.byte	$02
	.byte	$17
	.byte	$6B
	.byte	$6D
	.byte	$6D
	.byte	$01
	.byte	$EF
	.byte	$01
	.byte	$EE
	.byte	$6D
	.byte	$6F
	.byte	$00
	.byte	$02
	.byte	$15
	.byte	$6C
	.byte	$6D
	.byte	$01
	.byte	$C1
	.byte	$C0
	.byte	$01
	.byte	$01
	.byte	$C1
	.byte	$01
	.byte	$6D
	.byte	$5F
	.byte	$00
	.byte	$02
	.byte	$09
	.byte	$81
	.byte	$80
	.byte	$82
	.byte	$00
	.byte	$02
	.byte	$06
	.byte	$6C
	.byte	$C3
	.byte	$EF
	.byte	$C3
	.byte	$01
	.byte	$02
	.byte	$04
	.byte	$C0
	.byte	$01
	.byte	$6D
	.byte	$6F
	.byte	$82
	.byte	$02
	.byte	$02
	.byte	$00
	.byte	$02
	.byte	$03
	.byte	$82
	.byte	$6C
	.byte	$6D
	.byte	$EF
	.byte	$6D
	.byte	$5F
	.byte	$00
	.byte	$02
	.byte	$03
	.byte	$81
	.byte	$6C
	.byte	$6D
	.byte	$6D
	.byte	$01
	.byte	$01
	.byte	$B2
	.byte	$01
	.byte	$02
	.byte	$04
	.byte	$C1
	.byte	$EE
	.byte	$EE
	.byte	$ED
	.byte	$EE
	.byte	$ED
	.byte	$5F
	.byte	$82
	.byte	$82
	.byte	$6B
	.byte	$ED
	.byte	$6D
	.byte	$C1
	.byte	$01
	.byte	$01
	.byte	$EF
	.byte	$6F
	.byte	$80
	.byte	$81
	.byte	$5E
	.byte	$ED
	.byte	$6D
	.byte	$01
	.byte	$C1
	.byte	$01
	.byte	$02
	.byte	$09
	.byte	$6D
	.byte	$01
	.byte	$01
	.byte	$EF
	.byte	$02
	.byte	$02
	.byte	$6D
	.byte	$01
	.byte	$02
	.byte	$02
	.byte	$C1
	.byte	$EF
	.byte	$01
	.byte	$C1
	.byte	$01
	.byte	$EF
	.byte	$EF
	.byte	$01
	.byte	$02
	.byte	$0D
	.byte	$C1
	.byte	$01
	.byte	$02
	.byte	$02
	.byte	$C1
	.byte	$01
	.byte	$02
	.byte	$04
	.byte	$C1
	.byte	$01
	.byte	$02
	.byte	$07
	.byte	$C1
	.byte	$01
	.byte	$02
	.byte	$07
	.byte	$AA
	.byte	$AA
	.byte	$0A
	.byte	$0A
	.byte	$AA
	.byte	$AA
	.byte	$8A
	.byte	$AA
	.byte	$2A
	.byte	$00
	.byte	$02
	.byte	$05
	.byte	$8A
	.byte	$00
	.byte	$F0
	.byte	$FE
	.byte	$FF
	.byte	$FF
	.byte	$F5
	.byte	$F1
	.byte	$10
	.byte	$00
	.byte	$C0
	.byte	$F0
	.byte	$02
	.byte	$04
	.byte	$00
	.byte	$00
	.byte	$40
	.byte	$FC
	.byte	$FF
	.byte	$FF
	.byte	$F0
	.byte	$00
	.byte	$00
	.byte	$A0
	.byte	$00
	.byte	$0F
	.byte	$02
	.byte	$02
	.byte	$03
	.byte	$80
	.byte	$A8
	.byte	$AA
	.byte	$A2
	.byte	$A0
	.byte	$A8
	.byte	$A2
	.byte	$A0
	.byte	$AA
	.byte	$AA
	.byte	$0A
	.byte	$02
	.byte	$06
	.byte	$0A
	.byte	$02
	.byte	$00
_palette_victory:
	.byte	$21
	.byte	$0F
	.byte	$00
	.byte	$10
	.byte	$21
	.byte	$21
	.byte	$30
	.byte	$21
	.byte	$21
	.byte	$30
	.byte	$21
	.byte	$30
	.byte	$21
	.byte	$0F
	.byte	$0F
	.byte	$29
L2F8B:
	.byte	$42,$52,$49,$41,$4E,$20,$26,$20,$41,$4C,$41,$4E,$20,$47,$41,$4D
	.byte	$45,$53,$00
L30C7:
	.byte	$50,$52,$45,$53,$53,$20,$53,$54,$41,$52,$54,$00
L2F81:
	.byte	$43,$4F,$52,$47,$53,$20,$44,$45,$4D,$4F,$00
L30BD:
	.byte	$47,$41,$4D,$45,$20,$4F,$56,$45,$52,$00

.segment	"BSS"

.segment	"ZEROPAGE"
_debug:
	.res	1,$00
_pad1:
	.res	1,$00
_pad1_new:
	.res	1,$00
_pad1_state:
	.res	1,$00
_short_jump_count:
	.res	1,$00
_map_loaded:
	.res	1,$00
_collision:
	.res	1,$00
_player_in_air:
	.res	1,$00
_player_is_sliding:
	.res	1,$00
_player_is_running:
	.res	1,$00
_player_on_ladder:
	.res	1,$00
_player_on_ladder_pose:
	.res	1,$00
_player_on_ladder_top:
	.res	1,$00
_player_in_hitstun:
	.res	1,$00
_player_running:
	.res	1,$00
_collision_L:
	.res	1,$00
_collision_R:
	.res	1,$00
_collision_U:
	.res	1,$00
_collision_D:
	.res	1,$00
_coordinates:
	.res	1,$00
_falling_down:
	.res	1,$00
_nametable_to_load:
	.res	1,$00
_temp1:
	.res	1,$00
_temp2:
	.res	1,$00
_temp3:
	.res	1,$00
_temp4:
	.res	1,$00
_multi_jump:
	.res	1,$00
_temp5:
	.res	2,$00
_temp6:
	.res	2,$00
_tempint:
	.res	2,$00
_tempint2:
	.res	2,$00
_temp_playerlocation:
	.res	2,$00
_level:
	.res	1,$00
_offset:
	.res	1,$00
_level_up:
	.res	1,$00
_level_down:
	.res	1,$00
_eject_L:
	.res	1,$00
_eject_R:
	.res	1,$00
_eject_D:
	.res	1,$00
_eject_U:
	.res	1,$00
_hit_direction:
	.res	1,$00
_sprite_frame_counter:
	.res	1,$00
_frame_counter:
	.res	1,$00
_frame_counter2:
	.res	1,$00
_address:
	.res	2,$00
_x:
	.res	1,$00
_y:
	.res	1,$00
_nt:
	.res	1,$00
_index:
	.res	1,$00
_index2:
	.res	1,$00
_map:
	.res	1,$00
_scroll_x:
	.res	2,$00
_scroll_y:
	.res	2,$00
_scroll_count:
	.res	1,$00
_pseudo_scroll_x:
	.res	2,$00
_song:
	.res	1,$00
_game_mode:
	.res	1,$00
_pointer:
	.res	2,$00
_l_scroll_frames:
	.res	1,$00
_r_scroll_frames:
	.res	1,$00
_old_x:
	.res	2,$00
_old_y:
	.res	2,$00
_bright:
	.res	1,$00
_bright_count:
	.res	1,$00
_temp:
	.res	1,$00
_temp_x:
	.res	1,$00
_temp_y:
	.res	1,$00
_temp_room:
	.res	1,$00
_player_shooting:
	.res	1,$00
_death:
	.res	1,$00
_death_flag:
	.res	1,$00
_invul_frames:
	.res	1,$00
_projectile_cooldown:
	.res	1,$00
_projectile_count:
	.res	1,$00
_projectile_index:
	.res	1,$00
.segment	"BSS"
_c_map:
	.res	240,$00
_c_map2:
	.res	240,$00
_Generic:
	.res	4,$00
_Generic2:
	.res	4,$00
_max_rooms:
	.res	1,$00
_max_scroll:
	.res	2,$00
_enemy_x:
	.res	16,$00
_enemy_y:
	.res	16,$00
_enemy_active:
	.res	16,$00
_enemy_mode:
	.res	16,$00
_enemy_health:
	.res	16,$00
_enemy_room:
	.res	16,$00
_enemy_actual_x:
	.res	16,$00
_enemy_type:
	.res	16,$00
_enemy_dir:
	.res	16,$00
_enemy_anim:
	.res	32,$00
_enemy_frames:
	.res	16,$00
_entity_x:
	.res	16,$00
_entity_y:
	.res	16,$00
_entity_active:
	.res	16,$00
_entity_room:
	.res	16,$00
_entity_actual_x:
	.res	16,$00
_entity_type:
	.res	16,$00
_entity_anim:
	.res	32,$00
_entity_frames:
	.res	16,$00

; ---------------------------------------------------------------
; void __near__ load_room (void)
; ---------------------------------------------------------------

.segment	"CODE"

.proc	_load_room: near

.segment	"CODE"

;
; offset = level_offsets[level];
;
	ldy     _level
	lda     _level_offsets,y
	sta     _offset
;
; offset += room_to_load;
;
	lda     _room_to_load
	clc
	adc     _offset
	sta     _offset
;
; set_data_pointer(stage1_levels_list[offset]);
;
	ldx     #$00
	lda     _offset
	asl     a
	bcc     L3F01
	inx
	clc
L3F01:	adc     #<(_stage1_levels_list)
	sta     ptr1
	txa
	adc     #>(_stage1_levels_list)
	sta     ptr1+1
	ldy     #$01
	lda     (ptr1),y
	tax
	dey
	lda     (ptr1),y
	jsr     _set_data_pointer
;
; set_mt_pointer(metatile);
;
	lda     #<(_metatile)
	ldx     #>(_metatile)
	jsr     _set_mt_pointer
;
; for (y = 0;; y += 0x20)
;
	lda     #$00
L3EFD:	sta     _y
;
; for (x = 0;; x += 0x20)
;
	lda     #$00
L3EFC:	sta     _x
;
; address = get_ppu_addr(nametable_to_load, x, y);
;
	jsr     decsp2
	lda     _nametable_to_load
	ldy     #$01
	sta     (sp),y
	lda     _x
	dey
	sta     (sp),y
	lda     _y
	jsr     _get_ppu_addr
	sta     _address
	stx     _address+1
;
; index = (y & 0xf0) + (x >> 4);
;
	lda     _y
	and     #$F0
	sta     ptr1
	lda     _x
	lsr     a
	lsr     a
	lsr     a
	lsr     a
	clc
	adc     ptr1
	sta     _index
;
; buffer_4_mt(address, index); // ppu_address, index to the data
;
	lda     _address
	ldx     _address+1
	jsr     pushax
	lda     _index
	jsr     _buffer_4_mt
;
; flush_vram_update2();
;
	jsr     _flush_vram_update2
;
; if (x == 0xe0)
;
	lda     _x
	cmp     #$E0
;
; break;
;
	beq     L3F04
;
; for (x = 0;; x += 0x20)
;
	lda     #$20
	clc
	adc     _x
	jmp     L3EFC
;
; if (y == 0xe0)
;
L3F04:	lda     _y
	cmp     #$E0
;
; break;
;
	beq     L3375
;
; for (y = 0;; y += 0x20)
;
	lda     #$20
	clc
	adc     _y
	jmp     L3EFD
;
; ppu_off();
;
L3375:	jsr     _ppu_off
;
; set_data_pointer(stage1_levels_list[offset + 1]);
;
	ldx     #$00
	lda     _offset
	clc
	adc     #$01
	bcc     L3399
	inx
L3399:	stx     tmp1
	asl     a
	rol     tmp1
	clc
	adc     #<(_stage1_levels_list)
	sta     ptr1
	lda     tmp1
	adc     #>(_stage1_levels_list)
	sta     ptr1+1
	ldy     #$01
	lda     (ptr1),y
	tax
	dey
	lda     (ptr1),y
	jsr     _set_data_pointer
;
; for (y = 0;; y += 0x20)
;
	lda     #$00
L3EFE:	sta     _y
;
; x = 0;
;
	lda     #$00
	sta     _x
;
; temp1 = (nametable_to_load + 1) % 2;
;
	lda     _nametable_to_load
	clc
	adc     #$01
	and     #$01
	sta     _temp1
;
; address = get_ppu_addr(temp1, x, y);
;
	jsr     decsp2
	lda     _temp1
	ldy     #$01
	sta     (sp),y
	lda     _x
	dey
	sta     (sp),y
	lda     _y
	jsr     _get_ppu_addr
	sta     _address
	stx     _address+1
;
; index = (y & 0xf0);
;
	lda     _y
	and     #$F0
	sta     _index
;
; buffer_4_mt(address, index); // ppu_address, index to the data
;
	lda     _address
	ldx     _address+1
	jsr     pushax
	lda     _index
	jsr     _buffer_4_mt
;
; flush_vram_update2();
;
	jsr     _flush_vram_update2
;
; if (y == 0xe0)
;
	ldx     #$00
	lda     _y
	cmp     #$E0
;
; break;
;
	beq     L3F05
;
; for (y = 0;; y += 0x20)
;
	lda     #$20
	clc
	adc     _y
	jmp     L3EFE
;
; set_data_pointer(stage1_levels_list[offset - 1]);
;
L3F05:	lda     _offset
	sec
	sbc     #$01
	bcs     L33B9
	dex
L33B9:	stx     tmp1
	asl     a
	rol     tmp1
	clc
	adc     #<(_stage1_levels_list)
	sta     ptr1
	lda     tmp1
	adc     #>(_stage1_levels_list)
	sta     ptr1+1
	ldy     #$01
	lda     (ptr1),y
	tax
	dey
	lda     (ptr1),y
	jsr     _set_data_pointer
;
; for (y = 0;; y += 0x20)
;
	lda     #$00
L3EFF:	sta     _y
;
; x = 240;
;
	lda     #$F0
	sta     _x
;
; temp1 = (nametable_to_load + 1) % 2;
;
	lda     _nametable_to_load
	clc
	adc     #$01
	and     #$01
	sta     _temp1
;
; address = get_ppu_addr(temp1, x, y);
;
	jsr     decsp2
	lda     _temp1
	ldy     #$01
	sta     (sp),y
	lda     _x
	dey
	sta     (sp),y
	lda     _y
	jsr     _get_ppu_addr
	sta     _address
	stx     _address+1
;
; index = y + (x >> 4);
;
	lda     _x
	lsr     a
	lsr     a
	lsr     a
	lsr     a
	clc
	adc     _y
	sta     _index
;
; buffer_4_mt(address, index); // ppu_address, index to the data
;
	lda     _address
	ldx     _address+1
	jsr     pushax
	lda     _index
	jsr     _buffer_4_mt
;
; flush_vram_update2();
;
	jsr     _flush_vram_update2
;
; if (y == 0xe0)
;
	lda     _y
	cmp     #$E0
;
; break;
;
	beq     L3F06
;
; for (y = 0;; y += 0x20)
;
	lda     #$20
	clc
	adc     _y
	jmp     L3EFF
;
; map = room_to_load & 1; // even or odd?
;
L3F06:	lda     _room_to_load
	and     #$01
	sta     _map
;
; if (!map)
;
	lda     _map
	bne     L33D8
;
; memcpy(c_map, stage1_levels_list[offset], 240);
;
	lda     #<(_c_map)
	ldx     #>(_c_map)
	jsr     pushax
	ldx     #$00
	lda     _offset
	asl     a
	bcc     L3F02
	inx
	clc
L3F02:	adc     #<(_stage1_levels_list)
	sta     ptr1
	txa
	adc     #>(_stage1_levels_list)
	sta     ptr1+1
	ldy     #$01
	lda     (ptr1),y
	tax
	dey
	lda     (ptr1),y
	jsr     pushax
	ldx     #$00
	lda     #$F0
	jsr     _memcpy
;
; memcpy(c_map2, stage1_levels_list[offset - 1], 240);
;
	lda     #<(_c_map2)
	ldx     #>(_c_map2)
;
; else
;
	jmp     L3F1D
;
; memcpy(c_map2, stage1_levels_list[offset], 240);
;
L33D8:	lda     #<(_c_map2)
	ldx     #>(_c_map2)
	jsr     pushax
	ldx     #$00
	lda     _offset
	asl     a
	bcc     L3F03
	inx
	clc
L3F03:	adc     #<(_stage1_levels_list)
	sta     ptr1
	txa
	adc     #>(_stage1_levels_list)
	sta     ptr1+1
	ldy     #$01
	lda     (ptr1),y
	tax
	dey
	lda     (ptr1),y
	jsr     pushax
	ldx     #$00
	lda     #$F0
	jsr     _memcpy
;
; memcpy(c_map, stage1_levels_list[offset - 1], 240);
;
	lda     #<(_c_map)
	ldx     #>(_c_map)
L3F1D:	jsr     pushax
	ldx     #$00
	lda     _offset
	sec
	sbc     #$01
	bcs     L33EF
	dex
L33EF:	stx     tmp1
	asl     a
	rol     tmp1
	clc
	adc     #<(_stage1_levels_list)
	sta     ptr1
	lda     tmp1
	adc     #>(_stage1_levels_list)
	sta     ptr1+1
	ldy     #$01
	lda     (ptr1),y
	tax
	dey
	lda     (ptr1),y
	jsr     pushax
	ldx     #$00
	lda     #$F0
	jsr     _memcpy
;
; max_rooms = level_max_rooms[level] - 1;
;
	ldy     _level
	lda     _level_max_rooms,y
	sec
	sbc     #$01
	sta     _max_rooms
;
; max_scroll = (max_rooms * 0x100) - 1; // 11 rooms makes 0x0AFF as the max
;
	tax
	lda     #$00
	sec
	sbc     #$01
	bcs     L33F9
	dex
L33F9:	sta     _max_scroll
	stx     _max_scroll+1
;
; sprite_obj_init();
;
	jsr     _sprite_obj_init
;
; entity_obj_init();
;
	jmp     _entity_obj_init

.endproc

; ---------------------------------------------------------------
; void __near__ draw_sprites (void)
; ---------------------------------------------------------------

.segment	"CODE"

.proc	_draw_sprites: near

.segment	"CODE"

;
; oam_clear();
;
	jsr     _oam_clear
;
; draw_player_sprites();
;
	jsr     _draw_player_sprites
;
; for (temp1 = 0; temp1 < MAX_PROJECTILES; ++temp1)
;
	lda     #$00
	sta     _temp1
L3F20:	lda     _temp1
	cmp     #$03
	bcs     L3400
;
; if (projectiles_list[temp1] != TURN_OFF)
;
	ldy     _temp1
	lda     _projectiles_list,y
	cmp     #$FF
	beq     L3F21
;
; temp6 = projectiles_y[temp1]; //+ sine_wave[frame_counter % 10];
;
	ldy     _temp1
	lda     #$00
	sta     _temp6+1
	lda     _projectiles_y,y
	sta     _temp6
;
; oam_meta_spr(projectiles_x[temp1], temp6, animate_orb0_data);
;
	jsr     decsp2
	ldy     _temp1
	lda     _projectiles_x,y
	ldy     #$01
	sta     (sp),y
	lda     _temp6
	dey
	sta     (sp),y
	lda     #<(_animate_orb0_data)
	ldx     #>(_animate_orb0_data)
	jsr     _oam_meta_spr
;
; for (temp1 = 0; temp1 < MAX_PROJECTILES; ++temp1)
;
L3F21:	inc     _temp1
	jmp     L3F20
;
; offset = get_frame_count() & 3;
;
L3400:	jsr     _get_frame_count
	and     #$03
	sta     _offset
;
; offset = offset << 4; // * 16, the size of the shuffle array
;
	asl     a
	asl     a
	asl     a
	asl     a
	sta     _offset
;
; for (index = 0; index < MAX_ENEMY; ++index)
;
	lda     #$00
	sta     _index
L3F22:	lda     _index
	cmp     #$10
	jcs     L341A
;
; index2 = shuffle_array[offset];
;
	ldy     _offset
	lda     _shuffle_array,y
	sta     _index2
;
; ++offset;
;
	inc     _offset
;
; temp_y = enemy_y[index2];
;
	ldy     _index2
	lda     _enemy_y,y
	sta     _temp_y
;
; if (enemy_health[index2] == 0)
;
	ldy     _index2
	lda     _enemy_health,y
;
; continue;
;
	jeq     L3F24
;
; if (temp_y == TURN_OFF)
;
	lda     _temp_y
	cmp     #$FF
;
; continue;
;
	jeq     L3F24
;
; if (!enemy_active[index2])
;
	ldy     _index2
	lda     _enemy_active,y
;
; continue;
;
	beq     L3F24
;
; temp_x = enemy_x[index2];
;
	ldy     _index2
	lda     _enemy_x,y
	sta     _temp_x
;
; if (temp_x == 0)
;
	lda     _temp_x
	bne     L3F23
;
; temp_x = 1; // problems with x = 0
;
	lda     #$01
	sta     _temp_x
;
; if (temp_x > 0xf0)
;
L3F23:	lda     _temp_x
	cmp     #$F1
;
; continue;
;
	bcs     L3F24
;
; if (temp_y < 0xf0)
;
	lda     _temp_y
	cmp     #$F0
	bcs     L3F24
;
; oam_meta_spr(temp_x, temp_y, enemy_anim[index2]);
;
	jsr     decsp2
	lda     _temp_x
	ldy     #$01
	sta     (sp),y
	lda     _temp_y
	dey
	sta     (sp),y
	ldx     #$00
	lda     _index2
	asl     a
	bcc     L3F1F
	inx
	clc
L3F1F:	adc     #<(_enemy_anim)
	sta     ptr1
	txa
	adc     #>(_enemy_anim)
	sta     ptr1+1
	iny
	lda     (ptr1),y
	tax
	dey
	lda     (ptr1),y
	jsr     _oam_meta_spr
;
; if (enemy_type[index2] == ENEMY_BEAR)
;
	ldy     _index2
	lda     _enemy_type,y
	cmp     #$02
	bne     L3F24
;
; temp = enemy_health[index2];
;
	ldy     _index2
	lda     _enemy_health,y
	sta     _temp
;
; draw_health_meter();
;
	jsr     _draw_health_meter
;
; oam_meta_spr(0x28, 0x16, tempint2);
;
	jsr     decsp2
	lda     #$28
	ldy     #$01
	sta     (sp),y
	lda     #$16
	dey
	sta     (sp),y
	lda     _tempint2
	ldx     _tempint2+1
	jsr     _oam_meta_spr
;
; for (index = 0; index < MAX_ENEMY; ++index)
;
L3F24:	inc     _index
	jmp     L3F22
;
; offset = get_frame_count() & 3;
;
L341A:	jsr     _get_frame_count
	and     #$03
	sta     _offset
;
; offset = offset << 4; // * 16, the size of the shuffle array
;
	asl     a
	asl     a
	asl     a
	asl     a
	sta     _offset
;
; for (index = 0; index < MAX_ENTITY; ++index)
;
	lda     #$00
	sta     _index
L3F25:	lda     _index
	cmp     #$10
	bcc     L3F28
;
; }
;
	rts
;
; index2 = shuffle_array[offset];
;
L3F28:	ldy     _offset
	lda     _shuffle_array,y
	sta     _index2
;
; ++offset;
;
	inc     _offset
;
; temp_y = entity_y[index2];
;
	ldy     _index2
	lda     _entity_y,y
	sta     _temp_y
;
; if (temp_y == TURN_OFF)
;
	cmp     #$FF
;
; continue;
;
	jeq     L3F27
;
; if (!entity_active[index2])
;
	ldy     _index2
	lda     _entity_active,y
;
; continue;
;
	jeq     L3F27
;
; temp_x = entity_x[index2];
;
	ldy     _index2
	lda     _entity_x,y
	sta     _temp_x
;
; if (temp_x == 0)
;
	lda     _temp_x
	bne     L3F26
;
; temp_x = 1; // problems with x = 0
;
	lda     #$01
	sta     _temp_x
;
; if (temp_x > 0xf0)
;
L3F26:	lda     _temp_x
	cmp     #$F1
;
; continue;
;
	jcs     L3F27
;
; if (temp_y < 0xf0)
;
	lda     _temp_y
	cmp     #$F0
	jcs     L3F27
;
; ++entity_frames[index2];
;
	lda     #<(_entity_frames)
	ldx     #>(_entity_frames)
	clc
	adc     _index2
	bcc     L347B
	inx
L347B:	sta     ptr1
	stx     ptr1+1
	ldy     #$00
	lda     #$01
	clc
	adc     (ptr1),y
	sta     (ptr1),y
;
; if (entity_type[index2] == ENTITY_STARBURST)
;
	ldy     _index2
	lda     _entity_type,y
	cmp     #$0C
	jne     L347C
;
; if (entity_frames[index2] < 20)
;
	ldy     _index2
	lda     _entity_frames,y
	cmp     #$14
	bcs     L3480
;
; oam_meta_spr(temp_x, temp_y, animate_starburst1_data);
;
	jsr     decsp2
	lda     _temp_x
	ldy     #$01
	sta     (sp),y
	lda     _temp_y
	dey
	sta     (sp),y
	lda     #<(_animate_starburst1_data)
	ldx     #>(_animate_starburst1_data)
	jsr     _oam_meta_spr
;
; else if (entity_frames[index2] < 40)
;
	jmp     L347C
L3480:	ldy     _index2
	lda     _entity_frames,y
	cmp     #$28
	bcs     L3489
;
; oam_meta_spr(temp_x, temp_y, animate_starburst2_data);
;
	jsr     decsp2
	lda     _temp_x
	ldy     #$01
	sta     (sp),y
	lda     _temp_y
	dey
	sta     (sp),y
	lda     #<(_animate_starburst2_data)
	ldx     #>(_animate_starburst2_data)
	jsr     _oam_meta_spr
;
; else if (entity_frames[index2] < 60)
;
	jmp     L347C
L3489:	ldy     _index2
	lda     _entity_frames,y
	cmp     #$3C
	bcs     L3492
;
; oam_meta_spr(temp_x, temp_y, animate_starburst3_data);
;
	jsr     decsp2
	lda     _temp_x
	ldy     #$01
	sta     (sp),y
	lda     _temp_y
	dey
	sta     (sp),y
	lda     #<(_animate_starburst3_data)
	ldx     #>(_animate_starburst3_data)
	jsr     _oam_meta_spr
;
; else if (entity_frames[index2] < 80)
;
	jmp     L347C
L3492:	ldy     _index2
	lda     _entity_frames,y
	cmp     #$50
	bcs     L349B
;
; oam_meta_spr(temp_x, temp_y, animate_starburst2_data);
;
	jsr     decsp2
	lda     _temp_x
	ldy     #$01
	sta     (sp),y
	lda     _temp_y
	dey
	sta     (sp),y
	lda     #<(_animate_starburst2_data)
	ldx     #>(_animate_starburst2_data)
	jsr     _oam_meta_spr
;
; else
;
	jmp     L347C
;
; oam_meta_spr(temp_x, temp_y, animate_starburst1_data);
;
L349B:	jsr     decsp2
	lda     _temp_x
	ldy     #$01
	sta     (sp),y
	lda     _temp_y
	dey
	sta     (sp),y
	lda     #<(_animate_starburst1_data)
	ldx     #>(_animate_starburst1_data)
	jsr     _oam_meta_spr
;
; entity_frames[index2] = 0;
;
	ldy     _index2
	lda     #$00
	sta     _entity_frames,y
;
; if (entity_type[index2] == ENTITY_WINE)
;
L347C:	ldy     _index2
	lda     _entity_type,y
	cmp     #$07
	bne     L34AC
;
; oam_meta_spr(temp_x, temp_y, animate_wine_data);
;
	jsr     decsp2
	lda     _temp_x
	ldy     #$01
	sta     (sp),y
	lda     _temp_y
	dey
	sta     (sp),y
	lda     #<(_animate_wine_data)
	ldx     #>(_animate_wine_data)
	jsr     _oam_meta_spr
;
; if (entity_type[index2] == ENTITY_BREAD)
;
L34AC:	ldy     _index2
	lda     _entity_type,y
	cmp     #$08
	bne     L34B4
;
; if (entity_frames[index2] < 20)
;
	ldy     _index2
	lda     _entity_frames,y
	cmp     #$14
	bcs     L34B8
;
; oam_meta_spr(temp_x, temp_y, animate_bread_data);
;
	jsr     decsp2
	lda     _temp_x
	ldy     #$01
	sta     (sp),y
	lda     _temp_y
	dey
	sta     (sp),y
	lda     #<(_animate_bread_data)
	ldx     #>(_animate_bread_data)
	jsr     _oam_meta_spr
;
; else if (entity_frames[index2] < 40)
;
	jmp     L34B4
L34B8:	ldy     _index2
	lda     _entity_frames,y
	cmp     #$28
	bcs     L34C1
;
; oam_meta_spr(temp_x, temp_y, animate_bread2_data);
;
	jsr     decsp2
	lda     _temp_x
	ldy     #$01
	sta     (sp),y
	lda     _temp_y
	dey
	sta     (sp),y
	lda     #<(_animate_bread2_data)
	ldx     #>(_animate_bread2_data)
	jsr     _oam_meta_spr
;
; else
;
	jmp     L34B4
;
; oam_meta_spr(temp_x, temp_y, animate_bread_data);
;
L34C1:	jsr     decsp2
	lda     _temp_x
	ldy     #$01
	sta     (sp),y
	lda     _temp_y
	dey
	sta     (sp),y
	lda     #<(_animate_bread_data)
	ldx     #>(_animate_bread_data)
	jsr     _oam_meta_spr
;
; entity_frames[index2] = 0;
;
	ldy     _index2
	lda     #$00
	sta     _entity_frames,y
;
; if (entity_type[index2] == ENTITY_ROCK){
;
L34B4:	ldy     _index2
	lda     _entity_type,y
	cmp     #$0B
	bne     L34D2
;
; oam_meta_spr(temp_x, temp_y, animate_bouldersmall_data);
;
	jsr     decsp2
	lda     _temp_x
	ldy     #$01
	sta     (sp),y
	lda     _temp_y
	dey
	sta     (sp),y
	lda     #<(_animate_bouldersmall_data)
	ldx     #>(_animate_bouldersmall_data)
	jsr     _oam_meta_spr
;
; if (entity_type[index2] == ENTITY_FRUIT)
;
L34D2:	ldy     _index2
	lda     _entity_type,y
	cmp     #$0A
	jne     L34DA
;
; if (entity_frames[index2] < 20)
;
	ldy     _index2
	lda     _entity_frames,y
	cmp     #$14
	bcs     L34DE
;
; oam_meta_spr(temp_x, temp_y, animate_starburst1_data);
;
	jsr     decsp2
	lda     _temp_x
	ldy     #$01
	sta     (sp),y
	lda     _temp_y
	dey
	sta     (sp),y
	lda     #<(_animate_starburst1_data)
	ldx     #>(_animate_starburst1_data)
	jsr     _oam_meta_spr
;
; else if (entity_frames[index2] < 40)
;
	jmp     L34DA
L34DE:	ldy     _index2
	lda     _entity_frames,y
	cmp     #$28
	bcs     L34E7
;
; oam_meta_spr(temp_x, temp_y, animate_starburst2_data);
;
	jsr     decsp2
	lda     _temp_x
	ldy     #$01
	sta     (sp),y
	lda     _temp_y
	dey
	sta     (sp),y
	lda     #<(_animate_starburst2_data)
	ldx     #>(_animate_starburst2_data)
	jsr     _oam_meta_spr
;
; else if (entity_frames[index2] < 60)
;
	jmp     L34DA
L34E7:	ldy     _index2
	lda     _entity_frames,y
	cmp     #$3C
	bcs     L34F0
;
; oam_meta_spr(temp_x, temp_y, animate_starburst3_data);
;
	jsr     decsp2
	lda     _temp_x
	ldy     #$01
	sta     (sp),y
	lda     _temp_y
	dey
	sta     (sp),y
	lda     #<(_animate_starburst3_data)
	ldx     #>(_animate_starburst3_data)
	jsr     _oam_meta_spr
;
; else if (entity_frames[index2] < 80)
;
	jmp     L34DA
L34F0:	ldy     _index2
	lda     _entity_frames,y
	cmp     #$50
	bcs     L34F9
;
; oam_meta_spr(temp_x, temp_y, animate_starburst2_data);
;
	jsr     decsp2
	lda     _temp_x
	ldy     #$01
	sta     (sp),y
	lda     _temp_y
	dey
	sta     (sp),y
	lda     #<(_animate_starburst2_data)
	ldx     #>(_animate_starburst2_data)
	jsr     _oam_meta_spr
;
; else
;
	jmp     L34DA
;
; oam_meta_spr(temp_x, temp_y, animate_starburst1_data);
;
L34F9:	jsr     decsp2
	lda     _temp_x
	ldy     #$01
	sta     (sp),y
	lda     _temp_y
	dey
	sta     (sp),y
	lda     #<(_animate_starburst1_data)
	ldx     #>(_animate_starburst1_data)
	jsr     _oam_meta_spr
;
; entity_frames[index2] = 0;
;
	ldy     _index2
	lda     #$00
	sta     _entity_frames,y
;
; if (entity_type[index2] == ENTITY_BUN)
;
L34DA:	ldy     _index2
	lda     _entity_type,y
	cmp     #$09
	bne     L3F27
;
; if (entity_frames[index2] < 20)
;
	ldy     _index2
	lda     _entity_frames,y
	cmp     #$14
	bcs     L350E
;
; oam_meta_spr(temp_x, temp_y, animate_bun_data);
;
	jsr     decsp2
	lda     _temp_x
	ldy     #$01
	sta     (sp),y
	lda     _temp_y
	dey
	sta     (sp),y
	lda     #<(_animate_bun_data)
	ldx     #>(_animate_bun_data)
	jsr     _oam_meta_spr
;
; else if (entity_frames[index2] < 40)
;
	jmp     L3F27
L350E:	ldy     _index2
	lda     _entity_frames,y
	cmp     #$28
	bcs     L3517
;
; oam_meta_spr(temp_x, temp_y, animate_bun2_data);
;
	jsr     decsp2
	lda     _temp_x
	ldy     #$01
	sta     (sp),y
	lda     _temp_y
	dey
	sta     (sp),y
	lda     #<(_animate_bun2_data)
	ldx     #>(_animate_bun2_data)
	jsr     _oam_meta_spr
;
; else
;
	jmp     L3F27
;
; oam_meta_spr(temp_x, temp_y, animate_bun_data);
;
L3517:	jsr     decsp2
	lda     _temp_x
	ldy     #$01
	sta     (sp),y
	lda     _temp_y
	dey
	sta     (sp),y
	lda     #<(_animate_bun_data)
	ldx     #>(_animate_bun_data)
	jsr     _oam_meta_spr
;
; entity_frames[index2] = 0;
;
	ldy     _index2
	lda     #$00
	sta     _entity_frames,y
;
; for (index = 0; index < MAX_ENTITY; ++index)
;
L3F27:	inc     _index
	jmp     L3F25

.endproc

; ---------------------------------------------------------------
; void __near__ movement (void)
; ---------------------------------------------------------------

.segment	"CODE"

.proc	_movement: near

.segment	"CODE"

;
; if (death_flag > 0)
;
	lda     _death_flag
	beq     L3F35
;
; --death_flag;
;
	dec     _death_flag
;
; if (invul_frames > 0)
;
L3F35:	lda     _invul_frames
	beq     L352C
;
; --invul_frames;
;
	dec     _invul_frames
;
; if (player_in_hitstun)
;
L352C:	lda     _player_in_hitstun
	beq     L3F36
;
; --player_in_hitstun;
;
	dec     _player_in_hitstun
;
; if (player_in_hitstun > 0)
;
L3F36:	lda     _player_in_hitstun
	beq     L3542
;
; if (hit_direction == RIGHT)
;
	lda     _hit_direction
	cmp     #$01
	bne     L3534
;
; BoxGuy1.vel_x += HITSTUN_DECEL;
;
	lda     #$2D
	clc
	adc     _BoxGuy1+4
	sta     _BoxGuy1+4
	bcc     L3538
	inc     _BoxGuy1+4+1
;
; if (BoxGuy1.vel_x >= MAX_SPEED)
;
L3538:	lda     _BoxGuy1+4
	cmp     #$60
	lda     _BoxGuy1+4+1
	sbc     #$01
	bvs     L353B
	eor     #$80
L353B:	bpl     L3542
;
; BoxGuy1.vel_x = MAX_SPEED;
;
	ldx     #$01
	lda     #$60
;
; else
;
	jmp     L3F71
;
; BoxGuy1.vel_x -= HITSTUN_DECEL;
;
L3534:	lda     _BoxGuy1+4
	sec
	sbc     #$2D
	sta     _BoxGuy1+4
	bcs     L3541
	dec     _BoxGuy1+4+1
;
; if (BoxGuy1.vel_x < -MAX_SPEED)
;
L3541:	lda     _BoxGuy1+4
	cmp     #$A0
	lda     _BoxGuy1+4+1
	sbc     #$FE
	bvc     L3544
	eor     #$80
L3544:	bpl     L3542
;
; BoxGuy1.vel_x = -MAX_SPEED;
;
	ldx     #$FE
	lda     #$A0
L3F71:	sta     _BoxGuy1+4
	stx     _BoxGuy1+4+1
;
; old_x = BoxGuy1.x;
;
L3542:	lda     _BoxGuy1+1
	sta     _old_x+1
	lda     _BoxGuy1
	sta     _old_x
;
; if (pad1 & PAD_LEFT && !player_in_hitstun  && !player_is_sliding)
;
	lda     _pad1
	and     #$02
	beq     L3F3A
	lda     _player_in_hitstun
	bne     L3F3A
	lda     _player_is_sliding
	bne     L3F3A
;
; direction = LEFT;
;
	sta     _direction
;
; player_is_running = 1;
;
	lda     #$01
	sta     _player_is_running
;
; if (!player_on_ladder)
;
	lda     _player_on_ladder
	jne     L3F42
;
; if (BoxGuy1.vel_x >= DECEL)
;
	lda     _BoxGuy1+4
	cmp     #$32
	lda     _BoxGuy1+4+1
	sbc     #$00
	bvs     L3555
	eor     #$80
L3555:	bpl     L3553
;
; BoxGuy1.vel_x -= DECEL;
;
	lda     _BoxGuy1+4
	sec
	sbc     #$32
	sta     _BoxGuy1+4
	jcs     L3F42
	dec     _BoxGuy1+4+1
;
; else if (BoxGuy1.vel_x > 0)
;
	jmp     L3F42
L3553:	lda     _BoxGuy1+4
	cmp     #$01
	lda     _BoxGuy1+4+1
	sbc     #$00
	bvs     L355C
	eor     #$80
L355C:	bpl     L355A
;
; BoxGuy1.vel_x = 0;
;
	ldx     #$00
	txa
;
; else
;
	jmp     L3F41
;
; BoxGuy1.vel_x -= ACCEL;
;
L355A:	lda     _BoxGuy1+4
	sec
	sbc     #$1E
	sta     _BoxGuy1+4
	bcs     L3562
	dec     _BoxGuy1+4+1
;
; if (BoxGuy1.vel_x < -MAX_SPEED)
;
L3562:	lda     _BoxGuy1+4
	cmp     #$A0
	lda     _BoxGuy1+4+1
	sbc     #$FE
	bvc     L3565
	eor     #$80
L3565:	jpl     L3F42
;
; BoxGuy1.vel_x = -MAX_SPEED;
;
	ldx     #$FE
	lda     #$A0
;
; else if (pad1 & PAD_RIGHT && !player_in_hitstun && !player_is_sliding)
;
	jmp     L3F41
L3F3A:	lda     _pad1
	and     #$01
	beq     L3F3F
	lda     _player_in_hitstun
	bne     L3F3B
	lda     _player_is_sliding
	beq     L3F3D
L3F3B:	lda     #$00
	jmp     L3F3F
;
; direction = RIGHT;
;
L3F3D:	lda     #$01
	sta     _direction
;
; player_is_running = 1;
;
	sta     _player_is_running
;
; if (!player_on_ladder)
;
	lda     _player_on_ladder
	jne     L3F42
;
; if (BoxGuy1.vel_x <= DECEL)
;
	lda     _BoxGuy1+4
	cmp     #$33
	lda     _BoxGuy1+4+1
	sbc     #$00
	bvc     L3575
	eor     #$80
L3575:	bpl     L3573
;
; BoxGuy1.vel_x += DECEL;
;
	lda     #$32
	clc
	adc     _BoxGuy1+4
	sta     _BoxGuy1+4
	jcc     L3F42
	inc     _BoxGuy1+4+1
;
; else if (BoxGuy1.vel_x < 0)
;
	jmp     L3F42
L3573:	ldx     _BoxGuy1+4+1
	cpx     #$80
	bcc     L357A
;
; BoxGuy1.vel_x = 0;
;
	ldx     #$00
	txa
;
; else
;
	jmp     L3F41
;
; BoxGuy1.vel_x += ACCEL;
;
L357A:	lda     #$1E
	clc
	adc     _BoxGuy1+4
	sta     _BoxGuy1+4
	bcc     L3581
	inc     _BoxGuy1+4+1
;
; if (BoxGuy1.vel_x >= MAX_SPEED)
;
L3581:	lda     _BoxGuy1+4
	cmp     #$60
	lda     _BoxGuy1+4+1
	sbc     #$01
	bvs     L3584
	eor     #$80
L3584:	bpl     L3F42
;
; BoxGuy1.vel_x = MAX_SPEED;
;
	ldx     #$01
	lda     #$60
;
; else
;
	jmp     L3F41
;
; player_is_running = 0;
;
L3F3F:	sta     _player_is_running
;
; if (BoxGuy1.vel_x >= ACCEL)
;
	lda     _BoxGuy1+4
	cmp     #$1E
	lda     _BoxGuy1+4+1
	sbc     #$00
	bvs     L358C
	eor     #$80
L358C:	bpl     L358A
;
; BoxGuy1.vel_x -= ACCEL;
;
	lda     _BoxGuy1+4
	sec
	sbc     #$1E
	sta     _BoxGuy1+4
	bcs     L3F42
	dec     _BoxGuy1+4+1
;
; else if (BoxGuy1.vel_x < -ACCEL)
;
	jmp     L3F42
L358A:	lda     _BoxGuy1+4
	cmp     #$E2
	lda     _BoxGuy1+4+1
	sbc     #$FF
	bvc     L3593
	eor     #$80
L3593:	asl     a
	lda     #$00
	tax
	bcc     L3F41
;
; BoxGuy1.vel_x += ACCEL;
;
	lda     #$1E
	clc
	adc     _BoxGuy1+4
	sta     _BoxGuy1+4
	bcc     L3F42
	inc     _BoxGuy1+4+1
;
; else
;
	jmp     L3F42
;
; BoxGuy1.vel_x = 0;
;
L3F41:	sta     _BoxGuy1+4
	stx     _BoxGuy1+4+1
;
; if(player_is_sliding > 0){
;
L3F42:	lda     _player_is_sliding
	beq     L35A1
;
; --player_is_sliding;
;
	dec     _player_is_sliding
;
; if(direction == LEFT){
;
	lda     _direction
	bne     L359D
;
; BoxGuy1.vel_x = -MAX_SLIDE_SPEED;
;
	ldx     #$FE
;
; } else {
;
	jmp     L3F77
;
; BoxGuy1.vel_x = MAX_SLIDE_SPEED;
;
L359D:	ldx     #$01
L3F77:	lda     #$80
	sta     _BoxGuy1+4
	stx     _BoxGuy1+4+1
;
; BoxGuy1.x += BoxGuy1.vel_x;
;
L35A1:	lda     _BoxGuy1+4
	clc
	adc     _BoxGuy1
	sta     _BoxGuy1
	lda     _BoxGuy1+4+1
	adc     _BoxGuy1+1
	sta     _BoxGuy1+1
;
; if (BoxGuy1.x > 0xf000)
;
	lda     _BoxGuy1
	cmp     #$01
	lda     _BoxGuy1+1
	sbc     #$F0
	bcc     L3F45
;
; if (old_x >= 0x8000)
;
	lda     _old_x
	cmp     #$00
	lda     _old_x+1
	sbc     #$80
	lda     #$00
	tax
	bcc     L3F44
;
; BoxGuy1.x = 0xf000; // max right
;
	ldx     #$F0
;
; BoxGuy1.x = 0x0000; // max left
;
L3F44:	sta     _BoxGuy1
	stx     _BoxGuy1+1
;
; BoxGuy1.vel_x = 0;
;
	sta     _BoxGuy1+4
	sta     _BoxGuy1+4+1
;
; Generic.x = high_byte(BoxGuy1.x); // this is much faster than passing a pointer to BoxGuy1
;
L3F45:	lda     _BoxGuy1+1
	sta     _Generic
;
; Generic.y = high_byte(BoxGuy1.y);
;
	lda     _BoxGuy1+3
	sta     _Generic+1
;
; Generic.width = HERO_WIDTH;
;
	lda     #$0E
	sta     _Generic+2
;
; Generic.height = HERO_HEIGHT;
;
	sta     _Generic+3
;
; if (BoxGuy1.vel_x < 0)
;
	ldx     _BoxGuy1+4+1
	cpx     #$80
	bcc     L35BC
;
; if (bg_coll_L())
;
	jsr     _bg_coll_L
	tax
	beq     L35D6
;
; high_byte(BoxGuy1.x) = high_byte(BoxGuy1.x) - eject_L;
;
	lda     _BoxGuy1+1
	sec
	sbc     _eject_L
	sta     _BoxGuy1+1
;
; BoxGuy1.vel_x = 0;
;
	lda     #$00
	sta     _BoxGuy1+4
	sta     _BoxGuy1+4+1
;
; if (BoxGuy1.x > 0xf000)
;
	lda     _BoxGuy1
	cmp     #$01
	lda     _BoxGuy1+1
	sbc     #$F0
	bcc     L35D6
;
; BoxGuy1.x = 0xf000;
;
	ldx     #$F0
;
; else if (BoxGuy1.vel_x > 0)
;
	jmp     L3F78
L35BC:	lda     _BoxGuy1+4
	cmp     #$01
	lda     _BoxGuy1+4+1
	sbc     #$00
	bvs     L35CD
	eor     #$80
L35CD:	bpl     L35D6
;
; if (bg_coll_R())
;
	jsr     _bg_coll_R
	tax
	beq     L35D6
;
; high_byte(BoxGuy1.x) = high_byte(BoxGuy1.x) - eject_R;
;
	lda     _BoxGuy1+1
	sec
	sbc     _eject_R
	sta     _BoxGuy1+1
;
; BoxGuy1.vel_x = 0;
;
	lda     #$00
	sta     _BoxGuy1+4
	sta     _BoxGuy1+4+1
;
; if (BoxGuy1.x > 0xf000)
;
	lda     _BoxGuy1
	cmp     #$01
	lda     _BoxGuy1+1
	sbc     #$F0
	bcc     L35D6
;
; BoxGuy1.x = 0x0000;
;
	ldx     #$00
L3F78:	lda     #$00
	sta     _BoxGuy1
	stx     _BoxGuy1+1
;
; if (player_on_ladder && (bg_coll_ladder() || bg_coll_ladder_top_under_player()))
;
L35D6:	lda     _player_on_ladder
	jeq     L35DA
	jsr     _bg_coll_ladder
	tax
	bne     L3F4A
	jsr     _bg_coll_ladder_top_under_player
	tax
	jeq     L35DA
;
; if (pad1 & PAD_DOWN)
;
L3F4A:	lda     _pad1
	and     #$04
	beq     L3F4D
;
; direction_y = DOWN;
;
	lda     #$04
	sta     _direction_y
;
; ++player_on_ladder_pose;
;
	inc     _player_on_ladder_pose
;
; BoxGuy1.vel_y += LADDER_ACCEL;
;
	lda     #$14
	clc
	adc     _BoxGuy1+6
	sta     _BoxGuy1+6
	bcc     L35E7
	inc     _BoxGuy1+6+1
;
; if (BoxGuy1.vel_y > MAX_LADDER_SPEED)
;
L35E7:	lda     _BoxGuy1+6
	cmp     #$01
	lda     _BoxGuy1+6+1
	sbc     #$01
	bvs     L35EA
	eor     #$80
L35EA:	asl     a
	lda     #$00
	bcc     L3F4C
;
; BoxGuy1.vel_y = MAX_LADDER_SPEED;
;
	ldx     #$01
	sta     _BoxGuy1+6
	stx     _BoxGuy1+6+1
;
; player_on_ladder_top = 0;
;
L3F4C:	sta     _player_on_ladder_top
;
; else if (pad1 & PAD_UP)
;
	jmp     L3F52
L3F4D:	lda     _pad1
	and     #$08
	beq     L3F4F
;
; direction_y = UP;
;
	lda     #$03
	sta     _direction_y
;
; ++player_on_ladder_pose;
;
	inc     _player_on_ladder_pose
;
; BoxGuy1.vel_y -= LADDER_ACCEL;
;
	lda     _BoxGuy1+6
	sec
	sbc     #$14
	sta     _BoxGuy1+6
	bcs     L35F7
	dec     _BoxGuy1+6+1
;
; if (BoxGuy1.vel_y < -MAX_LADDER_SPEED)
;
L35F7:	lda     _BoxGuy1+6
	cmp     #$00
	lda     _BoxGuy1+6+1
	sbc     #$FF
	bvc     L35FA
	eor     #$80
L35FA:	bpl     L35F8
;
; BoxGuy1.vel_y = -MAX_LADDER_SPEED;
;
	ldx     #$FF
	lda     #$00
	sta     _BoxGuy1+6
	stx     _BoxGuy1+6+1
;
; if (bg_coll_ladder_top_under_player())
;
L35F8:	jsr     _bg_coll_ladder_top_under_player
	tax
	beq     L3F52
;
; ++player_on_ladder_top;
;
	inc     _player_on_ladder_top
;
; if (player_on_ladder_top > 10)
;
	lda     _player_on_ladder_top
	cmp     #$0B
	bcc     L3F52
;
; if (BoxGuy1.vel_y = -MAX_LADDER_SPEED)
;
	lda     #$00
	sta     _BoxGuy1+6
;
; BoxGuy1.y -= 0x200;
;
	lda     _BoxGuy1+2
	sec
	sbc     #$00
	sta     _BoxGuy1+2
	lda     _BoxGuy1+2+1
	sbc     #$02
;
; BoxGuy1.y -= 0x800;
;
	sta     _BoxGuy1+2+1
;
; player_on_ladder_top = 0;
;
	lda     #$00
	sta     _player_on_ladder_top
;
; player_on_ladder = 0;
;
	sta     _player_on_ladder
;
; else
;
	jmp     L3F52
;
; BoxGuy1.vel_y = 0;
;
L3F4F:	sta     _BoxGuy1+6
	sta     _BoxGuy1+6+1
;
; else
;
	jmp     L3F52
;
; if (player_on_ladder && bg_coll_ladder_top_under_player())
;
L35DA:	lda     _player_on_ladder
	beq     L3612
	jsr     _bg_coll_ladder_top_under_player
	tax
	beq     L3612
;
; player_on_ladder = 0;
;
	lda     #$00
	sta     _player_on_ladder
;
; if (BoxGuy1.vel_y < 0x300)
;
L3612:	lda     _BoxGuy1+6
	cmp     #$00
	lda     _BoxGuy1+6+1
	sbc     #$03
	bvc     L361A
	eor     #$80
L361A:	bpl     L3618
;
; BoxGuy1.vel_y += GRAVITY;
;
	lda     #$3C
	clc
	adc     _BoxGuy1+6
	sta     _BoxGuy1+6
	bcc     L3F52
	inc     _BoxGuy1+6+1
;
; else
;
	jmp     L3F52
;
; BoxGuy1.vel_y = 0x300; // consistent
;
L3618:	ldx     #$03
	lda     #$00
	sta     _BoxGuy1+6
	stx     _BoxGuy1+6+1
;
; if (pad1 & PAD_DOWN)
;
L3F52:	lda     _pad1
	and     #$04
	beq     L3625
;
; direction_y = DOWN;
;
	lda     #$04
	sta     _direction_y
;
; if (bg_coll_ladder_top_under_player())
;
	jsr     _bg_coll_ladder_top_under_player
	tax
	beq     L3625
;
; BoxGuy1.x = (BoxGuy1.x + 0x700) & ~0xF00; // tried to square the player to the ladder
;
	lda     _BoxGuy1
	sta     _BoxGuy1
	lda     _BoxGuy1+1
	clc
	adc     #$07
	and     #$F0
	sta     _BoxGuy1+1
;
; player_on_ladder = 1;
;
	lda     #$01
	sta     _player_on_ladder
;
; player_on_ladder_pose = 0;
;
	lda     #$00
	sta     _player_on_ladder_pose
;
; player_in_air = 0;
;
	sta     _player_in_air
;
; falling_down = 0;
;
	sta     _falling_down
;
; BoxGuy1.vel_y = 0;
;
	sta     _BoxGuy1+6
	sta     _BoxGuy1+6+1
;
; BoxGuy1.vel_x = 0;
;
	sta     _BoxGuy1+4
	sta     _BoxGuy1+4+1
;
; BoxGuy1.y += 0x100;
;
	clc
	adc     _BoxGuy1+2
	sta     _BoxGuy1+2
	lda     #$01
	adc     _BoxGuy1+2+1
	sta     _BoxGuy1+2+1
;
; BoxGuy1.y += BoxGuy1.vel_y; // add gravity to y; (make him go up or down)
;
L3625:	lda     _BoxGuy1+6
	clc
	adc     _BoxGuy1+2
	sta     _BoxGuy1+2
	lda     _BoxGuy1+6+1
	adc     _BoxGuy1+2+1
	sta     _BoxGuy1+2+1
;
; if (BoxGuy1.y > 0xf000)   // limit how high he can go
;
	lda     _BoxGuy1+2
	cmp     #$01
	lda     _BoxGuy1+2+1
	sbc     #$F0
	bcc     L3F53
;
; BoxGuy1.y = 0x0000;
;
	lda     #$00
	sta     _BoxGuy1+2
	sta     _BoxGuy1+2+1
;
; Generic.x = high_byte(BoxGuy1.x);
;
L3F53:	lda     _BoxGuy1+1
	sta     _Generic
;
; Generic.y = high_byte(BoxGuy1.y);
;
	lda     _BoxGuy1+3
	sta     _Generic+1
;
; if (BoxGuy1.vel_y > 0) // he's falling
;
	lda     _BoxGuy1+6
	cmp     #$01
	lda     _BoxGuy1+6+1
	sbc     #$00
	bvs     L3646
	eor     #$80
L3646:	bpl     L3644
;
; ++falling_down;
;
	inc     _falling_down
;
; if (falling_down > 2 && !player_on_ladder)
;
	lda     _falling_down
	cmp     #$03
	bcc     L3648
	lda     _player_on_ladder
	bne     L3648
;
; player_in_air = 1;
;
	lda     #$01
	sta     _player_in_air
;
; if (bg_coll_D()) // if he's collising below
;
L3648:	jsr     _bg_coll_D
	tax
	beq     L3F57
;
; player_in_air = 0;
;
	lda     #$00
	sta     _player_in_air
;
; falling_down = 0;
;
	sta     _falling_down
;
; multi_jump = 0;
;
	sta     _multi_jump
;
; player_on_ladder = 0;
;
	sta     _player_on_ladder
;
; high_byte(BoxGuy1.y) = high_byte(BoxGuy1.y) - eject_D;
;
	lda     _BoxGuy1+3
	sec
	sbc     _eject_D
	sta     _BoxGuy1+3
;
; BoxGuy1.y &= 0xff00;
;
	ldx     _BoxGuy1+2+1
	lda     #$00
	sta     _BoxGuy1+2
	stx     _BoxGuy1+2+1
;
; if (BoxGuy1.vel_y > 0)
;
	lda     _BoxGuy1+6
	cmp     #$01
	lda     _BoxGuy1+6+1
	sbc     #$00
	bvs     L3660
	eor     #$80
L3660:	bpl     L3F57
;
; else if (BoxGuy1.vel_y < 0)
;
	jmp     L3F79
L3644:	ldx     _BoxGuy1+6+1
	cpx     #$80
	bcc     L3F57
;
; if (bg_coll_U())
;
	jsr     _bg_coll_U
	tax
	beq     L3F57
;
; high_byte(BoxGuy1.y) = high_byte(BoxGuy1.y) - eject_U;
;
	lda     _BoxGuy1+3
	sec
	sbc     _eject_U
	sta     _BoxGuy1+3
;
; BoxGuy1.vel_y = 0;
;
L3F79:	lda     #$00
	sta     _BoxGuy1+6
	sta     _BoxGuy1+6+1
;
; Generic.y = high_byte(BoxGuy1.y); // the rest should be the same
;
L3F57:	lda     _BoxGuy1+3
	sta     _Generic+1
;
; if (projectile_cooldown > 0)
;
	lda     _projectile_cooldown
	beq     L3F58
;
; --projectile_cooldown;
;
	dec     _projectile_cooldown
;
; if (pad1_new & PAD_UP || pad1_state & PAD_UP) // on trigger or hold
;
L3F58:	lda     _pad1_new
	and     #$08
	bne     L3F59
	lda     _pad1_state
	and     #$08
	beq     L3F5B
;
; direction_y = UP;
;
L3F59:	lda     #$03
	sta     _direction_y
;
; if (!player_on_ladder && bg_coll_ladder())
;
	lda     _player_on_ladder
	bne     L3F5B
	jsr     _bg_coll_ladder
	tax
	beq     L3F5B
;
; BoxGuy1.x = (BoxGuy1.x + 0x700) & ~0xF00;
;
	lda     _BoxGuy1
	sta     _BoxGuy1
	lda     _BoxGuy1+1
	clc
	adc     #$07
	and     #$F0
	sta     _BoxGuy1+1
;
; player_on_ladder_pose = 0;
;
	lda     #$00
	sta     _player_on_ladder_pose
;
; player_on_ladder = 1;
;
	lda     #$01
	sta     _player_on_ladder
;
; player_in_air = 0;
;
	lda     #$00
	sta     _player_in_air
;
; falling_down = 0;
;
	sta     _falling_down
;
; BoxGuy1.vel_y = 0;
;
	sta     _BoxGuy1+6
	sta     _BoxGuy1+6+1
;
; BoxGuy1.vel_x = 0;
;
	sta     _BoxGuy1+4
	sta     _BoxGuy1+4+1
;
; if(pad1_state & PAD_DOWN && pad1_new & PAD_A && !player_on_ladder){
;
L3F5B:	lda     _pad1_state
	and     #$04
	beq     L3F5F
	lda     _pad1_new
	and     #$80
	beq     L3F5F
	lda     _player_on_ladder
	bne     L3F5F
;
; player_is_sliding = 25;
;
	lda     #$19
	sta     _player_is_sliding
;
; } else if (pad1_new & PAD_A && !player_in_hitstun && !player_is_sliding)
;
	jmp     L3F64
L3F5F:	lda     _pad1_new
	and     #$80
	beq     L3F64
	lda     _player_in_hitstun
	bne     L3F64
	lda     _player_is_sliding
	bne     L3F64
;
; if (player_on_ladder)
;
	lda     _player_on_ladder
	beq     L3697
;
; player_on_ladder = 0;
;
	lda     #$00
	sta     _player_on_ladder
;
; player_in_air = 1;
;
	lda     #$01
;
; else if (bg_coll_D2() || multi_jump < 2)
;
	jmp     L3F33
L3697:	jsr     _bg_coll_D2
	tax
	bne     L3F63
	lda     _multi_jump
	cmp     #$02
	bcs     L3F64
;
; ++multi_jump;
;
L3F63:	inc     _multi_jump
;
; BoxGuy1.vel_y = JUMP_VEL; // JUMP
;
	ldx     #$FA
	lda     #$F0
	sta     _BoxGuy1+6
	stx     _BoxGuy1+6+1
;
; sfx_play(SFX_JUMP, 0);
;
	lda     #$05
	jsr     pusha
	lda     #$00
	jsr     _sfx_play
;
; short_jump_count = 1;
;
	lda     #$01
	sta     _short_jump_count
;
; player_in_air = 1;
;
L3F33:	sta     _player_in_air
;
; if (pad1_new & PAD_B && projectile_cooldown == 0 && !player_in_hitstun && !player_is_sliding) // shooting
;
L3F64:	lda     _pad1_new
	and     #$40
	jeq     L36BD
	lda     _projectile_cooldown
	jne     L36BD
	lda     _player_in_hitstun
	bne     L36BD
	lda     _player_is_sliding
	bne     L36BD
;
; for (temp1 = 0; temp1 < MAX_PROJECTILES; ++temp1)
;
	sta     _temp1
L3F68:	lda     _temp1
	cmp     #$03
	bcs     L36B0
;
; if (projectiles_list[temp1] == TURN_OFF)
;
	ldy     _temp1
	lda     _projectiles_list,y
	cmp     #$FF
	bne     L3F69
;
; temp2 = 1;
;
	lda     #$01
	sta     _temp2
;
; break;
;
	jmp     L36B0
;
; for (temp1 = 0; temp1 < MAX_PROJECTILES; ++temp1)
;
L3F69:	inc     _temp1
	jmp     L3F68
;
; if (temp2)
;
L36B0:	lda     _temp2
	beq     L36BD
;
; projectile_cooldown = PROJECTILE_COOLDOWN_FRAMES;
;
	lda     #$0A
	sta     _projectile_cooldown
;
; player_shooting = 10;
;
	sta     _player_shooting
;
; projectile_index = temp1;
;
	lda     _temp1
	sta     _projectile_index
;
; if (direction == RIGHT)
;
	lda     _direction
	cmp     #$01
	bne     L36C5
;
; projectiles_list[projectile_index] = RIGHT;
;
	ldy     _projectile_index
;
; else
;
	jmp     L3F34
;
; projectiles_list[projectile_index] = LEFT;
;
L36C5:	ldy     _projectile_index
	lda     #$00
L3F34:	sta     _projectiles_list,y
;
; projectiles_x[projectile_index] = high_byte(BoxGuy1.x) + 10;
;
	lda     #<(_projectiles_x)
	ldx     #>(_projectiles_x)
	clc
	adc     _projectile_index
	bcc     L36D2
	inx
L36D2:	sta     ptr1
	stx     ptr1+1
	lda     _BoxGuy1+1
	clc
	adc     #$0A
	ldy     #$00
	sta     (ptr1),y
;
; projectiles_y[projectile_index] = high_byte(BoxGuy1.y);
;
	ldy     _projectile_index
	lda     _BoxGuy1+3
	sta     _projectiles_y,y
;
; sfx_play(SFX_SHOOT, 0);
;
	lda     #$00
	jsr     pusha
	jsr     _sfx_play
;
; if (short_jump_count)
;
L36BD:	lda     _short_jump_count
	beq     L36E2
;
; ++short_jump_count;
;
	inc     _short_jump_count
;
; if (short_jump_count > 30)
;
	lda     _short_jump_count
	cmp     #$1F
	bcc     L36E2
;
; short_jump_count = 0;
;
	lda     #$00
	sta     _short_jump_count
;
; if ((short_jump_count) && ((pad1 & PAD_A) == 0) && (BoxGuy1.vel_y < -0x200))
;
L36E2:	lda     _short_jump_count
	beq     L3F76
	lda     _pad1
	ldx     #$00
	and     #$80
	bne     L3F6C
	lda     _BoxGuy1+6
	cmp     #$00
	lda     _BoxGuy1+6+1
	sbc     #$FE
	bvc     L36EE
	eor     #$80
L36EE:	bpl     L3F6C
;
; BoxGuy1.vel_y = -0x200;
;
	ldx     #$FE
	lda     #$00
	sta     _BoxGuy1+6
	stx     _BoxGuy1+6+1
;
; short_jump_count = 0;
;
	sta     _short_jump_count
;
; temp5 = low_byte(scroll_x) + high_byte(BoxGuy1.x);
;
L3F76:	tax
L3F6C:	lda     _scroll_x
	clc
	adc     _BoxGuy1+1
	bcc     L3F29
	inx
L3F29:	sta     _temp5
	stx     _temp5+1
;
; if (temp5 > 0x98 && temp5 < 0xa4) // middle of the screen
;
	cmp     #$99
	txa
	sbc     #$00
	bcc     L36F8
	lda     _temp5+1
	cmp     #$00
	bne     L36FB
	lda     _temp5
	cmp     #$A4
L36FB:	bcs     L36F8
;
; map_loaded = 0;
;
	lda     #$00
	sta     _map_loaded
;
; temp5 = BoxGuy1.x; // store his x before we check the scrolling
;
L36F8:	lda     _BoxGuy1+1
	sta     _temp5+1
	lda     _BoxGuy1
	sta     _temp5
;
; if (BoxGuy1.x < MAX_LEFT)
;
	ldx     _BoxGuy1+1
	cpx     #$40
	jcs     L3721
;
; if (!map_loaded)
;
	lda     _map_loaded
	bne     L3703
;
; room_to_load = ((scroll_x >> 8) - 1); // high byte = room, one to the left
;
	lda     _scroll_x+1
	sec
	sbc     #$01
	sta     _room_to_load
;
; new_cmap();
;
	jsr     _new_cmap
;
; map_loaded = 1; // only do once
;
	lda     #$01
	sta     _map_loaded
;
; temp1 = (MAX_LEFT - BoxGuy1.x) >> 8;
;
L3703:	lda     #$00
	sec
	sbc     _BoxGuy1
	lda     #$40
	sbc     _BoxGuy1+1
	sta     _temp1
;
; if (temp1 > 3)
;
	cmp     #$04
	bcc     L3710
;
; temp1 = 3; // max scroll change
;
	lda     #$03
	sta     _temp1
;
; tempint = scroll_x + high_byte(BoxGuy1.x);
;
L3710:	lda     _scroll_x
	ldx     _scroll_x+1
	clc
	adc     _BoxGuy1+1
	bcc     L3F2A
	inx
L3F2A:	sta     _tempint
	stx     _tempint+1
;
; current_room = (tempint >> 8);
;
	lda     _tempint+1
	sta     _current_room
;
; if (max_rooms >= 1) // this is for the multi-room levels
;
	lda     _max_rooms
	beq     L3721
;
; if ((scroll_x - temp1) > max_scroll) // if subtracting the scroll makes it overflow
;
	lda     _scroll_x
	sec
	sbc     _temp1
	pha
	lda     _scroll_x+1
	sbc     #$00
	tax
	pla
	sec
	sbc     _max_scroll
	sta     tmp1
	txa
	sbc     _max_scroll+1
	ora     tmp1
	bcc     L371C
	beq     L371C
;
; scroll_x = 0; // just go to zero (and move the guy)
;
	lda     #$00
	sta     _scroll_x
	sta     _scroll_x+1
;
; else // otherwise scroll the window and offset the guy's movement
;
	jmp     L3721
;
; scroll_x -= temp1;                  // scroll the window
;
L371C:	lda     _temp1
	eor     #$FF
	sec
	adc     _scroll_x
	sta     _scroll_x
	lda     #$FF
	adc     _scroll_x+1
	sta     _scroll_x+1
;
; high_byte(BoxGuy1.x) = high_byte(BoxGuy1.x) + temp1; // add the offset to the guy
;
	lda     _BoxGuy1+1
	clc
	adc     _temp1
	sta     _BoxGuy1+1
;
; if (BoxGuy1.x > MAX_RIGHT)
;
L3721:	lda     _BoxGuy1
	cmp     #$01
	lda     _BoxGuy1+1
	sbc     #$90
	bcc     L373B
;
; if (!map_loaded) // gets reset whenever the player's in the middle of the level
;
	lda     _map_loaded
	bne     L372A
;
; room_to_load = ((scroll_x >> 8) + 1); // high byte = room, one to the left
;
	lda     _scroll_x+1
	clc
	adc     #$01
	sta     _room_to_load
;
; new_cmap();
;
	jsr     _new_cmap
;
; map_loaded = 1; // only do once
;
	lda     #$01
	sta     _map_loaded
;
; temp1 = (BoxGuy1.x - MAX_RIGHT) >> 8;
;
L372A:	lda     _BoxGuy1+1
	sec
	sbc     #$90
	sta     _temp1
;
; if (temp1 > 3)
;
	cmp     #$04
	bcc     L3F70
;
; temp1 = 3; // max scroll change
;
	lda     #$03
	sta     _temp1
;
; if (max_rooms >= 1) // used for single room levels
;
L3F70:	lda     _max_rooms
	beq     L373B
;
; scroll_x += temp1;                  // scroll the window
;
	lda     _temp1
	clc
	adc     _scroll_x
	sta     _scroll_x
	lda     #$00
	adc     _scroll_x+1
	sta     _scroll_x+1
;
; high_byte(BoxGuy1.x) = high_byte(BoxGuy1.x) - temp1; // sub the offet from the guy
;
	lda     _BoxGuy1+1
	sec
	sbc     _temp1
	sta     _BoxGuy1+1
;
; if (scroll_x >= max_scroll)
;
L373B:	lda     _scroll_x
	cmp     _max_scroll
	lda     _scroll_x+1
	sbc     _max_scroll+1
	bcc     L3749
;
; scroll_x = max_scroll;      // stop scrolling right, end of level
;
	lda     _max_scroll+1
	sta     _scroll_x+1
	lda     _max_scroll
	sta     _scroll_x
;
; BoxGuy1.x = temp5;        // but allow the x position to go all the way right
;
	lda     _temp5+1
	sta     _BoxGuy1+1
	lda     _temp5
	sta     _BoxGuy1
;
; if (high_byte(BoxGuy1.x) >= 0xe0) // but limit how far right he can go
;
	lda     _BoxGuy1+1
	cmp     #$E0
	bcc     L3749
;
; BoxGuy1.x = 0xe000;
;
	ldx     #$E0
	lda     #$00
	sta     _BoxGuy1
	stx     _BoxGuy1+1
;
; }
;
L3749:	rts

.endproc

; ---------------------------------------------------------------
; unsigned char __near__ bg_collision_sub (void)
; ---------------------------------------------------------------

.segment	"CODE"

.proc	_bg_collision_sub: near

.segment	"CODE"

;
; if (temp_y >= 0xf0)
;
	lda     _temp_y
	cmp     #$F0
	ldx     #$00
	bcc     L3F7B
;
; return 0;
;
	txa
	rts
;
; coordinates = (temp_x >> 4) + (temp_y & 0xf0);
;
L3F7B:	lda     _temp_x
	lsr     a
	lsr     a
	lsr     a
	lsr     a
	sta     ptr1
	lda     _temp_y
	and     #$F0
	clc
	adc     ptr1
	sta     _coordinates
;
; map = temp_room & 1; // high byte
;
	lda     _temp_room
	and     #$01
	sta     _map
;
; if (!map)
;
	lda     _map
	bne     L2B77
;
; collision = c_map[coordinates];
;
	ldy     _coordinates
	lda     _c_map,y
;
; else
;
	jmp     L3F7A
;
; collision = c_map2[coordinates];
;
L2B77:	ldy     _coordinates
	lda     _c_map2,y
L3F7A:	sta     _collision
;
; return metatile_colision_map[collision];
;
	ldy     _collision
	lda     _metatile_colision_map,y
;
; }
;
	rts

.endproc

; ---------------------------------------------------------------
; void __near__ draw_screen_R (void)
; ---------------------------------------------------------------

.segment	"CODE"

.proc	_draw_screen_R: near

.segment	"CODE"

;
; pseudo_scroll_x = scroll_x + 0x120;
;
	lda     _scroll_x
	ldx     _scroll_x+1
	clc
	adc     #$20
	bcc     L37D0
	inx
L37D0:	inx
	sta     _pseudo_scroll_x
	stx     _pseudo_scroll_x+1
;
; temp1 = pseudo_scroll_x >> 8;
;
	lda     _pseudo_scroll_x+1
	sta     _temp1
;
; offset = level_offsets[level];
;
	ldy     _level
	lda     _level_offsets,y
	sta     _offset
;
; offset += temp1; // in place of room?!?
;
	lda     _temp1
	clc
	adc     _offset
	sta     _offset
;
; set_data_pointer(stage1_levels_list[offset]);
;
	ldx     #$00
	lda     _offset
	asl     a
	bcc     L3F7F
	inx
	clc
L3F7F:	adc     #<(_stage1_levels_list)
	sta     ptr1
	txa
	adc     #>(_stage1_levels_list)
	sta     ptr1+1
	ldy     #$01
	lda     (ptr1),y
	tax
	dey
	lda     (ptr1),y
	jsr     _set_data_pointer
;
; nt = temp1 & 1;
;
	lda     _temp1
	and     #$01
	sta     _nt
;
; x = pseudo_scroll_x & 0xff;
;
	lda     _pseudo_scroll_x
	sta     _x
;
; switch (scroll_count)
;
	lda     _scroll_count
;
; }
;
	beq     L37E4
	cmp     #$01
	beq     L37FD
	cmp     #$02
	jeq     L3817
	jmp     L3830
;
; address = get_ppu_addr(nt, x, 0);
;
L37E4:	jsr     decsp2
	lda     _nt
	ldy     #$01
	sta     (sp),y
	lda     _x
	dey
	sta     (sp),y
	tya
	jsr     _get_ppu_addr
	sta     _address
	stx     _address+1
;
; index = 0 + (x >> 4);
;
	lda     _x
	lsr     a
	lsr     a
	lsr     a
	lsr     a
	sta     _index
;
; buffer_4_mt(address, index); // ppu_address, index to the data
;
	lda     _address
	ldx     _address+1
	jsr     pushax
	lda     _index
	jsr     _buffer_4_mt
;
; address = get_ppu_addr(nt, x, 0x20);
;
	jsr     decsp2
	lda     _nt
	ldy     #$01
	sta     (sp),y
	lda     _x
	dey
	sta     (sp),y
	lda     #$20
	jsr     _get_ppu_addr
	sta     _address
	stx     _address+1
;
; index = 0x20 + (x >> 4);
;
	lda     _x
	lsr     a
	lsr     a
	lsr     a
	lsr     a
	clc
	adc     #$20
;
; break;
;
	jmp     L3F84
;
; address = get_ppu_addr(nt, x, 0x40);
;
L37FD:	jsr     decsp2
	lda     _nt
	ldy     #$01
	sta     (sp),y
	lda     _x
	dey
	sta     (sp),y
	lda     #$40
	jsr     _get_ppu_addr
	sta     _address
	stx     _address+1
;
; index = 0x40 + (x >> 4);
;
	lda     _x
	lsr     a
	lsr     a
	lsr     a
	lsr     a
	clc
	adc     #$40
	sta     _index
;
; buffer_4_mt(address, index); // ppu_address, index to the data
;
	lda     _address
	ldx     _address+1
	jsr     pushax
	lda     _index
	jsr     _buffer_4_mt
;
; address = get_ppu_addr(nt, x, 0x60);
;
	jsr     decsp2
	lda     _nt
	ldy     #$01
	sta     (sp),y
	lda     _x
	dey
	sta     (sp),y
	lda     #$60
	jsr     _get_ppu_addr
	sta     _address
	stx     _address+1
;
; index = 0x60 + (x >> 4);
;
	lda     _x
	lsr     a
	lsr     a
	lsr     a
	lsr     a
	clc
	adc     #$60
;
; break;
;
	jmp     L3F84
;
; address = get_ppu_addr(nt, x, 0x80);
;
L3817:	jsr     decsp2
	lda     _nt
	ldy     #$01
	sta     (sp),y
	lda     _x
	dey
	sta     (sp),y
	lda     #$80
	jsr     _get_ppu_addr
	sta     _address
	stx     _address+1
;
; index = 0x80 + (x >> 4);
;
	lda     _x
	lsr     a
	lsr     a
	lsr     a
	lsr     a
	clc
	adc     #$80
	sta     _index
;
; buffer_4_mt(address, index); // ppu_address, index to the data
;
	lda     _address
	ldx     _address+1
	jsr     pushax
	lda     _index
	jsr     _buffer_4_mt
;
; address = get_ppu_addr(nt, x, 0xa0);
;
	jsr     decsp2
	lda     _nt
	ldy     #$01
	sta     (sp),y
	lda     _x
	dey
	sta     (sp),y
	lda     #$A0
	jsr     _get_ppu_addr
	sta     _address
	stx     _address+1
;
; index = 0xa0 + (x >> 4);
;
	lda     _x
	lsr     a
	lsr     a
	lsr     a
	lsr     a
	clc
	adc     #$A0
;
; break;
;
	jmp     L3F84
;
; address = get_ppu_addr(nt, x, 0xc0);
;
L3830:	jsr     decsp2
	lda     _nt
	ldy     #$01
	sta     (sp),y
	lda     _x
	dey
	sta     (sp),y
	lda     #$C0
	jsr     _get_ppu_addr
	sta     _address
	stx     _address+1
;
; index = 0xc0 + (x >> 4);
;
	lda     _x
	lsr     a
	lsr     a
	lsr     a
	lsr     a
	clc
	adc     #$C0
	sta     _index
;
; buffer_4_mt(address, index); // ppu_address, index to the data
;
	lda     _address
	ldx     _address+1
	jsr     pushax
	lda     _index
	jsr     _buffer_4_mt
;
; address = get_ppu_addr(nt, x, 0xe0);
;
	jsr     decsp2
	lda     _nt
	ldy     #$01
	sta     (sp),y
	lda     _x
	dey
	sta     (sp),y
	lda     #$E0
	jsr     _get_ppu_addr
	sta     _address
	stx     _address+1
;
; index = 0xe0 + (x >> 4);
;
	lda     _x
	lsr     a
	lsr     a
	lsr     a
	lsr     a
	clc
	adc     #$E0
L3F84:	sta     _index
;
; buffer_4_mt(address, index); // ppu_address, index to the data
;
	lda     _address
	ldx     _address+1
	jsr     pushax
	lda     _index
	jsr     _buffer_4_mt
;
; ++scroll_count;
;
	inc     _scroll_count
;
; scroll_count &= 3; // mask off top bits, keep it 0-3
;
	lda     _scroll_count
	and     #$03
	sta     _scroll_count
;
; }
;
	rts

.endproc

; ---------------------------------------------------------------
; void __near__ draw_screen_L (void)
; ---------------------------------------------------------------

.segment	"CODE"

.proc	_draw_screen_L: near

.segment	"CODE"

;
; pseudo_scroll_x = scroll_x - 0x20; // Modify the scroll offset for left scroll
;
	lda     _scroll_x
	ldx     _scroll_x+1
	sec
	sbc     #$20
	bcs     L3751
	dex
L3751:	sta     _pseudo_scroll_x
	stx     _pseudo_scroll_x+1
;
; temp1 = pseudo_scroll_x >> 8;
;
	lda     _pseudo_scroll_x+1
	sta     _temp1
;
; offset = level_offsets[level];
;
	ldy     _level
	lda     _level_offsets,y
	sta     _offset
;
; offset += temp1; // in place of room?!?
;
	lda     _temp1
	clc
	adc     _offset
	sta     _offset
;
; set_data_pointer(stage1_levels_list[offset]);
;
	ldx     #$00
	lda     _offset
	asl     a
	bcc     L3F87
	inx
	clc
L3F87:	adc     #<(_stage1_levels_list)
	sta     ptr1
	txa
	adc     #>(_stage1_levels_list)
	sta     ptr1+1
	ldy     #$01
	lda     (ptr1),y
	tax
	dey
	lda     (ptr1),y
	jsr     _set_data_pointer
;
; nt = temp1 & 1;
;
	lda     _temp1
	and     #$01
	sta     _nt
;
; x = pseudo_scroll_x & 0xff;
;
	lda     _pseudo_scroll_x
	sta     _x
;
; switch (scroll_count)
;
	lda     _scroll_count
;
; }
;
	beq     L3765
	cmp     #$01
	beq     L377E
	cmp     #$02
	jeq     L3798
	jmp     L37B1
;
; address = get_ppu_addr(nt, x, 0);
;
L3765:	jsr     decsp2
	lda     _nt
	ldy     #$01
	sta     (sp),y
	lda     _x
	dey
	sta     (sp),y
	tya
	jsr     _get_ppu_addr
	sta     _address
	stx     _address+1
;
; index = 0 + (x >> 4);
;
	lda     _x
	lsr     a
	lsr     a
	lsr     a
	lsr     a
	sta     _index
;
; buffer_4_mt(address, index); // ppu_address, index to the data
;
	lda     _address
	ldx     _address+1
	jsr     pushax
	lda     _index
	jsr     _buffer_4_mt
;
; address = get_ppu_addr(nt, x, 0x20);
;
	jsr     decsp2
	lda     _nt
	ldy     #$01
	sta     (sp),y
	lda     _x
	dey
	sta     (sp),y
	lda     #$20
	jsr     _get_ppu_addr
	sta     _address
	stx     _address+1
;
; index = 0x20 + (x >> 4);
;
	lda     _x
	lsr     a
	lsr     a
	lsr     a
	lsr     a
	clc
	adc     #$20
;
; break;
;
	jmp     L3F8C
;
; address = get_ppu_addr(nt, x, 0x40);
;
L377E:	jsr     decsp2
	lda     _nt
	ldy     #$01
	sta     (sp),y
	lda     _x
	dey
	sta     (sp),y
	lda     #$40
	jsr     _get_ppu_addr
	sta     _address
	stx     _address+1
;
; index = 0x40 + (x >> 4);
;
	lda     _x
	lsr     a
	lsr     a
	lsr     a
	lsr     a
	clc
	adc     #$40
	sta     _index
;
; buffer_4_mt(address, index); // ppu_address, index to the data
;
	lda     _address
	ldx     _address+1
	jsr     pushax
	lda     _index
	jsr     _buffer_4_mt
;
; address = get_ppu_addr(nt, x, 0x60);
;
	jsr     decsp2
	lda     _nt
	ldy     #$01
	sta     (sp),y
	lda     _x
	dey
	sta     (sp),y
	lda     #$60
	jsr     _get_ppu_addr
	sta     _address
	stx     _address+1
;
; index = 0x60 + (x >> 4);
;
	lda     _x
	lsr     a
	lsr     a
	lsr     a
	lsr     a
	clc
	adc     #$60
;
; break;
;
	jmp     L3F8C
;
; address = get_ppu_addr(nt, x, 0x80);
;
L3798:	jsr     decsp2
	lda     _nt
	ldy     #$01
	sta     (sp),y
	lda     _x
	dey
	sta     (sp),y
	lda     #$80
	jsr     _get_ppu_addr
	sta     _address
	stx     _address+1
;
; index = 0x80 + (x >> 4);
;
	lda     _x
	lsr     a
	lsr     a
	lsr     a
	lsr     a
	clc
	adc     #$80
	sta     _index
;
; buffer_4_mt(address, index); // ppu_address, index to the data
;
	lda     _address
	ldx     _address+1
	jsr     pushax
	lda     _index
	jsr     _buffer_4_mt
;
; address = get_ppu_addr(nt, x, 0xa0);
;
	jsr     decsp2
	lda     _nt
	ldy     #$01
	sta     (sp),y
	lda     _x
	dey
	sta     (sp),y
	lda     #$A0
	jsr     _get_ppu_addr
	sta     _address
	stx     _address+1
;
; index = 0xa0 + (x >> 4);
;
	lda     _x
	lsr     a
	lsr     a
	lsr     a
	lsr     a
	clc
	adc     #$A0
;
; break;
;
	jmp     L3F8C
;
; address = get_ppu_addr(nt, x, 0xc0);
;
L37B1:	jsr     decsp2
	lda     _nt
	ldy     #$01
	sta     (sp),y
	lda     _x
	dey
	sta     (sp),y
	lda     #$C0
	jsr     _get_ppu_addr
	sta     _address
	stx     _address+1
;
; index = 0xc0 + (x >> 4);
;
	lda     _x
	lsr     a
	lsr     a
	lsr     a
	lsr     a
	clc
	adc     #$C0
	sta     _index
;
; buffer_4_mt(address, index); // ppu_address, index to the data
;
	lda     _address
	ldx     _address+1
	jsr     pushax
	lda     _index
	jsr     _buffer_4_mt
;
; address = get_ppu_addr(nt, x, 0xe0);
;
	jsr     decsp2
	lda     _nt
	ldy     #$01
	sta     (sp),y
	lda     _x
	dey
	sta     (sp),y
	lda     #$E0
	jsr     _get_ppu_addr
	sta     _address
	stx     _address+1
;
; index = 0xe0 + (x >> 4);
;
	lda     _x
	lsr     a
	lsr     a
	lsr     a
	lsr     a
	clc
	adc     #$E0
L3F8C:	sta     _index
;
; buffer_4_mt(address, index); // ppu_address, index to the data
;
	lda     _address
	ldx     _address+1
	jsr     pushax
	lda     _index
	jsr     _buffer_4_mt
;
; --scroll_count;   // Reverse the increment to scroll in the opposite direction
;
	dec     _scroll_count
;
; scroll_count &= 3; // mask off top bits, keep it 0-3
;
	lda     _scroll_count
	and     #$03
	sta     _scroll_count
;
; }
;
	rts

.endproc

; ---------------------------------------------------------------
; void __near__ new_cmap (void)
; ---------------------------------------------------------------

.segment	"CODE"

.proc	_new_cmap: near

.segment	"CODE"

;
; offset = level_offsets[level];
;
	ldy     _level
	lda     _level_offsets,y
	sta     _offset
;
; offset += room_to_load;
;
	lda     _room_to_load
	clc
	adc     _offset
	sta     _offset
;
; map = room_to_load & 1; // even or odd?
;
	lda     _room_to_load
	and     #$01
	sta     _map
;
; if (!map)
;
	lda     _map
	bne     L3855
;
; memcpy(c_map, stage1_levels_list[offset], 240);
;
	lda     #<(_c_map)
	ldx     #>(_c_map)
	jsr     pushax
	ldx     #$00
	lda     _offset
	asl     a
	bcc     L3F8F
	inx
	clc
L3F8F:	adc     #<(_stage1_levels_list)
	sta     ptr1
	txa
	adc     #>(_stage1_levels_list)
	sta     ptr1+1
	ldy     #$01
	lda     (ptr1),y
	tax
	dey
	lda     (ptr1),y
	jsr     pushax
	ldx     #$00
	lda     #$F0
	jmp     _memcpy
;
; memcpy(c_map2, stage1_levels_list[offset], 240);
;
L3855:	lda     #<(_c_map2)
	ldx     #>(_c_map2)
	jsr     pushax
	ldx     #$00
	lda     _offset
	asl     a
	bcc     L3F90
	inx
	clc
L3F90:	adc     #<(_stage1_levels_list)
	sta     ptr1
	txa
	adc     #>(_stage1_levels_list)
	sta     ptr1+1
	ldy     #$01
	lda     (ptr1),y
	tax
	dey
	lda     (ptr1),y
	jsr     pushax
	ldx     #$00
	lda     #$F0
	jmp     _memcpy

.endproc

; ---------------------------------------------------------------
; void __near__ handle_scrolling (void)
; ---------------------------------------------------------------

.segment	"CODE"

.proc	_handle_scrolling: near

.segment	"CODE"

;
; if (!r_scroll_frames && !l_scroll_frames)
;
	lda     _r_scroll_frames
	bne     L335C
	lda     _l_scroll_frames
	bne     L335C
;
; if (BoxGuy1.vel_x > 0)
;
	lda     _BoxGuy1+4
	cmp     #$01
	lda     _BoxGuy1+4+1
	sbc     #$00
	bvs     L3359
	eor     #$80
L3359:	bpl     L3F91
;
; r_scroll_frames = 4;
;
	lda     #$04
	sta     _r_scroll_frames
;
; else
;
	jmp     L335C
;
; l_scroll_frames = 4;
;
L3F91:	lda     #$04
	sta     _l_scroll_frames
;
; if (r_scroll_frames)
;
L335C:	lda     _r_scroll_frames
	beq     L335F
;
; draw_screen_R();
;
	jsr     _draw_screen_R
;
; --r_scroll_frames;
;
	dec     _r_scroll_frames
;
; else if (l_scroll_frames)
;
	rts
L335F:	lda     _l_scroll_frames
	beq     L3364
;
; draw_screen_L();
;
	jsr     _draw_screen_L
;
; --l_scroll_frames;
;
	dec     _l_scroll_frames
;
; }
;
L3364:	rts

.endproc

; ---------------------------------------------------------------
; void __near__ projectile_movement (void)
; ---------------------------------------------------------------

.segment	"CODE"

.proc	_projectile_movement: near

.segment	"CODE"

;
; for (temp1 = 0; temp1 < 3; ++temp1)
;
	lda     #$00
	sta     _temp1
L3F93:	lda     _temp1
	cmp     #$03
	bcc     L3F9A
;
; }
;
	rts
;
; if (projectiles_list[temp1] != TURN_OFF)
;
L3F9A:	ldy     _temp1
	lda     _projectiles_list,y
	cmp     #$FF
	jeq     L3F99
;
; if (projectiles_x[temp1] > 250)
;
	ldy     _temp1
	lda     _projectiles_x,y
	cmp     #$FB
	bcc     L3321
;
; projectiles_list[temp1] = TURN_OFF;
;
	ldy     _temp1
	lda     #$FF
	sta     _projectiles_list,y
;
; else
;
	jmp     L3F99
;
; if (projectiles_list[temp1] == RIGHT)
;
L3321:	ldy     _temp1
	lda     _projectiles_list,y
	cmp     #$01
	bne     L332A
;
; if ((BoxGuy1.x <= MAX_LEFT) && (pad1 & PAD_LEFT))
;
	lda     _BoxGuy1+1
	cmp     #$40
	bne     L3331
	lda     _BoxGuy1
	cmp     #$01
L3331:	bcs     L332E
	lda     _pad1
	and     #$02
	beq     L332E
;
; projectiles_x[temp1] += PROJECTILE_SPEED_WITH_SCROLL;
;
	lda     #<(_projectiles_x)
	ldx     #>(_projectiles_x)
	clc
	adc     _temp1
	bcc     L3337
	inx
L3337:	sta     ptr1
	stx     ptr1+1
	ldy     #$00
	lda     (ptr1),y
	clc
	adc     #$05
;
; else
;
	jmp     L3F92
;
; projectiles_x[temp1] += PROJECTILE_SPEED;
;
L332E:	lda     #<(_projectiles_x)
	ldx     #>(_projectiles_x)
	clc
	adc     _temp1
	bcc     L333C
	inx
L333C:	sta     ptr1
	stx     ptr1+1
	ldy     #$00
	lda     (ptr1),y
	clc
	adc     #$03
;
; else if (projectiles_list[temp1] == LEFT)
;
	jmp     L3F92
L332A:	ldy     _temp1
	lda     _projectiles_list,y
	bne     L3F99
;
; if ((BoxGuy1.x >= MAX_RIGHT) && (pad1 & PAD_RIGHT))
;
	lda     _BoxGuy1
	cmp     #$00
	lda     _BoxGuy1+1
	sbc     #$90
	bcc     L3343
	lda     _pad1
	and     #$01
	beq     L3343
;
; projectiles_x[temp1] -= PROJECTILE_SPEED_WITH_SCROLL;
;
	lda     #<(_projectiles_x)
	ldx     #>(_projectiles_x)
	clc
	adc     _temp1
	bcc     L334B
	inx
L334B:	sta     ptr1
	stx     ptr1+1
	ldy     #$00
	lda     (ptr1),y
	sec
	sbc     #$05
;
; else
;
	jmp     L3F92
;
; projectiles_x[temp1] -= PROJECTILE_SPEED;
;
L3343:	lda     #<(_projectiles_x)
	ldx     #>(_projectiles_x)
	clc
	adc     _temp1
	bcc     L3350
	inx
L3350:	sta     ptr1
	stx     ptr1+1
	ldy     #$00
	lda     (ptr1),y
	sec
	sbc     #$03
L3F92:	sta     (ptr1),y
;
; for (temp1 = 0; temp1 < 3; ++temp1)
;
L3F99:	inc     _temp1
	jmp     L3F93

.endproc

; ---------------------------------------------------------------
; void __near__ check_spr_objects (void)
; ---------------------------------------------------------------

.segment	"CODE"

.proc	_check_spr_objects: near

.segment	"CODE"

;
; Generic2.x = high_byte(BoxGuy1.x);
;
	lda     _BoxGuy1+1
	sta     _Generic2
;
; for (index = 0; index < MAX_ENEMY; ++index)
;
	lda     #$00
	sta     _index
L3F9B:	lda     _index
	cmp     #$10
	bcs     L38D5
;
; enemy_active[index] = 0; // default to zero
;
	ldy     _index
	lda     #$00
	sta     _enemy_active,y
;
; if (enemy_y[index] != TURN_OFF)
;
	ldy     _index
	lda     _enemy_y,y
	cmp     #$FF
	beq     L3F9D
;
; high_byte(temp5) = enemy_room[index];
;
	ldy     _index
	lda     _enemy_room,y
	sta     _temp5+1
;
; low_byte(temp5) = enemy_actual_x[index];
;
	ldy     _index
	lda     _enemy_actual_x,y
	sta     _temp5
;
; temp1 = enemy_active[index] = get_position();
;
	lda     #<(_enemy_active)
	ldx     #>(_enemy_active)
	clc
	adc     _index
	bcc     L38F1
	inx
L38F1:	jsr     pushax
	jsr     _get_position
	ldy     #$00
	jsr     staspidx
	sta     _temp1
;
; if (temp1 == 0 || enemy_health[index] == 0)
;
	lda     _temp1
	beq     L3F9D
	ldy     _index
	lda     _enemy_health,y
	beq     L3F9D
;
; enemy_x[index] = temp_x; // screen x coords
;
	ldy     _index
	lda     _temp_x
	sta     _enemy_x,y
;
; enemy_moves(); // if active, do it's moves now
;
	jsr     _enemy_moves
;
; for (index = 0; index < MAX_ENEMY; ++index)
;
L3F9D:	inc     _index
	jmp     L3F9B
;
; }
;
L38D5:	rts

.endproc

; ---------------------------------------------------------------
; void __near__ check_entity_objects (void)
; ---------------------------------------------------------------

.segment	"CODE"

.proc	_check_entity_objects: near

.segment	"CODE"

;
; Generic2.x = high_byte(BoxGuy1.x);
;
	lda     _BoxGuy1+1
	sta     _Generic2
;
; for (index = 0; index < MAX_ENTITY; ++index)
;
	lda     #$00
	sta     _index
L3F9E:	lda     _index
	cmp     #$10
	bcs     L3871
;
; entity_active[index] = 0; // default to zero
;
	ldy     _index
	lda     #$00
	sta     _entity_active,y
;
; if (entity_y[index] != TURN_OFF)
;
	ldy     _index
	lda     _entity_y,y
	cmp     #$FF
	beq     L3F9F
;
; high_byte(temp5) = entity_room[index];
;
	ldy     _index
	lda     _entity_room,y
	sta     _temp5+1
;
; low_byte(temp5) = entity_actual_x[index];
;
	ldy     _index
	lda     _entity_actual_x,y
	sta     _temp5
;
; temp1 = entity_active[index] = get_position();
;
	lda     #<(_entity_active)
	ldx     #>(_entity_active)
	clc
	adc     _index
	bcc     L388D
	inx
L388D:	jsr     pushax
	jsr     _get_position
	ldy     #$00
	jsr     staspidx
	sta     _temp1
;
; if (temp1 == 0)
;
	lda     _temp1
;
; continue;
;
	beq     L3F9F
;
; entity_x[index] = temp_x; // screen x coords
;
	ldy     _index
	lda     _temp_x
	sta     _entity_x,y
;
; entity_moves();
;
	jsr     _entity_moves
;
; for (index = 0; index < MAX_ENTITY; ++index)
;
L3F9F:	inc     _index
	jmp     L3F9E
;
; }  
;
L3871:	rts

.endproc

; ---------------------------------------------------------------
; void __near__ sprite_collisions (void)
; ---------------------------------------------------------------

.segment	"CODE"

.proc	_sprite_collisions: near

.segment	"CODE"

;
; Generic.x = high_byte(BoxGuy1.x);
;
	lda     _BoxGuy1+1
	sta     _Generic
;
; Generic.y = high_byte(BoxGuy1.y);
;
	lda     _BoxGuy1+3
	sta     _Generic+1
;
; for (index = 0; index < MAX_ENEMY; ++index)
;
	lda     #$00
	sta     _index
L3FA1:	lda     _index
	cmp     #$10
	bcc     L3FC2
;
; }
;
	rts
;
; if (enemy_active[index])
;
L3FC2:	ldy     _index
	lda     _enemy_active,y
	jeq     L3FA9
;
; switch (enemy_type[index])
;
	ldy     _index
	lda     _enemy_type,y
;
; }
;
	beq     L3FA2
	cmp     #$01
	beq     L3FA3
	cmp     #$02
	beq     L3FA4
	jmp     L3FA5
;
; Generic2.width = ENEMY_SNAIL_WIDTH;
;
L3FA2:	lda     #$0E
	sta     _Generic2+2
;
; Generic2.height = ENEMY_SNAIL_HEIGHT;
;
	lda     #$0F
	sta     _Generic2+3
;
; Generic2.x = enemy_x[index] + 4;
;
	ldy     _index
	lda     _enemy_x,y
	clc
	adc     #$04
;
; break;
;
	jmp     L3FAE
;
; Generic2.width = ENEMY_OWL_WIDTH;
;
L3FA3:	lda     #$0D
	sta     _Generic2+2
;
; Generic2.height = ENEMY_OWL_HEIGHT;
;
	lda     #$0F
;
; break;
;
	jmp     L3FB4
;
; Generic2.width = ENEMY_BEAR_WIDTH;
;
L3FA4:	lda     #$0E
	sta     _Generic2+2
;
; Generic2.height = ENEMY_BEAR_HEIGHT;
;
	lda     #$20
;
; break;
;
	jmp     L3FB4
;
; Generic2.width = ENEMY_WIDTH;
;
L3FA5:	lda     #$0D
	sta     _Generic2+2
;
; Generic2.height = ENEMY_HEIGHT;
;
L3FB4:	sta     _Generic2+3
;
; Generic2.x = enemy_x[index];
;
	ldy     _index
	lda     _enemy_x,y
L3FAE:	sta     _Generic2
;
; Generic2.y = enemy_y[index];
;
	ldy     _index
	lda     _enemy_y,y
	sta     _Generic2+1
;
; if (check_collision(&Generic, &Generic2))
;
	lda     #<(_Generic)
	ldx     #>(_Generic)
	jsr     pushax
	lda     #<(_Generic2)
	ldx     #>(_Generic2)
	jsr     _check_collision
	tax
	beq     L3FA9
;
; switch (enemy_type[index])
;
	ldy     _index
	lda     _enemy_type,y
;
; }
;
	beq     L3FA6
	cmp     #$01
	beq     L3FA8
	cmp     #$02
	beq     L3FA8
	jmp     L3FA9
;
; if (invul_frames == 0)
;
L3FA6:	lda     _invul_frames
	bne     L3FA9
;
; hit_direction = enemy_dir[index];
;
	ldy     _index
	lda     _enemy_dir,y
	sta     _hit_direction
;
; BoxGuy1.health -= ENEMY_SNAIL_DAMAGE; // check for overflow
;
	lda     _BoxGuy1+8
	sec
	sbc     #$02
;
; break;
;
	jmp     L3FBA
;
; if (invul_frames == 0)
;
L3FA8:	lda     _invul_frames
	bne     L3FA9
;
; hit_direction = enemy_dir[index];
;
	ldy     _index
	lda     _enemy_dir,y
	sta     _hit_direction
;
; BoxGuy1.health -= ENEMY_BEAR_DAMAGE; // check for overflow
;
	lda     _BoxGuy1+8
	sec
	sbc     #$05
L3FBA:	sta     _BoxGuy1+8
;
; player_on_ladder = 0;         // hitting hits you off ladder
;
	lda     #$00
	sta     _player_on_ladder
;
; sfx_play(SFX_ENEMY_HITS, 0);
;
	lda     #$01
	jsr     pusha
	lda     #$00
	jsr     _sfx_play
;
; player_in_hitstun = ENEMY_BEAR_PLAYER_HITSTUN;
;
	lda     #$1E
	sta     _player_in_hitstun
;
; invul_frames = ENEMY_BEAR_PLAYER_INVUL;
;
	lda     #$32
	sta     _invul_frames
;
; for (index = 0; index < MAX_ENEMY; ++index)
;
L3FA9:	inc     _index
	jmp     L3FA1

.endproc

; ---------------------------------------------------------------
; void __near__ entity_collisions (void)
; ---------------------------------------------------------------

.segment	"CODE"

.proc	_entity_collisions: near

.segment	"CODE"

;
; Generic.x = high_byte(BoxGuy1.x);
;
	lda     _BoxGuy1+1
	sta     _Generic
;
; Generic.y = high_byte(BoxGuy1.y);
;
	lda     _BoxGuy1+3
	sta     _Generic+1
;
; Generic.width = HERO_WIDTH;
;
	lda     #$0E
	sta     _Generic+2
;
; Generic.height = HERO_HEIGHT;
;
	sta     _Generic+3
;
; for (index = 0; index < MAX_ENTITY; ++index)
;
	lda     #$00
	sta     _index
L3FC4:	lda     _index
	cmp     #$10
	bcc     L3FD4
;
; }
;
	rts
;
; if (entity_active[index])
;
L3FD4:	ldy     _index
	lda     _entity_active,y
	jeq     L3FD3
;
; switch (entity_type[index])
;
	ldy     _index
	lda     _entity_type,y
;
; }
;
	cmp     #$02
	beq     L3FC5
	cmp     #$04
	beq     L3FC7
	cmp     #$05
	beq     L3FC8
	cmp     #$06
	beq     L3FC6
	jmp     L3FC9
;
; Generic2.width = 64;
;
L3FC5:	lda     #$40
	sta     _Generic2+2
;
; Generic2.height = 8;
;
	lda     #$08
;
; break;
;
	jmp     L3FC3
;
; Generic2.width = 64;
;
L3FC6:	lda     #$40
	sta     _Generic2+2
;
; Generic2.height = 8;
;
	lda     #$08
;
; break;
;
	jmp     L3FC3
;
; Generic2.width = 255;
;
L3FC7:	lda     #$FF
	sta     _Generic2+2
;
; Generic2.height = 8;
;
	lda     #$08
;
; break;
;
	jmp     L3FC3
;
; Generic2.width = 255;
;
L3FC8:	lda     #$FF
	sta     _Generic2+2
;
; Generic2.height = 8;
;
	lda     #$08
;
; break;
;
	jmp     L3FC3
;
; Generic2.width = 16;
;
L3FC9:	lda     #$10
	sta     _Generic2+2
;
; Generic2.height = 16;
;
L3FC3:	sta     _Generic2+3
;
; Generic2.x = entity_x[index];
;
	ldy     _index
	lda     _entity_x,y
	sta     _Generic2
;
; Generic2.y = entity_y[index];
;
	ldy     _index
	lda     _entity_y,y
	sta     _Generic2+1
;
; if (check_collision(&Generic, &Generic2))
;
	lda     #<(_Generic)
	ldx     #>(_Generic)
	jsr     pushax
	lda     #<(_Generic2)
	ldx     #>(_Generic2)
	jsr     _check_collision
	tax
	jeq     L3FD3
;
; switch (entity_type[index])
;
	ldy     _index
	lda     _entity_type,y
;
; }
;
	beq     L3FCD
	cmp     #$02
	beq     L3FCA
	cmp     #$03
	beq     L3FCE
	cmp     #$04
	beq     L3FCC
	cmp     #$05
	beq     L3FCB
	cmp     #$06
	beq     L3FCF
	cmp     #$08
	jeq     L3FD2
	cmp     #$09
	beq     L3FD1
	cmp     #$0A
	beq     L3DD9
	cmp     #$0B
	beq     L3FD0
	cmp     #$0C
	jeq     L3DFC
	jmp     L3FD3
;
; death_flag = 30; // 30 frames the player can die in
;
L3FCA:	lda     #$1E
	sta     _death_flag
;
; break;
;
	jmp     L3FD3
;
; ++level_up;
;
L3FCB:	inc     _level_up
;
; break;
;
	jmp     L3FD3
;
; ++level_down;
;
L3FCC:	inc     _level_down
;
; break;
;
	jmp     L3FD3
;
; ++level_up;
;
L3FCD:	inc     _level_up
;
; break;
;
	jmp     L3FD3
;
; ++level_down;
;
L3FCE:	inc     _level_down
;
; break;
;
	jmp     L3FD3
;
; ++death;
;
L3FCF:	inc     _death
;
; break;
;
	jmp     L3FD3
;
; BoxGuy1.health -= 8;
;
L3FD0:	lda     _BoxGuy1+8
	sec
	sbc     #$08
	sta     _BoxGuy1+8
;
; player_in_hitstun = ENEMY_SNAIL_PLAYER_HITSTUN;
;
	lda     #$1E
	sta     _player_in_hitstun
;
; invul_frames = ENEMY_SNAIL_PLAYER_INVUL;
;
	lda     #$32
	sta     _invul_frames
;
; entity_active[index] = 0;
;
	ldy     _index
	lda     #$00
	sta     _entity_active,y
;
; entity_y[index] = TURN_OFF;
;
	ldy     _index
	lda     #$FF
	sta     _entity_y,y
;
; break;
;
	jmp     L3FD3
;
; load_victory();
;
L3DD9:	jsr     _load_victory
;
; break;
;
	jmp     L3FD3
;
; if (BoxGuy1.health < MAX_PLAYER_HEALTH)
;
L3FD1:	lda     _BoxGuy1+8
	cmp     #$1C
	bcs     L3DDD
;
; BoxGuy1.health += 1;
;
	inc     _BoxGuy1+8
;
; sfx_play(SFX_LIFE_UP, 0);
;
	lda     #$03
	jsr     pusha
	lda     #$00
	jsr     _sfx_play
;
; entity_active[index] = 0;
;
L3DDD:	ldy     _index
	lda     #$00
	sta     _entity_active,y
;
; entity_y[index] = TURN_OFF;
;
	ldy     _index
	lda     #$FF
	sta     _entity_y,y
;
; break;
;
	jmp     L3FD3
;
; BoxGuy1.health = MAX_PLAYER_HEALTH;
;
L3FD2:	lda     #$1C
	sta     _BoxGuy1+8
;
; sfx_play(SFX_LIFE_UP, 0);
;
	lda     #$03
	jsr     pusha
	lda     #$00
	jsr     _sfx_play
;
; entity_active[index] = 0;
;
	ldy     _index
	lda     #$00
	sta     _entity_active,y
;
; entity_y[index] = TURN_OFF;
;
	ldy     _index
	lda     #$FF
	sta     _entity_y,y
;
; break;
;
	jmp     L3FD3
;
; pal_fade_to(4, 0);    // fade to black
;
L3DFC:	lda     #$04
	jsr     pusha
	lda     #$00
	jsr     _pal_fade_to
;
; game_mode = MODE_SWITCH; // this handles loading the level
;
	lda     #$04
	sta     _game_mode
;
; ppu_off();
;
	jsr     _ppu_off
;
; scroll_x = 0;
;
	lda     #$00
	sta     _scroll_x
	sta     _scroll_x+1
;
; ++level;
;
	inc     _level
;
; level_up = 0;
;
	sta     _level_up
;
; room_to_load = 0;
;
	sta     _room_to_load
;
; nametable_to_load = 0;
;
	sta     _nametable_to_load
;
; for (index = 0; index < MAX_ENTITY; ++index)
;
L3FD3:	inc     _index
	jmp     L3FC4

.endproc

; ---------------------------------------------------------------
; void __near__ load_title (void)
; ---------------------------------------------------------------

.segment	"CODE"

.proc	_load_title: near

.segment	"CODE"

;
; ppu_off();
;
	jsr     _ppu_off
;
; pal_bg(palette_bg);
;
	lda     #<(_palette_bg)
	ldx     #>(_palette_bg)
	jsr     _pal_bg
;
; set_data_pointer(titletiled_0);
;
	lda     #<(_titletiled_0)
	ldx     #>(_titletiled_0)
	jsr     _set_data_pointer
;
; set_mt_pointer(metatile);
;
	lda     #<(_metatile)
	ldx     #>(_metatile)
	jsr     _set_mt_pointer
;
; for (y = 0;; y += 0x20)
;
	lda     #$00
L3FD7:	sta     _y
;
; for (x = 0;; x += 0x20)
;
	lda     #$00
L3FD6:	sta     _x
;
; address = get_ppu_addr(0, x, y);
;
	jsr     decsp2
	lda     #$00
	ldy     #$01
	sta     (sp),y
	lda     _x
	dey
	sta     (sp),y
	lda     _y
	jsr     _get_ppu_addr
	sta     _address
	stx     _address+1
;
; index = (y & 0xf0) + (x >> 4);
;
	lda     _y
	and     #$F0
	sta     ptr1
	lda     _x
	lsr     a
	lsr     a
	lsr     a
	lsr     a
	clc
	adc     ptr1
	sta     _index
;
; buffer_4_mt(address, index); // ppu_address, index to the data
;
	lda     _address
	ldx     _address+1
	jsr     pushax
	lda     _index
	jsr     _buffer_4_mt
;
; flush_vram_update2();
;
	jsr     _flush_vram_update2
;
; if (x == 0xe0)
;
	lda     _x
	cmp     #$E0
;
; break;
;
	beq     L3FD8
;
; for (x = 0;; x += 0x20)
;
	lda     #$20
	clc
	adc     _x
	jmp     L3FD6
;
; if (y == 0xe0)
;
L3FD8:	lda     _y
	cmp     #$E0
;
; break;
;
	beq     L2F5D
;
; for (y = 0;; y += 0x20)
;
	lda     #$20
	clc
	adc     _y
	jmp     L3FD7
;
; ppu_on_all();
;
L2F5D:	jsr     _ppu_on_all
;
; game_mode = MODE_TITLE;
;
	lda     #$00
	sta     _game_mode
;
; multi_vram_buffer_horz("CORGS DEMO", 10, NTADR_A(14, 6));
;
	jsr     decsp3
	lda     #<(L2F81)
	ldy     #$01
	sta     (sp),y
	iny
	lda     #>(L2F81)
	sta     (sp),y
	lda     #$0A
	ldy     #$00
	sta     (sp),y
	ldx     #$20
	lda     #$CE
	jsr     _multi_vram_buffer_horz
;
; multi_vram_buffer_horz("BRIAN & ALAN GAMES", 18, NTADR_A(12, 8));
;
	jsr     decsp3
	lda     #<(L2F8B)
	ldy     #$01
	sta     (sp),y
	iny
	lda     #>(L2F8B)
	sta     (sp),y
	lda     #$12
	ldy     #$00
	sta     (sp),y
	ldx     #$21
	lda     #$0C
	jmp     _multi_vram_buffer_horz

.endproc

; ---------------------------------------------------------------
; void __near__ load_victory (void)
; ---------------------------------------------------------------

.segment	"CODE"

.proc	_load_victory: near

.segment	"CODE"

;
; ppu_off(); // screen off
;
	jsr     _ppu_off
;
; pal_bg(palette_victory);
;
	lda     #<(_palette_victory)
	ldx     #>(_palette_victory)
	jsr     _pal_bg
;
; vram_adr(NAMETABLE_A);
;
	ldx     #$20
	lda     #$00
	jsr     _vram_adr
;
; vram_unrle(victory);
;
	lda     #<(_victory)
	ldx     #>(_victory)
	jsr     _vram_unrle
;
; ppu_on_all();
;
	jsr     _ppu_on_all
;
; music_stop();
;
	jsr     _music_stop
;
; sfx_play(SFX_VICTORY, 0);
;
	lda     #$07
	jsr     pusha
	lda     #$00
	jsr     _sfx_play
;
; game_mode = MODE_END;
;
	lda     #$05
	sta     _game_mode
;
; }
;
	rts

.endproc

; ---------------------------------------------------------------
; void __near__ enemy_moves (void)
; ---------------------------------------------------------------

.segment	"CODE"

.proc	_enemy_moves: near

.segment	"CODE"

;
; enemy_frames[index] += 1;
;
	lda     #<(_enemy_frames)
	ldx     #>(_enemy_frames)
	clc
	adc     _index
	bcc     L3944
	inx
L3944:	sta     ptr1
	stx     ptr1+1
	ldy     #$00
	lda     (ptr1),y
	clc
	adc     #$01
	sta     (ptr1),y
;
; for (temp1 = 0; temp1 < MAX_PROJECTILES; ++temp1)
;
	sty     _temp1
L3FD9:	lda     _temp1
	cmp     #$03
	jcs     L3947
;
; if (projectiles_list[temp1] != TURN_OFF)
;
	ldy     _temp1
	lda     _projectiles_list,y
	cmp     #$FF
	jeq     L3FE3
;
; (enemy_x[index] > projectiles_x[temp1] - 5 && enemy_x[index] < projectiles_x[temp1] + 5) &&
;
	ldy     _index
	lda     _enemy_x,y
	jsr     pusha0
	ldy     _temp1
	lda     _projectiles_x,y
	sec
	sbc     #$05
	bcs     L3959
	ldx     #$FF
L3959:	jsr     tosicmp
	jcc     L3FE3
	jeq     L3FE3
	ldy     _index
	lda     _enemy_x,y
	jsr     pusha0
	ldy     _temp1
	lda     _projectiles_x,y
	clc
	adc     #$05
	bcc     L395F
	ldx     #$01
L395F:	jsr     tosicmp
	jcs     L3FE3
;
; (enemy_y[index] > projectiles_y[temp1] - 30 && enemy_y[index] < projectiles_y[temp1] + 30))
;
	ldy     _index
	lda     _enemy_y,y
	jsr     pusha0
	ldy     _temp1
	lda     _projectiles_y,y
	sec
	sbc     #$1E
	bcs     L3967
	ldx     #$FF
L3967:	jsr     tosicmp
	jcc     L3FE3
	jeq     L3FE3
	ldy     _index
	lda     _enemy_y,y
	jsr     pusha0
	ldy     _temp1
	lda     _projectiles_y,y
	clc
	adc     #$1E
	bcc     L396D
	ldx     #$01
L396D:	jsr     tosicmp
	jcs     L3FE3
;
; projectiles_list[temp1] = TURN_OFF;
;
	ldy     _temp1
	lda     #$FF
	sta     _projectiles_list,y
;
; if(enemy_type[index] == ENEMY_BEAR && enemy_mode[index] == BEAR_ATTACK){
;
	ldy     _index
	lda     _enemy_type,y
	cmp     #$02
	bne     L3974
	ldy     _index
	lda     _enemy_mode,y
	cmp     #$04
	beq     L397C
;
; --enemy_health[index];
;
L3974:	lda     #<(_enemy_health)
	ldx     #>(_enemy_health)
	clc
	adc     _index
	bcc     L397F
	inx
L397F:	sta     ptr1
	stx     ptr1+1
	ldy     #$00
	lda     (ptr1),y
	sec
	sbc     #$01
	sta     (ptr1),y
;
; sfx_play(SFX_SHOT_HITS, 0);
;
L397C:	lda     #$02
	jsr     pusha
	lda     #$00
	jsr     _sfx_play
;
; if (enemy_health[index] == 0 || enemy_health[index] > 240) // check for overflow with 240
;
	ldy     _index
	lda     _enemy_health,y
	beq     L3FE0
	ldy     _index
	lda     _enemy_health,y
	cmp     #$F1
	jcc     L3FE3
;
; if (enemy_type[index] == ENEMY_BEAR)
;
L3FE0:	ldy     _index
	lda     _enemy_type,y
	cmp     #$02
	bne     L3FE1
;
; entity_y[0] = 80;
;
	lda     #$50
	sta     _entity_y
;
; entity_x[0] = 120;
;
	lda     #$78
	sta     _entity_x
;
; entity_room[0] = enemy_room[index];
;
	ldy     _index
	lda     _enemy_room,y
	sta     _entity_room
;
; entity_active[0] = 1;
;
	lda     #$01
	sta     _entity_active
;
; entity_type[0] = ENTITY_FRUIT;
;
	lda     #$0A
	sta     _entity_type
;
; entity_actual_x[0] = 128;
;
	lda     #$80
	sta     _entity_actual_x
;
; else if (frame_counter % 2 == 0)
;
	jmp     L39A2
L3FE1:	lda     _frame_counter
	and     #$01
	jne     L39A2
;
; for (index2 = 0; index2 <= MAX_ENTITY; ++index2)
;
	sta     _index2
L3FE2:	lda     _index2
	cmp     #$11
	bcs     L39A7
;
; if (entity_y[index2] == TURN_OFF)
;
	ldy     _index2
	lda     _entity_y,y
	cmp     #$FF
;
; break;
;
	beq     L39A7
;
; for (index2 = 0; index2 <= MAX_ENTITY; ++index2)
;
	inc     _index2
	jmp     L3FE2
;
; entity_y[index2] = enemy_y[index];
;
L39A7:	lda     #<(_entity_y)
	ldx     #>(_entity_y)
	clc
	adc     _index2
	bcc     L39B4
	inx
L39B4:	sta     ptr1
	stx     ptr1+1
	ldy     _index
	lda     _enemy_y,y
	ldy     #$00
	sta     (ptr1),y
;
; entity_x[index2] = enemy_x[index];
;
	lda     #<(_entity_x)
	ldx     #>(_entity_x)
	clc
	adc     _index2
	bcc     L39BA
	inx
L39BA:	sta     ptr1
	stx     ptr1+1
	ldy     _index
	lda     _enemy_x,y
	ldy     #$00
	sta     (ptr1),y
;
; entity_room[index2] = enemy_room[index];
;
	lda     #<(_entity_room)
	ldx     #>(_entity_room)
	clc
	adc     _index2
	bcc     L39C0
	inx
L39C0:	sta     ptr1
	stx     ptr1+1
	ldy     _index
	lda     _enemy_room,y
	ldy     #$00
	sta     (ptr1),y
;
; entity_active[index2] = 1;
;
	ldy     _index2
	lda     #$01
	sta     _entity_active,y
;
; entity_type[index2] = ENTITY_BUN;
;
	ldy     _index2
	lda     #$09
	sta     _entity_type,y
;
; entity_actual_x[index2] = enemy_actual_x[index];
;
	lda     #<(_entity_actual_x)
	ldx     #>(_entity_actual_x)
	clc
	adc     _index2
	bcc     L39CE
	inx
L39CE:	sta     ptr1
	stx     ptr1+1
	ldy     _index
	lda     _enemy_actual_x,y
	ldy     #$00
	sta     (ptr1),y
;
; enemy_y[index] = TURN_OFF;
;
L39A2:	ldy     _index
	lda     #$FF
	sta     _enemy_y,y
;
; enemy_active[index] = 0;
;
	ldy     _index
	lda     #$00
	sta     _enemy_active,y
;
; for (temp1 = 0; temp1 < MAX_PROJECTILES; ++temp1)
;
L3FE3:	inc     _temp1
	jmp     L3FD9
;
; if (enemy_type[index] == ENEMY_SNAIL)
;
L3947:	ldy     _index
	lda     _enemy_type,y
	bne     L39DA
;
; enemy_snail_behavior();
;
	jsr     _enemy_snail_behavior
;
; if (enemy_type[index] == ENEMY_OWL)
;
L39DA:	ldy     _index
	lda     _enemy_type,y
	cmp     #$01
	bne     L39DF
;
; enemy_owl_behavior();
;
	jsr     _enemy_owl_behavior
;
; if (enemy_type[index] == ENEMY_BEAR)
;
L39DF:	ldy     _index
	lda     _enemy_type,y
	cmp     #$02
;
; enemy_bear_behavior();
;
	jeq     _enemy_bear_behavior
;
; }
;
	rts

.endproc

; ---------------------------------------------------------------
; void __near__ entity_moves (void)
; ---------------------------------------------------------------

.segment	"CODE"

.proc	_entity_moves: near

.segment	"CODE"

;
; if (entity_type[index] == ENTITY_BUN || entity_type[index] == ENTITY_STARBURST || entity_type[index] == ENTITY_FRUIT || entity_type[index] == ENTITY_ROCK)
;
	ldy     _index
	lda     _entity_type,y
	cmp     #$09
	beq     L3FE4
	ldy     _index
	lda     _entity_type,y
	cmp     #$0C
	beq     L3FE4
	ldy     _index
	lda     _entity_type,y
	cmp     #$0A
	beq     L3FE4
	ldy     _index
	lda     _entity_type,y
	cmp     #$0B
	beq     L3FE4
	rts
;
; Generic.x = entity_x[index];
;
L3FE4:	ldy     _index
	lda     _entity_x,y
	sta     _Generic
;
; Generic.y = entity_y[index] - 6; // mid point
;
	ldy     _index
	lda     _entity_y,y
	sec
	sbc     #$06
	sta     _Generic+1
;
; Generic.width = 16;
;
	lda     #$10
	sta     _Generic+2
;
; Generic.height = 1;
;
	lda     #$01
	sta     _Generic+3
;
; bg_collision_fast();  
;
	jsr     _bg_collision_fast
;
; if (!collision_D)
;
	lda     _collision_D
	bne     L38B5
;
; ++entity_y[index];
;
	lda     #<(_entity_y)
	ldx     #>(_entity_y)
	clc
	adc     _index
	bcc     L38B4
	inx
L38B4:	sta     ptr1
	stx     ptr1+1
	ldy     #$00
	lda     #$01
	clc
	adc     (ptr1),y
	sta     (ptr1),y
;
; if (entity_y[index] != TURN_OFF && !entity_type[index] == ENTITY_STARBURST || !entity_type[index] == ENTITY_FRUIT)
;
	ldy     _index
	lda     _entity_y,y
	cmp     #$FF
	beq     L38B9
	ldy     _index
	lda     _entity_type,y
	jsr     bnega
	cmp     #$0C
	beq     L38B6
L38B9:	ldy     _index
	lda     _entity_type,y
	jsr     bnega
	cmp     #$0A
	bne     L38B5
;
; ++entity_y[index];
;
L38B6:	lda     #<(_entity_y)
	ldx     #>(_entity_y)
	clc
	adc     _index
	bcc     L38C1
	inx
L38C1:	sta     ptr1
	stx     ptr1+1
	ldy     #$00
	lda     #$01
	clc
	adc     (ptr1),y
	sta     (ptr1),y
;
; if(collision_D && entity_type[index] == ENTITY_ROCK){
;
L38B5:	lda     _collision_D
	beq     L38C4
	ldy     _index
	lda     _entity_type,y
	cmp     #$0B
	beq     L3FE5
L38C4:	rts
;
; entity_active[index] = 0;
;
L3FE5:	ldy     _index
	lda     #$00
	sta     _entity_active,y
;
; entity_y[index] = TURN_OFF;
;
	ldy     _index
	lda     #$FF
	sta     _entity_y,y
;
; }
;
	rts

.endproc

; ---------------------------------------------------------------
; void __near__ reset (void)
; ---------------------------------------------------------------

.segment	"CODE"

.proc	_reset: near

.segment	"CODE"

;
; oam_clear();
;
	jsr     _oam_clear
;
; ppu_wait_nmi();
;
	jsr     _ppu_wait_nmi
;
; ppu_off();   // screen off
;
	jsr     _ppu_off
;
; pal_bright(4); // back to normal brightness
;
	lda     #$04
	jsr     _pal_bright
;
; scroll_x = 0;
;
	lda     #$00
	sta     _scroll_x
	sta     _scroll_x+1
;
; scroll_y = 0;
;
	sta     _scroll_y
	sta     _scroll_y+1
;
; map_loaded = 0;
;
	sta     _map_loaded
;
; player_in_air = 0;
;
	sta     _player_in_air
;
; falling_down = 0;
;
	sta     _falling_down
;
; player_on_ladder = 0;
;
	sta     _player_on_ladder
;
; player_running = 0;
;
	sta     _player_running
;
; short_jump_count = 0;
;
	sta     _short_jump_count
;
; multi_jump = 0;
;
	sta     _multi_jump
;
; projectile_cooldown = 0;
;
	sta     _projectile_cooldown
;
; projectile_count = 0;
;
	sta     _projectile_count
;
; projectile_index = 0;
;
	sta     _projectile_index
;
; player_shooting = 0;
;
	sta     _player_shooting
;
; direction = 1;
;
	lda     #$01
	sta     _direction
;
; direction_y = 0; // down default?
;
	lda     #$00
	sta     _direction_y
;
; frame_counter = 0;
;
	sta     _frame_counter
;
; sprite_frame_counter = 0;
;
	sta     _sprite_frame_counter
;
; r_scroll_frames = 0;
;
	sta     _r_scroll_frames
;
; l_scroll_frames = 0;
;
	sta     _l_scroll_frames
;
; collision = 0;
;
	sta     _collision
;
; death = 0;
;
	sta     _death
;
; BoxGuy1.x = 0x4000;
;
	ldx     #$40
	sta     _BoxGuy1
	stx     _BoxGuy1+1
;
; BoxGuy1.y = 0x8400;   
;
	ldx     #$84
	sta     _BoxGuy1+2
	stx     _BoxGuy1+2+1
;
; BoxGuy1.health = MAX_PLAYER_HEALTH;
;
	lda     #$1C
	sta     _BoxGuy1+8
;
; invul_frames = 0;
;
	lda     #$00
	sta     _invul_frames
;
; game_mode = MODE_GAME;         
;
	lda     #$01
	sta     _game_mode
;
; level = 0;    // debug, change starting level
;
	lda     #$00
	sta     _level
;
; room_to_load = 0; // debug, hacky, change starting room
;
	sta     _room_to_load
;
; debug = 0;
;
	sta     _debug
;
; player_in_hitstun = 0;
;
	sta     _player_in_hitstun
;
; invul_frames = 0;
;
	sta     _invul_frames
;
; nametable_to_load = 0;
;
	sta     _nametable_to_load
;
; for (temp1 = 0; temp1 < MAX_PROJECTILES; ++temp1)
;
	sta     _temp1
L3FE6:	lda     _temp1
	cmp     #$03
	bcs     L3FE7
;
; projectiles_list[temp1] = TURN_OFF;
;
	ldy     _temp1
	lda     #$FF
	sta     _projectiles_list,y
;
; for (temp1 = 0; temp1 < MAX_PROJECTILES; ++temp1)
;
	inc     _temp1
	jmp     L3FE6
;
; for (temp1 = 0; temp1 < MAX_ENTITY; ++temp1)
;
L3FE7:	lda     #$00
	sta     _temp1
L3FE8:	lda     _temp1
	cmp     #$10
	bcs     L3FE9
;
; entity_y[temp1] = TURN_OFF;
;
	ldy     _temp1
	lda     #$FF
	sta     _entity_y,y
;
; for (temp1 = 0; temp1 < MAX_ENTITY; ++temp1)
;
	inc     _temp1
	jmp     L3FE8
;
; for (temp1 = 0; temp1 < MAX_ENEMY; ++temp1)
;
L3FE9:	lda     #$00
	sta     _temp1
L3FEA:	lda     _temp1
	cmp     #$10
	bcs     L32FA
;
; enemy_y[temp1] = TURN_OFF;
;
	ldy     _temp1
	lda     #$FF
	sta     _enemy_y,y
;
; for (temp1 = 0; temp1 < MAX_ENEMY; ++temp1)
;
	inc     _temp1
	jmp     L3FEA
;
; ppu_mask(0); // grayscale mode
;
L32FA:	lda     #$00
	jsr     _ppu_mask
;
; pal_bg(palette_bg);
;
	lda     #<(_palette_bg)
	ldx     #>(_palette_bg)
	jsr     _pal_bg
;
; pal_spr(palette_sp);
;
	lda     #<(_palette_sp)
	ldx     #>(_palette_sp)
	jsr     _pal_spr
;
; bank_spr(0);
;
	lda     #$00
	jsr     _bank_spr
;
; bank_bg(1);
;
	lda     #$01
	jsr     _bank_bg
;
; set_vram_buffer(); // do at least once, sets a pointer to a buffer
;
	jsr     _set_vram_buffer
;
; load_room();
;
	jsr     _load_room
;
; set_scroll_y(0xff); // shift the bg down 1 pixel
;
	ldx     #$00
	lda     #$FF
	jsr     _set_scroll_y
;
; ppu_on_all(); // turn on screen
;
	jmp     _ppu_on_all

.endproc

; ---------------------------------------------------------------
; void __near__ sprite_obj_init (void)
; ---------------------------------------------------------------

.segment	"CODE"

.proc	_sprite_obj_init: near

.segment	"CODE"

;
; pointer = Enemy_list[level];
;
	ldx     #$00
	lda     _level
	asl     a
	bcc     L3FF1
	inx
	clc
L3FF1:	adc     #<(_Enemy_list)
	sta     ptr1
	txa
	adc     #>(_Enemy_list)
	sta     ptr1+1
	ldy     #$01
	lda     (ptr1),y
	sta     _pointer+1
	dey
	lda     (ptr1),y
	sta     _pointer
;
; for (index = 0, index2 = 0; index < MAX_ENEMY; ++index)
;
	tya
	sta     _index
	sta     _index2
L3FF2:	lda     _index
	cmp     #$10
	jcs     L3FF4
;
; enemy_x[index] = 0;
;
	ldy     _index
	lda     #$00
	sta     _enemy_x,y
;
; temp1 = pointer[index2]; // get a byte of data
;
	lda     _pointer
	ldx     _pointer+1
	ldy     _index2
	sta     ptr1
	stx     ptr1+1
	lda     (ptr1),y
	sta     _temp1
;
; enemy_y[index] = temp1;
;
	ldy     _index
	lda     _temp1
	sta     _enemy_y,y
;
; if (temp1 == TURN_OFF)
;
	lda     _temp1
	cmp     #$FF
;
; break;
;
	jeq     L3FF4
;
; ++index2;
;
	inc     _index2
;
; enemy_active[index] = 0;
;
	ldy     _index
	lda     #$00
	sta     _enemy_active,y
;
; temp1 = pointer[index2]; // get a byte of data
;
	lda     _pointer
	ldx     _pointer+1
	ldy     _index2
	sta     ptr1
	stx     ptr1+1
	lda     (ptr1),y
	sta     _temp1
;
; enemy_room[index] = temp1;
;
	ldy     _index
	lda     _temp1
	sta     _enemy_room,y
;
; ++index2;
;
	inc     _index2
;
; temp1 = pointer[index2]; // get a byte of data
;
	lda     _pointer
	ldx     _pointer+1
	ldy     _index2
	sta     ptr1
	stx     ptr1+1
	lda     (ptr1),y
	sta     _temp1
;
; enemy_actual_x[index] = temp1;
;
	ldy     _index
	lda     _temp1
	sta     _enemy_actual_x,y
;
; ++index2;
;
	inc     _index2
;
; temp1 = pointer[index2]; // get a byte of data
;
	lda     _pointer
	ldx     _pointer+1
	ldy     _index2
	sta     ptr1
	stx     ptr1+1
	lda     (ptr1),y
	sta     _temp1
;
; enemy_type[index] = temp1;
;
	ldy     _index
	lda     _temp1
	sta     _enemy_type,y
;
; if (enemy_type[index] == ENEMY_SNAIL)
;
	ldy     _index
	lda     _enemy_type,y
	bne     L3D43
;
; enemy_health[index] = ENEMY_SNAIL_HEALTH; // set enemy health here
;
	ldy     _index
	lda     #$02
	sta     _enemy_health,y
;
; if (enemy_type[index] == ENEMY_OWL)
;
L3D43:	ldy     _index
	lda     _enemy_type,y
	cmp     #$01
	bne     L3D4B
;
; enemy_health[index] = ENEMY_OWL_HEALTH; // set enemy health here
;
	ldy     _index
	sta     _enemy_health,y
;
; if (enemy_type[index] == ENEMY_BEAR)
;
L3D4B:	ldy     _index
	lda     _enemy_type,y
	cmp     #$02
	bne     L3FF3
;
; enemy_health[index] = ENEMY_BEAR_HEALTH; // set enemy health here
;
	ldy     _index
	lda     #$1C
	sta     _enemy_health,y
;
; ++index2;
;
L3FF3:	inc     _index2
;
; for (index = 0, index2 = 0; index < MAX_ENEMY; ++index)
;
	inc     _index
	jmp     L3FF2
;
; for (++index; index < MAX_ENEMY; ++index)
;
L3FF4:	inc     _index
	lda     _index
	cmp     #$10
	bcs     L3D5D
;
; enemy_y[index] = TURN_OFF;
;
	ldy     _index
	lda     #$FF
	sta     _enemy_y,y
;
; enemy_mode[index] = 0;
;
	ldy     _index
	lda     #$00
	sta     _enemy_mode,y
;
; for (++index; index < MAX_ENEMY; ++index)
;
	jmp     L3FF4
;
; }
;
L3D5D:	rts

.endproc

; ---------------------------------------------------------------
; void __near__ entity_obj_init (void)
; ---------------------------------------------------------------

.segment	"CODE"

.proc	_entity_obj_init: near

.segment	"CODE"

;
; pointer = entity_list[level];
;
	ldx     #$00
	lda     _level
	asl     a
	bcc     L3FFA
	inx
	clc
L3FFA:	adc     #<(_entity_list)
	sta     ptr1
	txa
	adc     #>(_entity_list)
	sta     ptr1+1
	ldy     #$01
	lda     (ptr1),y
	sta     _pointer+1
	dey
	lda     (ptr1),y
	sta     _pointer
;
; for (index = 0; index < MAX_ENTITY; ++index)
;
	sty     _index
L3FFB:	lda     _index
	cmp     #$10
	bcs     L3FFC
;
; entity_y[index] = TURN_OFF; // turn off all objects
;
	ldy     _index
	lda     #$FF
	sta     _entity_y,y
;
; for (index = 0; index < MAX_ENTITY; ++index)
;
	inc     _index
	jmp     L3FFB
;
; for (index = 0, index2 = 0; index < MAX_ENTITY; ++index)
;
L3FFC:	lda     #$00
	sta     _index
	sta     _index2
L3FFD:	lda     _index
	cmp     #$10
	bcc     L3FFE
;
; }
;
	rts
;
; entity_x[index] = 0;
;
L3FFE:	ldy     _index
	lda     #$00
	sta     _entity_x,y
;
; temp1 = pointer[index2]; // get a byte of data
;
	lda     _pointer
	ldx     _pointer+1
	ldy     _index2
	sta     ptr1
	stx     ptr1+1
	lda     (ptr1),y
	sta     _temp1
;
; entity_y[index] = temp1;
;
	ldy     _index
	lda     _temp1
	sta     _entity_y,y
;
; if (temp1 == TURN_OFF)
;
	lda     _temp1
	cmp     #$FF
;
; break;
;
	beq     L390E
;
; ++index2;
;
	inc     _index2
;
; entity_active[index] = 0;
;
	ldy     _index
	lda     #$00
	sta     _entity_active,y
;
; temp1 = pointer[index2]; // get a byte of data
;
	lda     _pointer
	ldx     _pointer+1
	ldy     _index2
	sta     ptr1
	stx     ptr1+1
	lda     (ptr1),y
	sta     _temp1
;
; entity_room[index] = temp1;
;
	ldy     _index
	lda     _temp1
	sta     _entity_room,y
;
; ++index2;
;
	inc     _index2
;
; temp1 = pointer[index2]; // get a byte of data
;
	lda     _pointer
	ldx     _pointer+1
	ldy     _index2
	sta     ptr1
	stx     ptr1+1
	lda     (ptr1),y
	sta     _temp1
;
; entity_actual_x[index] = temp1;
;
	ldy     _index
	lda     _temp1
	sta     _entity_actual_x,y
;
; ++index2;
;
	inc     _index2
;
; temp1 = pointer[index2]; // get a byte of data
;
	lda     _pointer
	ldx     _pointer+1
	ldy     _index2
	sta     ptr1
	stx     ptr1+1
	lda     (ptr1),y
	sta     _temp1
;
; entity_type[index] = temp1;
;
	ldy     _index
	lda     _temp1
	sta     _entity_type,y
;
; ++index2;
;
	inc     _index2
;
; for (index = 0, index2 = 0; index < MAX_ENTITY; ++index)
;
	inc     _index
	jmp     L3FFD
;
; }
;
L390E:	rts

.endproc

; ---------------------------------------------------------------
; void __near__ init_death (void)
; ---------------------------------------------------------------

.segment	"CODE"

.proc	_init_death: near

.segment	"CODE"

;
; pal_fade_to(4, 0); // fade to black
;
	lda     #$04
	jsr     pusha
	lda     #$00
	jsr     _pal_fade_to
;
; ppu_off();
;
	jsr     _ppu_off
;
; load_gameover();
;
	jsr     _load_gameover
;
; frame_counter = 0;
;
	lda     #$00
	sta     _frame_counter
;
; scroll_x = 0;
;
	tax
	sta     _scroll_x
	sta     _scroll_x+1
;
; set_scroll_x(0);
;
	jsr     _set_scroll_x
;
; oam_clear();
;
	jsr     _oam_clear
;
; game_mode = MODE_DEATH;
;
	lda     #$03
	sta     _game_mode
;
; ppu_on_all();
;
	jsr     _ppu_on_all
;
; music_stop();
;
	jsr     _music_stop
;
; sfx_play(SFX_PLAYER_DIES, 0);
;
	lda     #$04
	jsr     pusha
	lda     #$00
	jsr     _sfx_play
;
; pal_fade_to(0, 4); // fade to black
;
	lda     #$00
	jsr     pusha
	lda     #$04
	jmp     _pal_fade_to

.endproc

; ---------------------------------------------------------------
; void __near__ level_down_routine (void)
; ---------------------------------------------------------------

.segment	"CODE"

.proc	_level_down_routine: near

.segment	"CODE"

;
; pal_fade_to(4, 0); // fade to black
;
	lda     #$04
	jsr     pusha
	lda     #$00
	jsr     _pal_fade_to
;
; ppu_off();
;
	jsr     _ppu_off
;
; game_mode = MODE_SWITCH; // this handles loading the level
;
	lda     #$04
	sta     _game_mode
;
; --level;
;
	dec     _level
;
; level_down = 0;
;
	lda     #$00
	sta     _level_down
;
; max_rooms = level_max_rooms[level] - 1;
;
	ldy     _level
	lda     _level_max_rooms,y
	sec
	sbc     #$01
	sta     _max_rooms
;
; nametable_to_load = max_rooms % 2;
;
	and     #$01
	sta     _nametable_to_load
;
; if (max_rooms > 1)
;
	lda     _max_rooms
	cmp     #$02
	lda     #$00
	bcc     L4001
;
; max_scroll = (max_rooms * 0x100) - 1;
;
	ldx     _max_rooms
	sec
	sbc     #$01
	bcs     L3EEB
	dex
L3EEB:	sta     _max_scroll
	stx     _max_scroll+1
;
; scroll_x = max_scroll;
;
	sta     _scroll_x
	stx     _scroll_x+1
;
; else
;
	jmp     L4002
;
; max_scroll = 0;
;
L4001:	sta     _max_scroll
	sta     _max_scroll+1
;
; scroll_x = 0;
;
	sta     _scroll_x
	sta     _scroll_x+1
;
; room_to_load = max_rooms;
;
L4002:	lda     _max_rooms
	sta     _room_to_load
;
; }
;
	rts

.endproc

; ---------------------------------------------------------------
; void __near__ level_up_routine (void)
; ---------------------------------------------------------------

.segment	"CODE"

.proc	_level_up_routine: near

.segment	"CODE"

;
; pal_fade_to(4, 0); // fade to black
;
	lda     #$04
	jsr     pusha
	lda     #$00
	jsr     _pal_fade_to
;
; ppu_off();
;
	jsr     _ppu_off
;
; game_mode = MODE_SWITCH; // this handles loading the level
;
	lda     #$04
	sta     _game_mode
;
; ++level;
;
	inc     _level
;
; level_up = 0;
;
	lda     #$00
	sta     _level_up
;
; max_rooms = level_max_rooms[level] - 1;
;
	ldy     _level
	lda     _level_max_rooms,y
	sec
	sbc     #$01
	sta     _max_rooms
;
; nametable_to_load = 0;
;
	lda     #$00
	sta     _nametable_to_load
;
; scroll_x = 0;
;
	tax
	sta     _scroll_x
	sta     _scroll_x+1
;
; room_to_load = 0;
;
	sta     _room_to_load
;
; if (max_rooms > 1)
;
	lda     _max_rooms
	cmp     #$02
	txa
	bcc     L4005
;
; max_scroll = (max_rooms * 0x100) - 1;
;
	ldx     _max_rooms
	sec
	sbc     #$01
	bcs     L4005
	dex
;
; max_scroll = 0;
;
L4005:	sta     _max_scroll
	stx     _max_scroll+1
;
; }
;
	rts

.endproc

; ---------------------------------------------------------------
; void __near__ enemy_snail_behavior (void)
; ---------------------------------------------------------------

.segment	"CODE"

.proc	_enemy_snail_behavior: near

.segment	"CODE"

;
; Generic.x = enemy_x[index];
;
	ldy     _index
	lda     _enemy_x,y
	sta     _Generic
;
; Generic.y = enemy_y[index] + 6; // mid point
;
	ldy     _index
	lda     _enemy_y,y
	clc
	adc     #$06
	sta     _Generic+1
;
; Generic.width = ENEMY_SNAIL_WIDTH;
;
	lda     #$0E
	sta     _Generic+2
;
; Generic.height = ENEMY_SNAIL_HEIGHT;
;
	lda     #$0F
	sta     _Generic+3
;
; if (enemy_frames[index] < 10)
;
	ldy     _index
	lda     _enemy_frames,y
	cmp     #$0A
	bcs     L3BBD
;
; if (enemy_dir[index] == LEFT)
;
	ldy     _index
	ldx     #$00
	lda     _enemy_dir,y
	bne     L4018
;
; enemy_anim[index] = animate_snail1left_data;
;
	lda     _index
	asl     a
	bcc     L4010
	inx
	clc
L4010:	adc     #<(_enemy_anim)
	sta     ptr1
	txa
	adc     #>(_enemy_anim)
	sta     ptr1+1
	lda     #<(_animate_snail1left_data)
	ldy     #$00
	sta     (ptr1),y
	iny
	lda     #>(_animate_snail1left_data)
	sta     (ptr1),y
;
; else
;
	jmp     L3BCC
;
; enemy_anim[index] = animate_snail1right_data;
;
L4018:	lda     _index
	asl     a
	bcc     L4011
	inx
	clc
L4011:	adc     #<(_enemy_anim)
	sta     ptr1
	txa
	adc     #>(_enemy_anim)
	sta     ptr1+1
	lda     #<(_animate_snail1right_data)
	ldy     #$00
	sta     (ptr1),y
	iny
	lda     #>(_animate_snail1right_data)
	sta     (ptr1),y
;
; else if (enemy_frames[index] < 20)
;
	jmp     L3BCC
L3BBD:	ldy     _index
	lda     _enemy_frames,y
	cmp     #$14
	bcs     L3BCD
;
; if (enemy_dir[index] == LEFT)
;
	ldy     _index
	ldx     #$00
	lda     _enemy_dir,y
	bne     L4019
;
; enemy_anim[index] = animate_snail2left_data;
;
	lda     _index
	asl     a
	bcc     L4012
	inx
	clc
L4012:	adc     #<(_enemy_anim)
	sta     ptr1
	txa
	adc     #>(_enemy_anim)
	sta     ptr1+1
	lda     #<(_animate_snail2left_data)
	ldy     #$00
	sta     (ptr1),y
	iny
	lda     #>(_animate_snail2left_data)
	sta     (ptr1),y
;
; else
;
	jmp     L3BCC
;
; enemy_anim[index] = animate_snail2right_data;
;
L4019:	lda     _index
	asl     a
	bcc     L4013
	inx
	clc
L4013:	adc     #<(_enemy_anim)
	sta     ptr1
	txa
	adc     #>(_enemy_anim)
	sta     ptr1+1
	lda     #<(_animate_snail2right_data)
	ldy     #$00
	sta     (ptr1),y
	iny
	lda     #>(_animate_snail2right_data)
	sta     (ptr1),y
;
; else if (enemy_frames[index] < 30)
;
	jmp     L3BCC
L3BCD:	ldy     _index
	lda     _enemy_frames,y
	cmp     #$1E
	bcs     L3BDD
;
; if (enemy_dir[index] == LEFT)
;
	ldy     _index
	ldx     #$00
	lda     _enemy_dir,y
	bne     L401A
;
; enemy_anim[index] = animate_snail3left_data;
;
	lda     _index
	asl     a
	bcc     L4014
	inx
	clc
L4014:	adc     #<(_enemy_anim)
	sta     ptr1
	txa
	adc     #>(_enemy_anim)
	sta     ptr1+1
	lda     #<(_animate_snail3left_data)
	ldy     #$00
	sta     (ptr1),y
	iny
	lda     #>(_animate_snail3left_data)
	sta     (ptr1),y
;
; else
;
	jmp     L3BCC
;
; enemy_anim[index] = animate_snail3right_data;
;
L401A:	lda     _index
	asl     a
	bcc     L4015
	inx
	clc
L4015:	adc     #<(_enemy_anim)
	sta     ptr1
	txa
	adc     #>(_enemy_anim)
	sta     ptr1+1
	lda     #<(_animate_snail3right_data)
	ldy     #$00
	sta     (ptr1),y
	iny
	lda     #>(_animate_snail3right_data)
	sta     (ptr1),y
;
; else
;
	jmp     L3BCC
;
; if (enemy_dir[index] == LEFT)
;
L3BDD:	ldy     _index
	ldx     #$00
	lda     _enemy_dir,y
	bne     L401B
;
; enemy_anim[index] = animate_snail3left_data;
;
	lda     _index
	asl     a
	bcc     L4016
	inx
	clc
L4016:	adc     #<(_enemy_anim)
	sta     ptr1
	txa
	adc     #>(_enemy_anim)
	sta     ptr1+1
	lda     #<(_animate_snail3left_data)
	ldy     #$00
	sta     (ptr1),y
	iny
	lda     #>(_animate_snail3left_data)
;
; else
;
	jmp     L401C
;
; enemy_anim[index] = animate_snail3right_data;
;
L401B:	lda     _index
	asl     a
	bcc     L4017
	inx
	clc
L4017:	adc     #<(_enemy_anim)
	sta     ptr1
	txa
	adc     #>(_enemy_anim)
	sta     ptr1+1
	lda     #<(_animate_snail3right_data)
	ldy     #$00
	sta     (ptr1),y
	iny
	lda     #>(_animate_snail3right_data)
L401C:	sta     (ptr1),y
;
; enemy_frames[index] = 0;
;
	ldy     _index
	lda     #$00
	sta     _enemy_frames,y
;
; if (enemy_frames[index] % 3 == 0)
;
L3BCC:	ldy     _index
	lda     _enemy_frames,y
	jsr     pusha0
	lda     #$03
	jsr     tosumoda0
	cpx     #$00
	beq     L401E
;
; }
;
	rts
;
; if (enemy_frames[index] % 3 == 0)
;
L401E:	cmp     #$00
	beq     L401F
;
; }
;
	rts
;
; if (enemy_mode[index] == 0)
;
L401F:	ldy     _index
	lda     _enemy_mode,y
	bne     L3C01
;
; Generic.x -= 1; // test going left
;
	dec     _Generic
;
; bg_collision_fast();
;
	jsr     _bg_collision_fast
;
; if (collision_L)
;
	lda     _collision_L
	beq     L3C08
;
; enemy_mode[index] = 1;
;
	ldy     _index
	lda     #$01
;
; return;
;
	jmp     L400F
;
; if (collision_D) // needs ground under it
;
L3C08:	lda     _collision_D
	beq     L3C0E
;
; if (enemy_actual_x[index] == 0)
;
	ldy     _index
	lda     _enemy_actual_x,y
	bne     L3C10
;
; --enemy_room[index];
;
	lda     #<(_enemy_room)
	ldx     #>(_enemy_room)
	clc
	adc     _index
	bcc     L3C16
	inx
L3C16:	sta     ptr1
	stx     ptr1+1
	ldy     #$00
	lda     (ptr1),y
	sec
	sbc     #$01
	sta     (ptr1),y
;
; --enemy_actual_x[index];
;
L3C10:	lda     #<(_enemy_actual_x)
	ldx     #>(_enemy_actual_x)
	clc
	adc     _index
	bcc     L3C19
	inx
L3C19:	sta     ptr1
	stx     ptr1+1
	ldy     #$00
	lda     (ptr1),y
	sec
	sbc     #$01
	sta     (ptr1),y
;
; enemy_dir[index] = LEFT;
;
	ldy     _index
	lda     #$00
	sta     _enemy_dir,y
;
; else
;
	rts
;
; enemy_mode[index] = 1;
;
L3C0E:	ldy     _index
	lda     #$01
;
; else if (enemy_mode[index] == 1)
;
	jmp     L400F
L3C01:	ldy     _index
	lda     _enemy_mode,y
	cmp     #$01
	bne     L3C41
;
; Generic.x += 1; // test going right
;
	inc     _Generic
;
; bg_collision_fast();
;
	jsr     _bg_collision_fast
;
; if (collision_R)
;
	lda     _collision_R
;
; return;
;
	bne     L3C31
;
; if (collision_D)
;
	lda     _collision_D
	beq     L3C31
;
; ++enemy_actual_x[index];
;
	lda     #<(_enemy_actual_x)
	ldx     #>(_enemy_actual_x)
	clc
	adc     _index
	bcc     L3C35
	inx
L3C35:	sta     ptr1
	stx     ptr1+1
	ldy     #$00
	lda     #$01
	clc
	adc     (ptr1),y
	sta     (ptr1),y
;
; if (enemy_actual_x[index] == 0)
;
	ldy     _index
	lda     _enemy_actual_x,y
	bne     L3C36
;
; ++enemy_room[index];
;
	lda     #<(_enemy_room)
	ldx     #>(_enemy_room)
	clc
	adc     _index
	bcc     L3C3C
	inx
L3C3C:	sta     ptr1
	stx     ptr1+1
	ldy     #$00
	lda     #$01
	clc
	adc     (ptr1),y
	sta     (ptr1),y
;
; enemy_dir[index] = RIGHT;
;
L3C36:	ldy     _index
	lda     #$01
	sta     _enemy_dir,y
;
; else
;
	rts
;
; enemy_mode[index] = 0;
;
L3C31:	ldy     _index
	lda     #$00
L400F:	sta     _enemy_mode,y
;
; }
;
L3C41:	rts

.endproc

; ---------------------------------------------------------------
; void __near__ enemy_owl_behavior (void)
; ---------------------------------------------------------------

.segment	"CODE"

.proc	_enemy_owl_behavior: near

.segment	"CODE"

;
; if (enemy_x[index] > Generic2.x      // enemy right of player
;
	ldy     _index
	lda     _enemy_x,y
;
; && enemy_x[index] - Generic2.x < 50) // and close
;
	sec
	sbc     _Generic2
	bcc     L3C47
	beq     L3C47
	ldy     _index
	lda     _enemy_x,y
	sec
	sbc     _Generic2
	cmp     #$32
	bcs     L3C47
;
; enemy_mode[index] = 1;
;
	ldy     _index
	lda     #$01
	sta     _enemy_mode,y
;
; if (enemy_x[index] < Generic2.x      // enemy left of player
;
L3C47:	ldy     _index
	lda     _enemy_x,y
;
; && Generic2.x - enemy_x[index] < 50) // and close
;
	cmp     _Generic2
	bcs     L3C54
	lda     _Generic2
	jsr     pusha0
	ldy     _index
	lda     _enemy_x,y
	jsr     tossuba0
	cpx     #$00
	bne     L3C5B
	cmp     #$32
L3C5B:	bcs     L3C54
;
; enemy_mode[index] = 1;
;
	ldy     _index
	lda     #$01
	sta     _enemy_mode,y
;
; if (enemy_mode[index] == 0)
;
L3C54:	ldy     _index
	lda     _enemy_mode,y
	bne     L3C61
;
; if (enemy_dir[index] == LEFT)
;
	ldy     _index
	tax
	lda     _enemy_dir,y
	bne     L4044
;
; enemy_anim[index] = animate_hootyowl5left_data;
;
	lda     _index
	asl     a
	bcc     L4032
	inx
	clc
L4032:	adc     #<(_enemy_anim)
	sta     ptr1
	txa
	adc     #>(_enemy_anim)
	sta     ptr1+1
	lda     #<(_animate_hootyowl5left_data)
	ldy     #$00
	sta     (ptr1),y
	iny
	lda     #>(_animate_hootyowl5left_data)
	sta     (ptr1),y
;
; else
;
	jmp     L3C70
;
; enemy_anim[index] = animate_hootyowl5right_data;
;
L4044:	lda     _index
	asl     a
	bcc     L4033
	inx
	clc
L4033:	adc     #<(_enemy_anim)
	sta     ptr1
	txa
	adc     #>(_enemy_anim)
	sta     ptr1+1
	lda     #<(_animate_hootyowl5right_data)
	ldy     #$00
	sta     (ptr1),y
	iny
	lda     #>(_animate_hootyowl5right_data)
	sta     (ptr1),y
;
; else
;
	jmp     L3C70
;
; if (enemy_frames[index] < 4)
;
L3C61:	ldy     _index
	lda     _enemy_frames,y
	cmp     #$04
	bcs     L3C71
;
; if (enemy_dir[index] == LEFT)
;
	ldy     _index
	ldx     #$00
	lda     _enemy_dir,y
	bne     L4045
;
; enemy_anim[index] = animate_hootyowl1left_data;
;
	lda     _index
	asl     a
	bcc     L4034
	inx
	clc
L4034:	adc     #<(_enemy_anim)
	sta     ptr1
	txa
	adc     #>(_enemy_anim)
	sta     ptr1+1
	lda     #<(_animate_hootyowl1left_data)
	ldy     #$00
	sta     (ptr1),y
	iny
	lda     #>(_animate_hootyowl1left_data)
	sta     (ptr1),y
;
; else
;
	jmp     L3C70
;
; enemy_anim[index] = animate_hootyowl1right_data;
;
L4045:	lda     _index
	asl     a
	bcc     L4035
	inx
	clc
L4035:	adc     #<(_enemy_anim)
	sta     ptr1
	txa
	adc     #>(_enemy_anim)
	sta     ptr1+1
	lda     #<(_animate_hootyowl1right_data)
	ldy     #$00
	sta     (ptr1),y
	iny
	lda     #>(_animate_hootyowl1right_data)
	sta     (ptr1),y
;
; else if (enemy_frames[index] < 8)
;
	jmp     L3C70
L3C71:	ldy     _index
	lda     _enemy_frames,y
	cmp     #$08
	bcs     L3C81
;
; if (enemy_dir[index] == LEFT)
;
	ldy     _index
	ldx     #$00
	lda     _enemy_dir,y
	bne     L4046
;
; enemy_anim[index] = animate_hootyowl2left_data;
;
	lda     _index
	asl     a
	bcc     L4036
	inx
	clc
L4036:	adc     #<(_enemy_anim)
	sta     ptr1
	txa
	adc     #>(_enemy_anim)
	sta     ptr1+1
	lda     #<(_animate_hootyowl2left_data)
	ldy     #$00
	sta     (ptr1),y
	iny
	lda     #>(_animate_hootyowl2left_data)
	sta     (ptr1),y
;
; else
;
	jmp     L3C70
;
; enemy_anim[index] = animate_hootyowl2right_data;
;
L4046:	lda     _index
	asl     a
	bcc     L4037
	inx
	clc
L4037:	adc     #<(_enemy_anim)
	sta     ptr1
	txa
	adc     #>(_enemy_anim)
	sta     ptr1+1
	lda     #<(_animate_hootyowl2right_data)
	ldy     #$00
	sta     (ptr1),y
	iny
	lda     #>(_animate_hootyowl2right_data)
	sta     (ptr1),y
;
; else if (enemy_frames[index] < 12)
;
	jmp     L3C70
L3C81:	ldy     _index
	lda     _enemy_frames,y
	cmp     #$0C
	bcs     L3C91
;
; if (enemy_dir[index] == LEFT)
;
	ldy     _index
	ldx     #$00
	lda     _enemy_dir,y
	bne     L4047
;
; enemy_anim[index] = animate_hootyowl3left_data;
;
	lda     _index
	asl     a
	bcc     L4038
	inx
	clc
L4038:	adc     #<(_enemy_anim)
	sta     ptr1
	txa
	adc     #>(_enemy_anim)
	sta     ptr1+1
	lda     #<(_animate_hootyowl3left_data)
	ldy     #$00
	sta     (ptr1),y
	iny
	lda     #>(_animate_hootyowl3left_data)
	sta     (ptr1),y
;
; else
;
	jmp     L3C70
;
; enemy_anim[index] = animate_hootyowl3right_data;
;
L4047:	lda     _index
	asl     a
	bcc     L4039
	inx
	clc
L4039:	adc     #<(_enemy_anim)
	sta     ptr1
	txa
	adc     #>(_enemy_anim)
	sta     ptr1+1
	lda     #<(_animate_hootyowl3right_data)
	ldy     #$00
	sta     (ptr1),y
	iny
	lda     #>(_animate_hootyowl3right_data)
	sta     (ptr1),y
;
; else if (enemy_frames[index] < 16)
;
	jmp     L3C70
L3C91:	ldy     _index
	lda     _enemy_frames,y
	cmp     #$10
	bcs     L3CA1
;
; if (enemy_dir[index] == LEFT)
;
	ldy     _index
	ldx     #$00
	lda     _enemy_dir,y
	bne     L4048
;
; enemy_anim[index] = animate_hootyowl4left_data;
;
	lda     _index
	asl     a
	bcc     L403A
	inx
	clc
L403A:	adc     #<(_enemy_anim)
	sta     ptr1
	txa
	adc     #>(_enemy_anim)
	sta     ptr1+1
	lda     #<(_animate_hootyowl4left_data)
	ldy     #$00
	sta     (ptr1),y
	iny
	lda     #>(_animate_hootyowl4left_data)
	sta     (ptr1),y
;
; else
;
	jmp     L3C70
;
; enemy_anim[index] = animate_hootyowl4right_data;
;
L4048:	lda     _index
	asl     a
	bcc     L403B
	inx
	clc
L403B:	adc     #<(_enemy_anim)
	sta     ptr1
	txa
	adc     #>(_enemy_anim)
	sta     ptr1+1
	lda     #<(_animate_hootyowl4right_data)
	ldy     #$00
	sta     (ptr1),y
	iny
	lda     #>(_animate_hootyowl4right_data)
	sta     (ptr1),y
;
; else if (enemy_frames[index] < 20)
;
	jmp     L3C70
L3CA1:	ldy     _index
	lda     _enemy_frames,y
	cmp     #$14
	bcs     L3CB1
;
; if (enemy_dir[index] == LEFT)
;
	ldy     _index
	ldx     #$00
	lda     _enemy_dir,y
	bne     L4049
;
; enemy_anim[index] = animate_hootyowl3left_data;
;
	lda     _index
	asl     a
	bcc     L403C
	inx
	clc
L403C:	adc     #<(_enemy_anim)
	sta     ptr1
	txa
	adc     #>(_enemy_anim)
	sta     ptr1+1
	lda     #<(_animate_hootyowl3left_data)
	ldy     #$00
	sta     (ptr1),y
	iny
	lda     #>(_animate_hootyowl3left_data)
	sta     (ptr1),y
;
; else
;
	jmp     L3C70
;
; enemy_anim[index] = animate_hootyowl3right_data;
;
L4049:	lda     _index
	asl     a
	bcc     L403D
	inx
	clc
L403D:	adc     #<(_enemy_anim)
	sta     ptr1
	txa
	adc     #>(_enemy_anim)
	sta     ptr1+1
	lda     #<(_animate_hootyowl3right_data)
	ldy     #$00
	sta     (ptr1),y
	iny
	lda     #>(_animate_hootyowl3right_data)
	sta     (ptr1),y
;
; else if (enemy_frames[index] < 24)
;
	jmp     L3C70
L3CB1:	ldy     _index
	lda     _enemy_frames,y
	cmp     #$18
	bcs     L3CC1
;
; if (enemy_dir[index] == LEFT)
;
	ldy     _index
	ldx     #$00
	lda     _enemy_dir,y
	bne     L404A
;
; enemy_anim[index] = animate_hootyowl2left_data;
;
	lda     _index
	asl     a
	bcc     L403E
	inx
	clc
L403E:	adc     #<(_enemy_anim)
	sta     ptr1
	txa
	adc     #>(_enemy_anim)
	sta     ptr1+1
	lda     #<(_animate_hootyowl2left_data)
	ldy     #$00
	sta     (ptr1),y
	iny
	lda     #>(_animate_hootyowl2left_data)
	sta     (ptr1),y
;
; else
;
	jmp     L3C70
;
; enemy_anim[index] = animate_hootyowl2right_data;
;
L404A:	lda     _index
	asl     a
	bcc     L403F
	inx
	clc
L403F:	adc     #<(_enemy_anim)
	sta     ptr1
	txa
	adc     #>(_enemy_anim)
	sta     ptr1+1
	lda     #<(_animate_hootyowl2right_data)
	ldy     #$00
	sta     (ptr1),y
	iny
	lda     #>(_animate_hootyowl2right_data)
	sta     (ptr1),y
;
; else
;
	jmp     L3C70
;
; if (enemy_dir[index] == LEFT)
;
L3CC1:	ldy     _index
	ldx     #$00
	lda     _enemy_dir,y
	bne     L404B
;
; enemy_anim[index] = animate_hootyowl1left_data;
;
	lda     _index
	asl     a
	bcc     L4040
	inx
	clc
L4040:	adc     #<(_enemy_anim)
	sta     ptr1
	txa
	adc     #>(_enemy_anim)
	sta     ptr1+1
	lda     #<(_animate_hootyowl1left_data)
	ldy     #$00
	sta     (ptr1),y
	iny
	lda     #>(_animate_hootyowl1left_data)
;
; else
;
	jmp     L404C
;
; enemy_anim[index] = animate_hootyowl1right_data;
;
L404B:	lda     _index
	asl     a
	bcc     L4041
	inx
	clc
L4041:	adc     #<(_enemy_anim)
	sta     ptr1
	txa
	adc     #>(_enemy_anim)
	sta     ptr1+1
	lda     #<(_animate_hootyowl1right_data)
	ldy     #$00
	sta     (ptr1),y
	iny
	lda     #>(_animate_hootyowl1right_data)
L404C:	sta     (ptr1),y
;
; enemy_frames[index] = 0;
;
	ldy     _index
	lda     #$00
	sta     _enemy_frames,y
;
; if (enemy_mode[index] == 1) // he moves every 3 frames after activated
;
L3C70:	ldy     _index
	lda     _enemy_mode,y
	cmp     #$01
	beq     L404D
;
; }
;
	rts
;
; ++enemy_y[index];
;
L404D:	lda     #<(_enemy_y)
	ldx     #>(_enemy_y)
	clc
	adc     _index
	bcc     L3CE6
	inx
L3CE6:	sta     ptr1
	stx     ptr1+1
	ldy     #$00
	lda     #$01
	clc
	adc     (ptr1),y
	sta     (ptr1),y
;
; if (enemy_x[index] > Generic2.x) // enemy is right of player
;
	ldy     _index
	lda     _enemy_x,y
	sec
	sbc     _Generic2
	bcc     L3CE7
	beq     L3CE7
;
; if (enemy_actual_x[index] == 0)
;
	ldy     _index
	lda     _enemy_actual_x,y
	bne     L3CEB
;
; --enemy_room[index]; // I think there's a bug here
;
	lda     #<(_enemy_room)
	ldx     #>(_enemy_room)
	clc
	adc     _index
	bcc     L3CF1
	inx
L3CF1:	sta     ptr1
	stx     ptr1+1
	ldy     #$00
	lda     (ptr1),y
	sec
	sbc     #$01
	sta     (ptr1),y
;
; --enemy_actual_x[index];
;
L3CEB:	lda     #<(_enemy_actual_x)
	ldx     #>(_enemy_actual_x)
	clc
	adc     _index
	bcc     L3CF4
	inx
L3CF4:	sta     ptr1
	stx     ptr1+1
	ldy     #$00
	lda     (ptr1),y
	sec
	sbc     #$01
	sta     (ptr1),y
;
; enemy_dir[index] = LEFT;
;
	ldy     _index
	lda     #$00
;
; else if (enemy_x[index] < Generic2.x) // enemy is left of player
;
	jmp     L4031
L3CE7:	ldy     _index
	lda     _enemy_x,y
	cmp     _Generic2
	bcs     L3CFA
;
; ++enemy_actual_x[index];
;
	lda     #<(_enemy_actual_x)
	ldx     #>(_enemy_actual_x)
	clc
	adc     _index
	bcc     L3D00
	inx
L3D00:	sta     ptr1
	stx     ptr1+1
	ldy     #$00
	lda     #$01
	clc
	adc     (ptr1),y
	sta     (ptr1),y
;
; if (enemy_actual_x[index] == 0)
;
	ldy     _index
	lda     _enemy_actual_x,y
	bne     L3D01
;
; ++enemy_room[index]; // I think there's a bug here
;
	lda     #<(_enemy_room)
	ldx     #>(_enemy_room)
	clc
	adc     _index
	bcc     L3D07
	inx
L3D07:	sta     ptr1
	stx     ptr1+1
	ldy     #$00
	lda     #$01
	clc
	adc     (ptr1),y
	sta     (ptr1),y
;
; enemy_dir[index] = RIGHT;
;
L3D01:	ldy     _index
	lda     #$01
L4031:	sta     _enemy_dir,y
;
; }
;
L3CFA:	rts

.endproc

; ---------------------------------------------------------------
; void __near__ enemy_bear_behavior (void)
; ---------------------------------------------------------------

.segment	"CODE"

.proc	_enemy_bear_behavior: near

.segment	"CODE"

;
; Generic.x = enemy_x[index];
;
	ldy     _index
	lda     _enemy_x,y
	sta     _Generic
;
; Generic.y = enemy_y[index] + 6; // mid point
;
	ldy     _index
	lda     _enemy_y,y
	clc
	adc     #$06
	sta     _Generic+1
;
; Generic.width = ENEMY_BEAR_WIDTH;
;
	lda     #$0E
	sta     _Generic+2
;
; Generic.height = ENEMY_BEAR_HEIGHT;
;
	lda     #$20
	sta     _Generic+3
;
; if (enemy_mode[index] == BEAR_WALK)
;
	ldy     _index
	lda     _enemy_mode,y
	bne     L39F7
;
; if(frame_counter > 250){
;
	lda     _frame_counter
	cmp     #$FB
	bcc     L39FB
;
; enemy_mode[index] = BEAR_PREP_ATTACK;
;
	ldy     _index
	lda     #$03
	sta     _enemy_mode,y
;
; frame_counter = 0;
;
	lda     #$00
	sta     _frame_counter
;
; else if ((enemy_actual_x[index] >= Generic2.x && ((enemy_actual_x[index] - Generic2.x) > 100)) ||
;
	jmp     L39F7
L39FB:	ldy     _index
	lda     _enemy_actual_x,y
	cmp     _Generic2
	bcc     L4069
	ldy     _index
	lda     _enemy_actual_x,y
	sec
	sbc     _Generic2
	cmp     #$65
	bcs     L4091
;
; (enemy_actual_x[index] < Generic2.x && ((Generic2.x - enemy_actual_x[index]) > 100)))
;
L4069:	ldy     _index
	lda     _enemy_actual_x,y
	cmp     _Generic2
	bcs     L39F7
	lda     _Generic2
	jsr     pusha0
	ldy     _index
	lda     _enemy_actual_x,y
	jsr     tossuba0
	cmp     #$65
	txa
	sbc     #$00
	bcc     L39F7
;
; enemy_mode[index] = BEAR_PREP_RUN;
;
L4091:	ldy     _index
	lda     #$01
	sta     _enemy_mode,y
;
; if (enemy_mode[index] == BEAR_PREP_RUN)
;
L39F7:	ldy     _index
	lda     _enemy_mode,y
	cmp     #$01
	bne     L3A1D
;
; if (enemy_frames[index] > 50)
;
	ldy     _index
	lda     _enemy_frames,y
	cmp     #$33
	bcc     L3A1D
;
; enemy_mode[index] = BEAR_RUN;
;
	ldy     _index
	lda     #$02
	sta     _enemy_mode,y
;
; enemy_frames[index] = 0;
;
	ldy     _index
	lda     #$00
	sta     _enemy_frames,y
;
; frame_counter = 0;
;
	sta     _frame_counter
;
; if(enemy_mode[index] == BEAR_PREP_ATTACK)
;
L3A1D:	ldy     _index
	lda     _enemy_mode,y
	cmp     #$03
	bne     L3A2F
;
; if (enemy_frames[index] > 60)
;
	ldy     _index
	lda     _enemy_frames,y
	cmp     #$3D
	bcc     L3A2F
;
; enemy_mode[index] = BEAR_ATTACK;
;
	ldy     _index
	lda     #$04
	sta     _enemy_mode,y
;
; enemy_frames[index] = 0;
;
	ldy     _index
	lda     #$00
	sta     _enemy_frames,y
;
; frame_counter = 0;
;
	sta     _frame_counter
;
; if (enemy_mode[index] == BEAR_RUN)
;
L3A2F:	ldy     _index
	lda     _enemy_mode,y
	cmp     #$02
	bne     L3A41
;
; if (frame_counter > 100)
;
	lda     _frame_counter
	cmp     #$65
	bcc     L3A41
;
; enemy_mode[index] = BEAR_WALK;
;
	ldy     _index
	lda     #$00
	sta     _enemy_mode,y
;
; enemy_frames[index] = 0;
;
	ldy     _index
	sta     _enemy_frames,y
;
; if(enemy_mode[index] == BEAR_ATTACK)
;
L3A41:	ldy     _index
	lda     _enemy_mode,y
	cmp     #$04
	jne     L3A4F
;
; if(frame_counter == 0){
;
	lda     _frame_counter
	bne     L4092
;
; entity_y[1] = 60;
;
	lda     #$3C
	sta     _entity_y+1
;
; entity_x[1] = 40;
;
	lda     #$28
	sta     _entity_x+1
;
; entity_room[1] = enemy_room[index];
;
	ldy     _index
	lda     _enemy_room,y
	sta     _entity_room+1
;
; entity_active[1] = 1;
;
	lda     #$01
	sta     _entity_active+1
;
; entity_type[1] = ENTITY_ROCK;
;
	lda     #$0B
	sta     _entity_type+1
;
; entity_actual_x[1] = 40;
;
	lda     #$28
	sta     _entity_actual_x+1
;
; entity_y[2] = 40;
;
	sta     _entity_y+2
;
; entity_x[2] = 100;
;
	lda     #$64
	sta     _entity_x+2
;
; entity_room[2] = enemy_room[index];
;
	ldy     _index
	lda     _enemy_room,y
	sta     _entity_room+2
;
; entity_active[2] = 1;
;
	lda     #$01
	sta     _entity_active+2
;
; entity_type[2] = ENTITY_ROCK;
;
	lda     #$0B
	sta     _entity_type+2
;
; entity_actual_x[2] = 100;
;
	lda     #$64
	sta     _entity_actual_x+2
;
; entity_y[3] = 10;
;
	lda     #$0A
	sta     _entity_y+3
;
; entity_x[3] = 160;
;
	lda     #$A0
	sta     _entity_x+3
;
; entity_room[3] = enemy_room[index];
;
	ldy     _index
	lda     _enemy_room,y
	sta     _entity_room+3
;
; entity_active[3] = 1;
;
	lda     #$01
	sta     _entity_active+3
;
; entity_type[3] = ENTITY_ROCK;
;
	lda     #$0B
	sta     _entity_type+3
;
; entity_actual_x[3] = 160;
;
	lda     #$A0
	sta     _entity_actual_x+3
;
; if (frame_counter > 150)
;
L4092:	lda     _frame_counter
	cmp     #$97
	bcc     L3A4F
;
; enemy_mode[index] = BEAR_WALK;
;
	ldy     _index
	lda     #$00
	sta     _enemy_mode,y
;
; enemy_frames[index] = 0;
;
	ldy     _index
	sta     _enemy_frames,y
;
; switch (enemy_mode[index])
;
L3A4F:	ldy     _index
	ldx     #$00
	lda     _enemy_mode,y
;
; }
;
	beq     L3AA1
	cmp     #$01
	jeq     L3AF4
	cmp     #$02
	jeq     L3B1F
	cmp     #$03
	jeq     L4099
	cmp     #$04
	jeq     L3B12
	jmp     L3A9F
;
; if (enemy_frames[index] < 10)
;
L3AA1:	ldy     _index
	lda     _enemy_frames,y
	cmp     #$0A
	bcs     L3AA3
;
; if (enemy_dir[index] == LEFT)
;
	ldy     _index
	lda     _enemy_dir,y
	bne     L4093
;
; enemy_anim[index] = animate_bearwalk1eft_data;
;
	lda     _index
	asl     a
	bcc     L406E
	inx
	clc
L406E:	adc     #<(_enemy_anim)
	sta     ptr1
	txa
	adc     #>(_enemy_anim)
	sta     ptr1+1
	lda     #<(_animate_bearwalk1eft_data)
	ldy     #$00
	sta     (ptr1),y
	iny
	lda     #>(_animate_bearwalk1eft_data)
	sta     (ptr1),y
;
; else
;
	jmp     L3A9F
;
; enemy_anim[index] = animate_bearwalkright_data;
;
L4093:	lda     _index
	asl     a
	bcc     L406F
	inx
	clc
L406F:	adc     #<(_enemy_anim)
	sta     ptr1
	txa
	adc     #>(_enemy_anim)
	sta     ptr1+1
	lda     #<(_animate_bearwalkright_data)
	ldy     #$00
	sta     (ptr1),y
	iny
	lda     #>(_animate_bearwalkright_data)
	sta     (ptr1),y
;
; else if (enemy_frames[index] < 20)
;
	jmp     L3A9F
L3AA3:	ldy     _index
	lda     _enemy_frames,y
	cmp     #$14
	bcs     L3AB3
;
; if (enemy_dir[index] == LEFT)
;
	ldy     _index
	lda     _enemy_dir,y
	bne     L4094
;
; enemy_anim[index] = animate_bearwalk2left_data;
;
	lda     _index
	asl     a
	bcc     L4070
	inx
	clc
L4070:	adc     #<(_enemy_anim)
	sta     ptr1
	txa
	adc     #>(_enemy_anim)
	sta     ptr1+1
	lda     #<(_animate_bearwalk2left_data)
	ldy     #$00
	sta     (ptr1),y
	iny
	lda     #>(_animate_bearwalk2left_data)
	sta     (ptr1),y
;
; else
;
	jmp     L3A9F
;
; enemy_anim[index] = animate_bearwalk2right_data;
;
L4094:	lda     _index
	asl     a
	bcc     L4071
	inx
	clc
L4071:	adc     #<(_enemy_anim)
	sta     ptr1
	txa
	adc     #>(_enemy_anim)
	sta     ptr1+1
	lda     #<(_animate_bearwalk2right_data)
	ldy     #$00
	sta     (ptr1),y
	iny
	lda     #>(_animate_bearwalk2right_data)
	sta     (ptr1),y
;
; else if (enemy_frames[index] < 30)
;
	jmp     L3A9F
L3AB3:	ldy     _index
	lda     _enemy_frames,y
	cmp     #$1E
	bcs     L3AC3
;
; if (enemy_dir[index] == LEFT)
;
	ldy     _index
	lda     _enemy_dir,y
	bne     L4095
;
; enemy_anim[index] = animate_bearwalk3left_data;
;
	lda     _index
	asl     a
	bcc     L4072
	inx
	clc
L4072:	adc     #<(_enemy_anim)
	sta     ptr1
	txa
	adc     #>(_enemy_anim)
	sta     ptr1+1
	lda     #<(_animate_bearwalk3left_data)
	ldy     #$00
	sta     (ptr1),y
	iny
	lda     #>(_animate_bearwalk3left_data)
	sta     (ptr1),y
;
; else
;
	jmp     L3A9F
;
; enemy_anim[index] = animate_bearwalk3right_data;
;
L4095:	lda     _index
	asl     a
	bcc     L4073
	inx
	clc
L4073:	adc     #<(_enemy_anim)
	sta     ptr1
	txa
	adc     #>(_enemy_anim)
	sta     ptr1+1
	lda     #<(_animate_bearwalk3right_data)
	ldy     #$00
	sta     (ptr1),y
	iny
	lda     #>(_animate_bearwalk3right_data)
	sta     (ptr1),y
;
; else if (enemy_frames[index] < 40)
;
	jmp     L3A9F
L3AC3:	ldy     _index
	lda     _enemy_frames,y
	cmp     #$28
	bcs     L3AD3
;
; if (enemy_dir[index] == LEFT)
;
	ldy     _index
	lda     _enemy_dir,y
	bne     L4096
;
; enemy_anim[index] = animate_bearwalk2left_data;
;
	lda     _index
	asl     a
	bcc     L4074
	inx
	clc
L4074:	adc     #<(_enemy_anim)
	sta     ptr1
	txa
	adc     #>(_enemy_anim)
	sta     ptr1+1
	lda     #<(_animate_bearwalk2left_data)
	ldy     #$00
	sta     (ptr1),y
	iny
	lda     #>(_animate_bearwalk2left_data)
	sta     (ptr1),y
;
; else
;
	jmp     L3A9F
;
; enemy_anim[index] = animate_bearwalk2right_data;
;
L4096:	lda     _index
	asl     a
	bcc     L4075
	inx
	clc
L4075:	adc     #<(_enemy_anim)
	sta     ptr1
	txa
	adc     #>(_enemy_anim)
	sta     ptr1+1
	lda     #<(_animate_bearwalk2right_data)
	ldy     #$00
	sta     (ptr1),y
	iny
	lda     #>(_animate_bearwalk2right_data)
	sta     (ptr1),y
;
; else
;
	jmp     L3A9F
;
; if (enemy_dir[index] == LEFT)
;
L3AD3:	ldy     _index
	lda     _enemy_dir,y
	jne     L40A1
;
; enemy_anim[index] = animate_bearwalk1eft_data;
;
	lda     _index
	asl     a
	bcc     L4076
	inx
	clc
L4076:	adc     #<(_enemy_anim)
	sta     ptr1
	txa
	adc     #>(_enemy_anim)
	sta     ptr1+1
	lda     #<(_animate_bearwalk1eft_data)
	ldy     #$00
	sta     (ptr1),y
	iny
	lda     #>(_animate_bearwalk1eft_data)
;
; else
;
	jmp     L40A4
;
; if (enemy_dir[index] == LEFT)
;
L3AF4:	ldy     _index
	lda     _enemy_dir,y
	bne     L4098
;
; enemy_anim[index] = animate_beararms_data;
;
	lda     _index
	asl     a
	bcc     L4078
	inx
	clc
L4078:	adc     #<(_enemy_anim)
	sta     ptr1
	txa
	adc     #>(_enemy_anim)
	sta     ptr1+1
	lda     #<(_animate_beararms_data)
	ldy     #$00
	sta     (ptr1),y
	iny
	lda     #>(_animate_beararms_data)
	sta     (ptr1),y
;
; else
;
	jmp     L3A9F
;
; enemy_anim[index] = animate_beararmsright_data;
;
L4098:	lda     _index
	asl     a
	bcc     L4079
	inx
	clc
L4079:	adc     #<(_enemy_anim)
	sta     ptr1
	txa
	adc     #>(_enemy_anim)
	sta     ptr1+1
	lda     #<(_animate_beararmsright_data)
	ldy     #$00
	sta     (ptr1),y
	iny
	lda     #>(_animate_beararmsright_data)
	sta     (ptr1),y
;
; break;
;
	jmp     L3A9F
;
; if(frame_counter < 20){
;
L4099:	lda     _frame_counter
	cmp     #$14
	bcs     L409A
;
; enemy_anim[index] = animate_bearroarright_data;
;
	lda     _index
	asl     a
	bcc     L407A
	inx
	clc
L407A:	adc     #<(_enemy_anim)
	sta     ptr1
	txa
	adc     #>(_enemy_anim)
	sta     ptr1+1
	lda     #<(_animate_bearroarright_data)
	ldy     #$00
	sta     (ptr1),y
	iny
	lda     #>(_animate_bearroarright_data)
	sta     (ptr1),y
;
; } else if(frame_counter < 40) {
;
	jmp     L3A9F
L409A:	lda     _frame_counter
	cmp     #$28
	bcs     L409B
;
; enemy_anim[index] = animate_bearroarleft_data;
;
	lda     _index
	asl     a
	bcc     L407B
	inx
	clc
L407B:	adc     #<(_enemy_anim)
	sta     ptr1
	txa
	adc     #>(_enemy_anim)
	sta     ptr1+1
	lda     #<(_animate_bearroarleft_data)
	ldy     #$00
	sta     (ptr1),y
	iny
	lda     #>(_animate_bearroarleft_data)
	sta     (ptr1),y
;
; } else {
;
	jmp     L3A9F
;
; enemy_anim[index] = animate_bearroarright_data;
;
L409B:	lda     _index
	asl     a
	bcc     L407C
	inx
	clc
L407C:	adc     #<(_enemy_anim)
	sta     ptr1
	txa
	adc     #>(_enemy_anim)
	sta     ptr1+1
	lda     #<(_animate_bearroarright_data)
	ldy     #$00
	sta     (ptr1),y
	iny
	lda     #>(_animate_bearroarright_data)
	sta     (ptr1),y
;
; break;
;
	jmp     L3A9F
;
; if (enemy_dir[index] == LEFT)
;
L3B12:	ldy     _index
	lda     _enemy_dir,y
	bne     L409C
;
; enemy_anim[index] = animate_beararms_data;
;
	lda     _index
	asl     a
	bcc     L407D
	inx
	clc
L407D:	adc     #<(_enemy_anim)
	sta     ptr1
	txa
	adc     #>(_enemy_anim)
	sta     ptr1+1
	lda     #<(_animate_beararms_data)
	ldy     #$00
	sta     (ptr1),y
	iny
	lda     #>(_animate_beararms_data)
	sta     (ptr1),y
;
; else
;
	jmp     L3A9F
;
; enemy_anim[index] = animate_beararmsright_data;
;
L409C:	lda     _index
	asl     a
	bcc     L407E
	inx
	clc
L407E:	adc     #<(_enemy_anim)
	sta     ptr1
	txa
	adc     #>(_enemy_anim)
	sta     ptr1+1
	lda     #<(_animate_beararmsright_data)
	ldy     #$00
	sta     (ptr1),y
	iny
	lda     #>(_animate_beararmsright_data)
	sta     (ptr1),y
;
; break;
;
	jmp     L3A9F
;
; if (enemy_frames[index] < 5)
;
L3B1F:	ldy     _index
	lda     _enemy_frames,y
	cmp     #$05
	bcs     L3B20
;
; if (enemy_dir[index] == LEFT)
;
	ldy     _index
	lda     _enemy_dir,y
	bne     L409D
;
; enemy_anim[index] = animate_bearwalk1eft_data;
;
	lda     _index
	asl     a
	bcc     L407F
	inx
	clc
L407F:	adc     #<(_enemy_anim)
	sta     ptr1
	txa
	adc     #>(_enemy_anim)
	sta     ptr1+1
	lda     #<(_animate_bearwalk1eft_data)
	ldy     #$00
	sta     (ptr1),y
	iny
	lda     #>(_animate_bearwalk1eft_data)
	sta     (ptr1),y
;
; else
;
	jmp     L3A9F
;
; enemy_anim[index] = animate_bearwalkright_data;
;
L409D:	lda     _index
	asl     a
	bcc     L4080
	inx
	clc
L4080:	adc     #<(_enemy_anim)
	sta     ptr1
	txa
	adc     #>(_enemy_anim)
	sta     ptr1+1
	lda     #<(_animate_bearwalkright_data)
	ldy     #$00
	sta     (ptr1),y
	iny
	lda     #>(_animate_bearwalkright_data)
	sta     (ptr1),y
;
; else if (enemy_frames[index] < 10)
;
	jmp     L3A9F
L3B20:	ldy     _index
	lda     _enemy_frames,y
	cmp     #$0A
	bcs     L3B30
;
; if (enemy_dir[index] == LEFT)
;
	ldy     _index
	lda     _enemy_dir,y
	bne     L409E
;
; enemy_anim[index] = animate_bearwalk2left_data;
;
	lda     _index
	asl     a
	bcc     L4081
	inx
	clc
L4081:	adc     #<(_enemy_anim)
	sta     ptr1
	txa
	adc     #>(_enemy_anim)
	sta     ptr1+1
	lda     #<(_animate_bearwalk2left_data)
	ldy     #$00
	sta     (ptr1),y
	iny
	lda     #>(_animate_bearwalk2left_data)
	sta     (ptr1),y
;
; else
;
	jmp     L3A9F
;
; enemy_anim[index] = animate_bearwalk2right_data;
;
L409E:	lda     _index
	asl     a
	bcc     L4082
	inx
	clc
L4082:	adc     #<(_enemy_anim)
	sta     ptr1
	txa
	adc     #>(_enemy_anim)
	sta     ptr1+1
	lda     #<(_animate_bearwalk2right_data)
	ldy     #$00
	sta     (ptr1),y
	iny
	lda     #>(_animate_bearwalk2right_data)
	sta     (ptr1),y
;
; else if (enemy_frames[index] < 15)
;
	jmp     L3A9F
L3B30:	ldy     _index
	lda     _enemy_frames,y
	cmp     #$0F
	bcs     L3B40
;
; if (enemy_dir[index] == LEFT)
;
	ldy     _index
	lda     _enemy_dir,y
	bne     L409F
;
; enemy_anim[index] = animate_bearwalk3left_data;
;
	lda     _index
	asl     a
	bcc     L4083
	inx
	clc
L4083:	adc     #<(_enemy_anim)
	sta     ptr1
	txa
	adc     #>(_enemy_anim)
	sta     ptr1+1
	lda     #<(_animate_bearwalk3left_data)
	ldy     #$00
	sta     (ptr1),y
	iny
	lda     #>(_animate_bearwalk3left_data)
	sta     (ptr1),y
;
; else
;
	jmp     L3A9F
;
; enemy_anim[index] = animate_bearwalk3right_data;
;
L409F:	lda     _index
	asl     a
	bcc     L4084
	inx
	clc
L4084:	adc     #<(_enemy_anim)
	sta     ptr1
	txa
	adc     #>(_enemy_anim)
	sta     ptr1+1
	lda     #<(_animate_bearwalk3right_data)
	ldy     #$00
	sta     (ptr1),y
	iny
	lda     #>(_animate_bearwalk3right_data)
	sta     (ptr1),y
;
; else if (enemy_frames[index] < 20)
;
	jmp     L3A9F
L3B40:	ldy     _index
	lda     _enemy_frames,y
	cmp     #$14
	bcs     L3B50
;
; if (enemy_dir[index] == LEFT)
;
	ldy     _index
	lda     _enemy_dir,y
	bne     L40A0
;
; enemy_anim[index] = animate_bearwalk2left_data;
;
	lda     _index
	asl     a
	bcc     L4085
	inx
	clc
L4085:	adc     #<(_enemy_anim)
	sta     ptr1
	txa
	adc     #>(_enemy_anim)
	sta     ptr1+1
	lda     #<(_animate_bearwalk2left_data)
	ldy     #$00
	sta     (ptr1),y
	iny
	lda     #>(_animate_bearwalk2left_data)
	sta     (ptr1),y
;
; else
;
	jmp     L3A9F
;
; enemy_anim[index] = animate_bearwalk2right_data;
;
L40A0:	lda     _index
	asl     a
	bcc     L4086
	inx
	clc
L4086:	adc     #<(_enemy_anim)
	sta     ptr1
	txa
	adc     #>(_enemy_anim)
	sta     ptr1+1
	lda     #<(_animate_bearwalk2right_data)
	ldy     #$00
	sta     (ptr1),y
	iny
	lda     #>(_animate_bearwalk2right_data)
	sta     (ptr1),y
;
; else
;
	jmp     L3A9F
;
; if (enemy_dir[index] == LEFT)
;
L3B50:	ldy     _index
	lda     _enemy_dir,y
	bne     L40A1
;
; enemy_anim[index] = animate_bearwalk1eft_data;
;
	lda     _index
	asl     a
	bcc     L4087
	inx
	clc
L4087:	adc     #<(_enemy_anim)
	sta     ptr1
	txa
	adc     #>(_enemy_anim)
	sta     ptr1+1
	lda     #<(_animate_bearwalk1eft_data)
	ldy     #$00
	sta     (ptr1),y
	iny
	lda     #>(_animate_bearwalk1eft_data)
;
; else
;
	jmp     L40A4
;
; enemy_anim[index] = animate_bearwalkright_data;
;
L40A1:	lda     _index
	asl     a
	bcc     L4088
	inx
	clc
L4088:	adc     #<(_enemy_anim)
	sta     ptr1
	txa
	adc     #>(_enemy_anim)
	sta     ptr1+1
	lda     #<(_animate_bearwalkright_data)
	ldy     #$00
	sta     (ptr1),y
	iny
	lda     #>(_animate_bearwalkright_data)
L40A4:	sta     (ptr1),y
;
; enemy_frames[index] = 0;
;
	ldy     _index
	lda     #$00
	sta     _enemy_frames,y
;
; switch(enemy_mode[index]){
;
L3A9F:	ldy     _index
	lda     _enemy_mode,y
;
; }
;
	beq     L3B76
	cmp     #$01
	bne     L40C5
;
; }
;
	rts
;
; }
;
L40C5:	cmp     #$02
	beq     L3B96
	rts
;
; if (enemy_frames[index] % 3 == 0)
;
L3B76:	ldy     _index
	lda     _enemy_frames,y
	jsr     pusha0
	lda     #$03
	jsr     tosumoda0
	cpx     #$00
	beq     L40C6
;
; }
;
	rts
;
; if (enemy_frames[index] % 3 == 0)
;
L40C6:	cmp     #$00
	beq     L40C7
;
; }
;
	rts
;
; if (enemy_x[index] > Generic2.x) // enemy is right of player
;
L40C7:	ldy     _index
	lda     _enemy_x,y
	sec
	sbc     _Generic2
	bcc     L3B97
	beq     L3B97
;
; --enemy_actual_x[index];
;
	lda     #<(_enemy_actual_x)
	ldx     #>(_enemy_actual_x)
	clc
	adc     _index
	bcc     L3B82
	inx
L3B82:	sta     ptr1
	stx     ptr1+1
	ldy     #$00
	lda     (ptr1),y
	sec
	sbc     #$01
	sta     (ptr1),y
;
; enemy_dir[index] = LEFT;
;
	ldy     _index
	lda     #$00
;
; else if (enemy_x[index] < Generic2.x) // enemy is left of player
;
	jmp     L406D
;
; if (enemy_x[index] > Generic2.x) // enemy is right of player
;
L3B96:	ldy     _index
	lda     _enemy_x,y
	sec
	sbc     _Generic2
	bcc     L3B97
	beq     L3B97
;
; --enemy_actual_x[index];
;
	lda     #<(_enemy_actual_x)
	ldx     #>(_enemy_actual_x)
	clc
	adc     _index
	bcc     L3B9D
	inx
L3B9D:	sta     ptr1
	stx     ptr1+1
	ldy     #$00
	lda     (ptr1),y
	sec
	sbc     #$01
	sta     (ptr1),y
;
; enemy_dir[index] = LEFT;
;
	ldy     _index
	lda     #$00
;
; else if (enemy_x[index] < Generic2.x) // enemy is left of player
;
	jmp     L406D
L3B97:	ldy     _index
	lda     _enemy_x,y
	cmp     _Generic2
	bcs     L3B74
;
; ++enemy_actual_x[index];
;
	lda     #<(_enemy_actual_x)
	ldx     #>(_enemy_actual_x)
	clc
	adc     _index
	bcc     L3BA9
	inx
L3BA9:	sta     ptr1
	stx     ptr1+1
	ldy     #$00
	lda     #$01
	clc
	adc     (ptr1),y
	sta     (ptr1),y
;
; enemy_dir[index] = RIGHT;
;
	ldy     _index
	lda     #$01
L406D:	sta     _enemy_dir,y
;
; }
;
L3B74:	rts

.endproc

; ---------------------------------------------------------------
; unsigned char __near__ bg_coll_L (void)
; ---------------------------------------------------------------

.segment	"CODE"

.proc	_bg_coll_L: near

.segment	"CODE"

;
; temp5 = Generic.x + scroll_x;
;
	lda     _Generic
	clc
	adc     _scroll_x
	sta     _temp5
	lda     #$00
	adc     _scroll_x+1
	sta     _temp5+1
;
; temp_x = (char)temp5;   // low byte
;
	lda     _temp5
	sta     _temp_x
;
; temp_room = temp5 >> 8; // high byte
;
	lda     _temp5+1
	sta     _temp_room
;
; eject_L = temp_x | 0xf0;
;
	lda     _temp_x
	ora     #$F0
	sta     _eject_L
;
; temp_y = Generic.y + 2;
;
	lda     _Generic+1
	clc
	adc     #$02
	sta     _temp_y
;
; if (bg_collision_sub() & COL_ALL)
;
	jsr     _bg_collision_sub
	and     #$40
	beq     L40C9
;
; return 1;
;
	ldx     #$00
	lda     #$01
	rts
;
; temp_y = Generic.y + Generic.height;
;
L40C9:	lda     _Generic+1
	clc
	adc     _Generic+3
	sta     _temp_y
;
; temp_y -= 2;
;
	sec
	sbc     #$02
	sta     _temp_y
;
; if (bg_collision_sub() & COL_ALL)
;
	jsr     _bg_collision_sub
	ldx     #$00
	and     #$40
	beq     L40CB
;
; return 1;
;
	lda     #$01
	rts
;
; }
;
L40CB:	rts

.endproc

; ---------------------------------------------------------------
; unsigned char __near__ bg_coll_R (void)
; ---------------------------------------------------------------

.segment	"CODE"

.proc	_bg_coll_R: near

.segment	"CODE"

;
; temp5 = Generic.x + scroll_x + Generic.width;
;
	lda     _Generic
	clc
	adc     _scroll_x
	pha
	lda     #$00
	adc     _scroll_x+1
	tax
	pla
	clc
	adc     _Generic+2
	bcc     L40CC
	inx
L40CC:	sta     _temp5
	stx     _temp5+1
;
; temp_x = (char)temp5;   // low byte
;
	lda     _temp5
	sta     _temp_x
;
; temp_room = temp5 >> 8; // high byte
;
	lda     _temp5+1
	sta     _temp_room
;
; eject_R = (temp_x + 1) & 0x0f;
;
	lda     _temp_x
	clc
	adc     #$01
	and     #$0F
	sta     _eject_R
;
; temp_y = Generic.y + 2;
;
	lda     _Generic+1
	clc
	adc     #$02
	sta     _temp_y
;
; if (bg_collision_sub() & COL_ALL)
;
	jsr     _bg_collision_sub
	and     #$40
	beq     L40CE
;
; return 1;
;
	ldx     #$00
	lda     #$01
	rts
;
; temp_y = Generic.y + Generic.height;
;
L40CE:	lda     _Generic+1
	clc
	adc     _Generic+3
	sta     _temp_y
;
; temp_y -= 2;
;
	sec
	sbc     #$02
	sta     _temp_y
;
; if (bg_collision_sub() & COL_ALL)
;
	jsr     _bg_collision_sub
	ldx     #$00
	and     #$40
	beq     L40D0
;
; return 1;
;
	lda     #$01
	rts
;
; }
;
L40D0:	rts

.endproc

; ---------------------------------------------------------------
; unsigned char __near__ bg_coll_U (void)
; ---------------------------------------------------------------

.segment	"CODE"

.proc	_bg_coll_U: near

.segment	"CODE"

;
; temp5 = Generic.x + scroll_x;
;
	lda     _Generic
	clc
	adc     _scroll_x
	sta     _temp5
	lda     #$00
	adc     _scroll_x+1
	sta     _temp5+1
;
; temp5 += 2;
;
	lda     #$02
	clc
	adc     _temp5
	sta     _temp5
	bcc     L2B08
	inc     _temp5+1
;
; temp_x = (char)temp5;   // low byte
;
L2B08:	lda     _temp5
	sta     _temp_x
;
; temp_room = temp5 >> 8; // high byte
;
	lda     _temp5+1
	sta     _temp_room
;
; temp_y = Generic.y;
;
	lda     _Generic+1
	sta     _temp_y
;
; eject_U = temp_y | 0xf0;
;
	ora     #$F0
	sta     _eject_U
;
; if (bg_collision_sub() & COL_ALL)
;
	jsr     _bg_collision_sub
	and     #$40
	beq     L40D2
;
; return 1;
;
	ldx     #$00
	lda     #$01
	rts
;
; temp5 = Generic.x + scroll_x + Generic.width;
;
L40D2:	lda     _Generic
	clc
	adc     _scroll_x
	pha
	lda     #$00
	adc     _scroll_x+1
	tax
	pla
	clc
	adc     _Generic+2
	bcc     L40D1
	inx
L40D1:	sta     _temp5
	stx     _temp5+1
;
; temp5 -= 2;
;
	lda     _temp5
	sec
	sbc     #$02
	sta     _temp5
	bcs     L2B18
	dec     _temp5+1
;
; temp_x = (char)temp5;   // low byte
;
L2B18:	lda     _temp5
	sta     _temp_x
;
; temp_room = temp5 >> 8; // high byte
;
	lda     _temp5+1
	sta     _temp_room
;
; if (bg_collision_sub() & COL_ALL)
;
	jsr     _bg_collision_sub
	ldx     #$00
	and     #$40
	beq     L40D4
;
; return 1;
;
	lda     #$01
	rts
;
; }
;
L40D4:	rts

.endproc

; ---------------------------------------------------------------
; unsigned char __near__ bg_coll_D (void)
; ---------------------------------------------------------------

.segment	"CODE"

.proc	_bg_coll_D: near

.segment	"CODE"

;
; temp5 = Generic.x + scroll_x;
;
	lda     _Generic
	clc
	adc     _scroll_x
	sta     _temp5
	lda     #$00
	adc     _scroll_x+1
	sta     _temp5+1
;
; temp5 += 2;
;
	lda     #$02
	clc
	adc     _temp5
	sta     _temp5
	bcc     L2B26
	inc     _temp5+1
;
; temp_x = (char)temp5;   // low byte
;
L2B26:	lda     _temp5
	sta     _temp_x
;
; temp_room = temp5 >> 8; // high byte
;
	lda     _temp5+1
	sta     _temp_room
;
; temp_y = Generic.y + Generic.height;
;
	lda     _Generic+1
	clc
	adc     _Generic+3
	sta     _temp_y
;
; if ((temp_y & 0x0f) > 3)
;
	and     #$0F
	cmp     #$04
	lda     #$00
	bcc     L40DA
;
; return 0; // bug fix
;
	tax
	rts
;
; eject_D = (temp_y + 1) & 0x0f;
;
L40DA:	lda     _temp_y
	clc
	adc     #$01
	and     #$0F
	sta     _eject_D
;
; if (bg_collision_sub() & COL_ALL || ((bg_collision_sub() & COL_LADDER_TOP) && !player_on_ladder))
;
	jsr     _bg_collision_sub
	and     #$40
	bne     L40E0
	jsr     _bg_collision_sub
	ldx     #$00
	and     #$02
	beq     L40E4
	lda     _player_on_ladder
	beq     L40EF
	jmp     L40E4
;
; return 1;
;
L40E0:	ldx     #$00
L40EF:	lda     #$01
	rts
;
; temp5 = Generic.x + scroll_x + Generic.width;
;
L40E4:	lda     _Generic
	clc
	adc     _scroll_x
	pha
	txa
	adc     _scroll_x+1
	tax
	pla
	clc
	adc     _Generic+2
	bcc     L40D6
	inx
L40D6:	sta     _temp5
	stx     _temp5+1
;
; temp5 -= 2;
;
	lda     _temp5
	sec
	sbc     #$02
	sta     _temp5
	bcs     L2B41
	dec     _temp5+1
;
; temp_x = (char)temp5;   // low byte
;
L2B41:	lda     _temp5
	sta     _temp_x
;
; temp_room = temp5 >> 8; // high byte
;
	lda     _temp5+1
	sta     _temp_room
;
; if (bg_collision_sub() & COL_ALL || ((bg_collision_sub() & COL_LADDER_TOP) && !player_on_ladder))
;
	jsr     _bg_collision_sub
	and     #$40
	bne     L40EA
	jsr     _bg_collision_sub
	ldx     #$00
	and     #$02
	beq     L40E9
	lda     _player_on_ladder
	beq     L40F0
	txa
	rts
L40E9:	rts
;
; return 1;
;
L40EA:	ldx     #$00
L40F0:	lda     #$01
	rts

.endproc

; ---------------------------------------------------------------
; unsigned char __near__ bg_coll_D2 (void)
; ---------------------------------------------------------------

.segment	"CODE"

.proc	_bg_coll_D2: near

.segment	"CODE"

;
; temp5 = Generic.x + scroll_x;
;
	lda     _Generic
	clc
	adc     _scroll_x
	sta     _temp5
	lda     #$00
	adc     _scroll_x+1
	sta     _temp5+1
;
; temp5 += 2;
;
	lda     #$02
	clc
	adc     _temp5
	sta     _temp5
	bcc     L2B54
	inc     _temp5+1
;
; temp_x = (char)temp5;   // low byte
;
L2B54:	lda     _temp5
	sta     _temp_x
;
; temp_room = temp5 >> 8; // high byte
;
	lda     _temp5+1
	sta     _temp_room
;
; temp_y = Generic.y + Generic.height;
;
	lda     _Generic+1
	clc
	adc     _Generic+3
	sta     _temp_y
;
; temp_y += 2;
;
	lda     #$02
	clc
	adc     _temp_y
	sta     _temp_y
;
; if (bg_collision_sub())
;
	jsr     _bg_collision_sub
	tax
	beq     L40F3
;
; return 1;
;
	ldx     #$00
	lda     #$01
	rts
;
; temp5 = Generic.x + scroll_x + Generic.width;
;
L40F3:	lda     _Generic
	clc
	adc     _scroll_x
	pha
	txa
	adc     _scroll_x+1
	tax
	pla
	clc
	adc     _Generic+2
	bcc     L40F2
	inx
L40F2:	sta     _temp5
	stx     _temp5+1
;
; temp5 -= 2;
;
	lda     _temp5
	sec
	sbc     #$02
	sta     _temp5
	bcs     L2B64
	dec     _temp5+1
;
; temp_x = (char)temp5;   // low byte
;
L2B64:	lda     _temp5
	sta     _temp_x
;
; temp_room = temp5 >> 8; // high byte
;
	lda     _temp5+1
	sta     _temp_room
;
; if (bg_collision_sub())
;
	jsr     _bg_collision_sub
	tax
	beq     L40F5
;
; return 1;
;
	ldx     #$00
	lda     #$01
	rts
;
; }
;
L40F5:	rts

.endproc

; ---------------------------------------------------------------
; unsigned char __near__ get_position (void)
; ---------------------------------------------------------------

.segment	"CODE"

.proc	_get_position: near

.segment	"CODE"

;
; temp5 -= scroll_x;
;
	lda     _scroll_x
	eor     #$FF
	sec
	adc     _temp5
	sta     _temp5
	lda     _scroll_x+1
	eor     #$FF
	adc     _temp5+1
	sta     _temp5+1
;
; temp_x = temp5 & 0xff;
;
	lda     _temp5
	ldx     #$00
	sta     _temp_x
;
; if (high_byte(temp5))
;
	lda     _temp5+1
	beq     L40F6
;
; return 0;
;
	txa
	rts
;
; return 1;
;
L40F6:	lda     #$01
;
; }
;
	rts

.endproc

; ---------------------------------------------------------------
; void __near__ bg_collision_fast (void)
; ---------------------------------------------------------------

.segment	"CODE"

.proc	_bg_collision_fast: near

.segment	"CODE"

;
; collision_L = 0;
;
	lda     #$00
	sta     _collision_L
;
; collision_R = 0;
;
	sta     _collision_R
;
; collision_D = 0;
;
	sta     _collision_D
;
; if (Generic.y >= 0xf0)
;
	lda     _Generic+1
	cmp     #$F0
;
; return;
;
	bcc     L40F9
;
; }
;
	rts
;
; temp5 = Generic.x + scroll_x;
;
L40F9:	lda     _Generic
	clc
	adc     _scroll_x
	pha
	lda     #$00
	adc     _scroll_x+1
	sta     _temp5+1
	pla
	sta     _temp5
;
; temp_x = temp5 & 0xff;  // low byte x
;
	sta     _temp_x
;
; temp_room = temp5 >> 8; // high byte x
;
	lda     _temp5+1
	sta     _temp_room
;
; temp_y = Generic.y + 6; // y middle
;
	lda     _Generic+1
	clc
	adc     #$06
	sta     _temp_y
;
; bg_collision_sub();
;
	jsr     _bg_collision_sub
;
; if (bg_collision_sub() & COL_ALL)
;
	jsr     _bg_collision_sub
	and     #$40
	beq     L40F7
;
; ++collision_L;
;
	inc     _collision_L
;
; temp5 += Generic.width;
;
L40F7:	lda     _Generic+2
	clc
	adc     _temp5
	sta     _temp5
	lda     #$00
	adc     _temp5+1
	sta     _temp5+1
;
; temp_x = temp5 & 0xff;  // low byte x
;
	lda     _temp5
	sta     _temp_x
;
; temp_room = temp5 >> 8; // high byte x
;
	lda     _temp5+1
	sta     _temp_room
;
; bg_collision_sub();
;
	jsr     _bg_collision_sub
;
; if (bg_collision_sub() & COL_ALL)
;
	jsr     _bg_collision_sub
	and     #$40
	beq     L40F8
;
; ++collision_R;
;
	inc     _collision_R
;
; temp5 -= (Generic.width >> 1); // middle of character
;
L40F8:	lda     _Generic+2
	lsr     a
	eor     #$FF
	sec
	adc     _temp5
	sta     _temp5
	lda     #$FF
	adc     _temp5+1
	sta     _temp5+1
;
; temp_x = (char)temp5;          // low byte
;
	lda     _temp5
	sta     _temp_x
;
; temp_y += 6;
;
	lda     #$06
	clc
	adc     _temp_y
	sta     _temp_y
;
; if (bg_collision_sub() & COL_ALL)
;
	jsr     _bg_collision_sub
	and     #$40
	beq     L2AA5
;
; ++collision_D;
;
	inc     _collision_D
;
; }
;
L2AA5:	rts

.endproc

; ---------------------------------------------------------------
; unsigned char __near__ bg_coll_ladder (void)
; ---------------------------------------------------------------

.segment	"CODE"

.proc	_bg_coll_ladder: near

.segment	"CODE"

;
; temp5 = Generic.x + scroll_x + 7;
;
	lda     _Generic
	clc
	adc     _scroll_x
	pha
	lda     #$00
	adc     _scroll_x+1
	tax
	pla
	clc
	adc     #$07
	bcc     L2ADB
	inx
L2ADB:	sta     _temp5
	stx     _temp5+1
;
; temp_x = (char)temp5; // low byte
;
	lda     _temp5
	sta     _temp_x
;
; temp_y = Generic.y + Generic.height;
;
	lda     _Generic+1
	clc
	adc     _Generic+3
	sta     _temp_y
;
; temp_y -= 2;
;
	sec
	sbc     #$02
	sta     _temp_y
;
; if (bg_collision_sub() & COL_LADDER || bg_collision_sub() & COL_LADDER_TOP)
;
	jsr     _bg_collision_sub
	and     #$01
	bne     L40FB
	jsr     _bg_collision_sub
	and     #$02
	bne     L40FB
	tax
	rts
;
; return temp5;
;
L40FB:	ldx     #$00
	lda     _temp5
	rts

.endproc

; ---------------------------------------------------------------
; unsigned char __near__ bg_coll_ladder_top_at_player (void)
; ---------------------------------------------------------------

.segment	"CODE"

.proc	_bg_coll_ladder_top_at_player: near

.segment	"CODE"

;
; temp5 = Generic.x + scroll_x + 7;
;
	lda     _Generic
	clc
	adc     _scroll_x
	pha
	lda     #$00
	adc     _scroll_x+1
	tax
	pla
	clc
	adc     #$07
	bcc     L2AEA
	inx
L2AEA:	sta     _temp5
	stx     _temp5+1
;
; temp_x = (char)temp5; // low byte
;
	lda     _temp5
	sta     _temp_x
;
; temp_y = Generic.y + Generic.height;
;
	lda     _Generic+1
	clc
	adc     _Generic+3
	sta     _temp_y
;
; temp_y -= 2;
;
	sec
	sbc     #$02
	sta     _temp_y
;
; if (bg_collision_sub() & COL_LADDER)
;
	jsr     _bg_collision_sub
	ldx     #$00
	and     #$01
	beq     L4100
;
; return 1;
;
	lda     #$01
	rts
;
; }
;
L4100:	rts

.endproc

; ---------------------------------------------------------------
; unsigned char __near__ bg_coll_ladder_top_under_player (void)
; ---------------------------------------------------------------

.segment	"CODE"

.proc	_bg_coll_ladder_top_under_player: near

.segment	"CODE"

;
; temp5 = Generic.x + scroll_x + 7;
;
	lda     _Generic
	clc
	adc     _scroll_x
	pha
	lda     #$00
	adc     _scroll_x+1
	tax
	pla
	clc
	adc     #$07
	bcc     L2AF8
	inx
L2AF8:	sta     _temp5
	stx     _temp5+1
;
; temp_x = (char)temp5; // low byte
;
	lda     _temp5
	sta     _temp_x
;
; temp_y = Generic.y + Generic.height;
;
	lda     _Generic+1
	clc
	adc     _Generic+3
	sta     _temp_y
;
; temp_y += 4;
;
	lda     #$04
	clc
	adc     _temp_y
	sta     _temp_y
;
; if (bg_collision_sub() & COL_LADDER_TOP)
;
	jsr     _bg_collision_sub
	ldx     #$00
	and     #$02
	beq     L4103
;
; return 1;
;
	lda     #$01
	rts
;
; }
;
L4103:	rts

.endproc

; ---------------------------------------------------------------
; void __near__ draw_health_meter (void)
; ---------------------------------------------------------------

.segment	"CODE"

.proc	_draw_health_meter: near

.segment	"CODE"

;
; switch (temp)
;
	lda     _temp
;
; }
;
	cmp     #$01
	jeq     L2BF6
	cmp     #$02
	jeq     L2BF2
	cmp     #$03
	jeq     L2BEE
	cmp     #$04
	jeq     L2BEA
	cmp     #$05
	jeq     L2BE6
	cmp     #$06
	jeq     L2BE2
	cmp     #$07
	jeq     L2BDE
	cmp     #$08
	jeq     L2BDA
	cmp     #$09
	jeq     L2BD6
	cmp     #$0A
	jeq     L2BD2
	cmp     #$0B
	jeq     L2BCE
	cmp     #$0C
	jeq     L2BCA
	cmp     #$0D
	jeq     L2BC6
	cmp     #$0E
	jeq     L2BC2
	cmp     #$0F
	jeq     L2BBE
	cmp     #$10
	jeq     L2BBA
	cmp     #$11
	jeq     L2BB6
	cmp     #$12
	jeq     L2BB2
	cmp     #$13
	jeq     L2BAE
	cmp     #$14
	beq     L2BAA
	cmp     #$15
	beq     L2BA6
	cmp     #$16
	beq     L2BA2
	cmp     #$17
	beq     L2B9E
	cmp     #$18
	beq     L2B9A
	cmp     #$19
	beq     L2B96
	cmp     #$1A
	beq     L2B92
	cmp     #$1B
	beq     L2B8E
	cmp     #$1C
	jne     L2BF9
;
; tempint2 = animate_meter28_data;
;
	lda     #>(_animate_meter28_data)
	sta     _tempint2+1
	lda     #<(_animate_meter28_data)
;
; break;
;
	jmp     L4104
;
; tempint2 = animate_meter27_data;
;
L2B8E:	lda     #>(_animate_meter27_data)
	sta     _tempint2+1
	lda     #<(_animate_meter27_data)
;
; break;
;
	jmp     L4104
;
; tempint2 = animate_meter26_data;
;
L2B92:	lda     #>(_animate_meter26_data)
	sta     _tempint2+1
	lda     #<(_animate_meter26_data)
;
; break;
;
	jmp     L4104
;
; tempint2 = animate_meter25_data;
;
L2B96:	lda     #>(_animate_meter25_data)
	sta     _tempint2+1
	lda     #<(_animate_meter25_data)
;
; break;
;
	jmp     L4104
;
; tempint2 = animate_meter24_data;
;
L2B9A:	lda     #>(_animate_meter24_data)
	sta     _tempint2+1
	lda     #<(_animate_meter24_data)
;
; break;
;
	jmp     L4104
;
; tempint2 = animate_meter23_data;
;
L2B9E:	lda     #>(_animate_meter23_data)
	sta     _tempint2+1
	lda     #<(_animate_meter23_data)
;
; break;
;
	jmp     L4104
;
; tempint2 = animate_meter22_data;
;
L2BA2:	lda     #>(_animate_meter22_data)
	sta     _tempint2+1
	lda     #<(_animate_meter22_data)
;
; break;
;
	jmp     L4104
;
; tempint2 = animate_meter21_data;
;
L2BA6:	lda     #>(_animate_meter21_data)
	sta     _tempint2+1
	lda     #<(_animate_meter21_data)
;
; break;
;
	jmp     L4104
;
; tempint2 = animate_meter20_data;
;
L2BAA:	lda     #>(_animate_meter20_data)
	sta     _tempint2+1
	lda     #<(_animate_meter20_data)
;
; break;
;
	jmp     L4104
;
; tempint2 = animate_meter19_data;
;
L2BAE:	lda     #>(_animate_meter19_data)
	sta     _tempint2+1
	lda     #<(_animate_meter19_data)
;
; break;
;
	jmp     L4104
;
; tempint2 = animate_meter18_data;
;
L2BB2:	lda     #>(_animate_meter18_data)
	sta     _tempint2+1
	lda     #<(_animate_meter18_data)
;
; break;
;
	jmp     L4104
;
; tempint2 = animate_meter17_data;
;
L2BB6:	lda     #>(_animate_meter17_data)
	sta     _tempint2+1
	lda     #<(_animate_meter17_data)
;
; break;
;
	jmp     L4104
;
; tempint2 = animate_meter16_data;
;
L2BBA:	lda     #>(_animate_meter16_data)
	sta     _tempint2+1
	lda     #<(_animate_meter16_data)
;
; break;
;
	jmp     L4104
;
; tempint2 = animate_meter15_data;
;
L2BBE:	lda     #>(_animate_meter15_data)
	sta     _tempint2+1
	lda     #<(_animate_meter15_data)
;
; break;
;
	jmp     L4104
;
; tempint2 = animate_meter14_data;
;
L2BC2:	lda     #>(_animate_meter14_data)
	sta     _tempint2+1
	lda     #<(_animate_meter14_data)
;
; break;
;
	jmp     L4104
;
; tempint2 = animate_meter13_data;
;
L2BC6:	lda     #>(_animate_meter13_data)
	sta     _tempint2+1
	lda     #<(_animate_meter13_data)
;
; break;
;
	jmp     L4104
;
; tempint2 = animate_meter12_data;
;
L2BCA:	lda     #>(_animate_meter12_data)
	sta     _tempint2+1
	lda     #<(_animate_meter12_data)
;
; break;
;
	jmp     L4104
;
; tempint2 = animate_meter11_data;
;
L2BCE:	lda     #>(_animate_meter11_data)
	sta     _tempint2+1
	lda     #<(_animate_meter11_data)
;
; break;
;
	jmp     L4104
;
; tempint2 = animate_meter10_data;
;
L2BD2:	lda     #>(_animate_meter10_data)
	sta     _tempint2+1
	lda     #<(_animate_meter10_data)
;
; break;
;
	jmp     L4104
;
; tempint2 = animate_meter9_data;
;
L2BD6:	lda     #>(_animate_meter9_data)
	sta     _tempint2+1
	lda     #<(_animate_meter9_data)
;
; break;
;
	jmp     L4104
;
; tempint2 = animate_meter8_data;
;
L2BDA:	lda     #>(_animate_meter8_data)
	sta     _tempint2+1
	lda     #<(_animate_meter8_data)
;
; break;
;
	jmp     L4104
;
; tempint2 = animate_meter7_data;
;
L2BDE:	lda     #>(_animate_meter7_data)
	sta     _tempint2+1
	lda     #<(_animate_meter7_data)
;
; break;
;
	jmp     L4104
;
; tempint2 = animate_meter6_data;
;
L2BE2:	lda     #>(_animate_meter6_data)
	sta     _tempint2+1
	lda     #<(_animate_meter6_data)
;
; break;
;
	jmp     L4104
;
; tempint2 = animate_meter5_data;
;
L2BE6:	lda     #>(_animate_meter5_data)
	sta     _tempint2+1
	lda     #<(_animate_meter5_data)
;
; break;
;
	jmp     L4104
;
; tempint2 = animate_meter4_data;
;
L2BEA:	lda     #>(_animate_meter4_data)
	sta     _tempint2+1
	lda     #<(_animate_meter4_data)
;
; break;
;
	jmp     L4104
;
; tempint2 = animate_meter3_data;
;
L2BEE:	lda     #>(_animate_meter3_data)
	sta     _tempint2+1
	lda     #<(_animate_meter3_data)
;
; break;
;
	jmp     L4104
;
; tempint2 = animate_meter2_data;
;
L2BF2:	lda     #>(_animate_meter2_data)
	sta     _tempint2+1
	lda     #<(_animate_meter2_data)
;
; break;
;
	jmp     L4104
;
; tempint2 = animate_meter1_data;
;
L2BF6:	lda     #>(_animate_meter1_data)
	sta     _tempint2+1
	lda     #<(_animate_meter1_data)
;
; break;
;
	jmp     L4104
;
; tempint2 = animate_meter0_data;
;
L2BF9:	lda     #>(_animate_meter0_data)
	sta     _tempint2+1
	lda     #<(_animate_meter0_data)
L4104:	sta     _tempint2
;
; }
;
	rts

.endproc

; ---------------------------------------------------------------
; void __near__ draw_player_sprites (void)
; ---------------------------------------------------------------

.segment	"CODE"

.proc	_draw_player_sprites: near

.segment	"CODE"

;
; temp = BoxGuy1.health;
;
	lda     _BoxGuy1+8
	sta     _temp
;
; draw_health_meter();
;
	jsr     _draw_health_meter
;
; oam_meta_spr(0x16, 0x16, tempint2);
;
	jsr     decsp2
	lda     #$16
	ldy     #$01
	sta     (sp),y
	dey
	sta     (sp),y
	lda     _tempint2
	ldx     _tempint2+1
	jsr     _oam_meta_spr
;
; temp_x = BoxGuy1.x >> 8;
;
	lda     _BoxGuy1+1
	sta     _temp_x
;
; temp_y = BoxGuy1.y >> 8;
;
	lda     _BoxGuy1+3
	sta     _temp_y
;
; if (temp_x == 0)
;
	lda     _temp_x
	bne     L410F
;
; temp_x = 1;
;
	lda     #$01
	sta     _temp_x
;
; if (temp_y == 0)
;
L410F:	lda     _temp_y
	bne     L4110
;
; temp_y = 1;
;
	lda     #$01
	sta     _temp_y
;
; ++sprite_frame_counter;
;
L4110:	inc     _sprite_frame_counter
;
; if (invul_frames > 0)
;
	lda     _invul_frames
	beq     L4111
;
; if ((frame_counter % TOTAL_DURATION) < FLASH_DURATION)
;
	lda     _frame_counter
	jsr     pusha0
	lda     #$14
	jsr     tosumoda0
	cpx     #$00
	bne     L2C16
	cmp     #$04
;
; return;
;
L2C16:	bcs     L4111
;
; }
;
	rts
;
; if (player_shooting > 0)
;
L4111:	lda     _player_shooting
	beq     L2C17
;
; --player_shooting;
;
	dec     _player_shooting
;
; if (player_in_hitstun)
;
L2C17:	lda     _player_in_hitstun
	beq     L2C1A
;
; if (direction == LEFT)
;
	lda     _direction
	bne     L4112
;
; if (sprite_frame_counter < 8)
;
	lda     _sprite_frame_counter
	cmp     #$08
	bcs     L2C1E
;
; tempint = animate_skeletonleft_data;
;
	lda     #>(_animate_skeletonleft_data)
	sta     _tempint+1
	lda     #<(_animate_skeletonleft_data)
	sta     _tempint
;
; else
;
	jmp     L2C31
;
; tempint = animate_recoilleft_data;
;
L2C1E:	lda     #>(_animate_recoilleft_data)
	sta     _tempint+1
	lda     #<(_animate_recoilleft_data)
;
; else
;
	jmp     L411E
;
; if (sprite_frame_counter < 8)
;
L4112:	lda     _sprite_frame_counter
	cmp     #$08
	bcs     L2C2A
;
; tempint = animate_skeletonright_data;
;
	lda     #>(_animate_skeletonright_data)
	sta     _tempint+1
	lda     #<(_animate_skeletonright_data)
	sta     _tempint
;
; else
;
	jmp     L2C31
;
; tempint = animate_recoilright_data;
;
L2C2A:	lda     #>(_animate_recoilright_data)
	sta     _tempint+1
	lda     #<(_animate_recoilright_data)
L411E:	sta     _tempint
;
; if (sprite_frame_counter > 16)
;
	lda     _sprite_frame_counter
	cmp     #$11
	bcc     L2C31
;
; sprite_frame_counter = 0;
;
	lda     #$00
	sta     _sprite_frame_counter
;
; oam_meta_spr(temp_x, temp_y, tempint);
;
L2C31:	jsr     decsp2
	lda     _temp_x
	ldy     #$01
	sta     (sp),y
	lda     _temp_y
	dey
	sta     (sp),y
	lda     _tempint
	ldx     _tempint+1
	jmp     _oam_meta_spr
;
; else if (player_is_sliding){
;
L2C1A:	lda     _player_is_sliding
	beq     L2C3A
;
; if(direction == LEFT){
;
	lda     _direction
	bne     L2C3C
;
; tempint = animate_slideleft_data;
;
	lda     #>(_animate_slideleft_data)
	sta     _tempint+1
	lda     #<(_animate_slideleft_data)
;
; } else {
;
	jmp     L4106
;
; tempint = animate_slideright_data;
;
L2C3C:	lda     #>(_animate_slideright_data)
	sta     _tempint+1
	lda     #<(_animate_slideright_data)
L4106:	sta     _tempint
;
; oam_meta_spr(temp_x, temp_y, tempint);
;
	jsr     decsp2
	lda     _temp_x
	ldy     #$01
	sta     (sp),y
	lda     _temp_y
	dey
	sta     (sp),y
	lda     _tempint
	ldx     _tempint+1
	jmp     _oam_meta_spr
;
; else if (player_in_air)
;
L2C3A:	lda     _player_in_air
	beq     L2C48
;
; if (direction == LEFT)
;
	lda     _direction
	bne     L2C4A
;
; if (player_shooting)
;
	lda     _player_shooting
	beq     L2C4C
;
; tempint = animate_playerjumpleftshoot_data;
;
	lda     #>(_animate_playerjumpleftshoot_data)
	sta     _tempint+1
	lda     #<(_animate_playerjumpleftshoot_data)
;
; else
;
	jmp     L4107
;
; tempint = animate_playerjumpleft_data;
;
L2C4C:	lda     #>(_animate_playerjumpleft_data)
	sta     _tempint+1
	lda     #<(_animate_playerjumpleft_data)
;
; else
;
	jmp     L4107
;
; if (player_shooting)
;
L2C4A:	lda     _player_shooting
	beq     L2C54
;
; tempint = animate_playerjumprightshoot_data;
;
	lda     #>(_animate_playerjumprightshoot_data)
	sta     _tempint+1
	lda     #<(_animate_playerjumprightshoot_data)
;
; else
;
	jmp     L4107
;
; tempint = animate_playerjumpright_data;
;
L2C54:	lda     #>(_animate_playerjumpright_data)
	sta     _tempint+1
	lda     #<(_animate_playerjumpright_data)
L4107:	sta     _tempint
;
; oam_meta_spr(temp_x, temp_y, tempint);
;
	jsr     decsp2
	lda     _temp_x
	ldy     #$01
	sta     (sp),y
	lda     _temp_y
	dey
	sta     (sp),y
	lda     _tempint
	ldx     _tempint+1
	jmp     _oam_meta_spr
;
; else if (player_on_ladder)
;
L2C48:	lda     _player_on_ladder
	jeq     L2C60
;
; if (player_shooting)
;
	lda     _player_shooting
	beq     L2C62
;
; if (direction == LEFT)
;
	lda     _direction
	bne     L2C64
;
; tempint = animate_playerclimbshootleft_data;
;
	lda     #>(_animate_playerclimbshootleft_data)
	sta     _tempint+1
	lda     #<(_animate_playerclimbshootleft_data)
	sta     _tempint
;
; player_on_ladder_pose = 0;
;
	lda     #$00
;
; else
;
	jmp     L4108
;
; tempint = animate_playerclimbshootright_data;
;
L2C64:	lda     #>(_animate_playerclimbshootright_data)
	sta     _tempint+1
	lda     #<(_animate_playerclimbshootright_data)
	sta     _tempint
;
; player_on_ladder_pose = PLAYER_LADDER_1_FRAMES;
;
	lda     #$0F
L4108:	sta     _player_on_ladder_pose
;
; oam_meta_spr(temp_x, temp_y, tempint);
;
	jsr     decsp2
	lda     _temp_x
	ldy     #$01
	sta     (sp),y
	lda     _temp_y
	dey
	sta     (sp),y
	lda     _tempint
	ldx     _tempint+1
	jmp     _oam_meta_spr
;
; if (player_on_ladder_top)
;
L2C62:	lda     _player_on_ladder_top
	beq     L2C73
;
; oam_meta_spr(temp_x, temp_y, animate_laddertop_data);
;
	jsr     decsp2
	lda     _temp_x
	ldy     #$01
	sta     (sp),y
	lda     _temp_y
	dey
	sta     (sp),y
	lda     #<(_animate_laddertop_data)
	ldx     #>(_animate_laddertop_data)
	jmp     _oam_meta_spr
;
; if (player_on_ladder_pose < PLAYER_LADDER_1_FRAMES)
;
L2C73:	lda     _player_on_ladder_pose
	cmp     #$0F
	bcs     L4113
;
; oam_meta_spr(temp_x, temp_y, animate_playerclimb1_data);
;
	jsr     decsp2
	lda     _temp_x
	ldy     #$01
	sta     (sp),y
	lda     _temp_y
	dey
	sta     (sp),y
	lda     #<(_animate_playerclimb1_data)
	ldx     #>(_animate_playerclimb1_data)
	jmp     _oam_meta_spr
;
; else if (player_on_ladder_pose < PLAYER_LADDER_2_FRAMES)
;
L4113:	lda     _player_on_ladder_pose
	cmp     #$1E
	bcs     L2C81
;
; oam_meta_spr(temp_x, temp_y, animate_playerclimb2_data);
;
	jsr     decsp2
	lda     _temp_x
	ldy     #$01
	sta     (sp),y
	lda     _temp_y
	dey
	sta     (sp),y
	lda     #<(_animate_playerclimb2_data)
	ldx     #>(_animate_playerclimb2_data)
	jmp     _oam_meta_spr
;
; oam_meta_spr(temp_x, temp_y, animate_playerclimb1_data);
;
L2C81:	jsr     decsp2
	lda     _temp_x
	ldy     #$01
	sta     (sp),y
	lda     _temp_y
	dey
	sta     (sp),y
	lda     #<(_animate_playerclimb1_data)
	ldx     #>(_animate_playerclimb1_data)
	jsr     _oam_meta_spr
;
; player_on_ladder_pose = 0;
;
	lda     #$00
	sta     _player_on_ladder_pose
;
; return;
;
	rts
;
; else if (player_is_running) // running
;
L2C60:	lda     _player_is_running
	jeq     L2C8F
;
; if (sprite_frame_counter < PLAYER_RUN_1_FRAMES)
;
	lda     _sprite_frame_counter
	cmp     #$0C
	bcs     L4114
;
; if (direction == LEFT)
;
	lda     _direction
	bne     L2C93
;
; if (player_shooting)
;
	lda     _player_shooting
	beq     L2C95
;
; tempint = animate_playerrunshoot2left_data;
;
	lda     #>(_animate_playerrunshoot2left_data)
	sta     _tempint+1
	lda     #<(_animate_playerrunshoot2left_data)
;
; else
;
	jmp     L410A
;
; tempint = animate_playerrun2left_data;
;
L2C95:	lda     #>(_animate_playerrun2left_data)
	sta     _tempint+1
	lda     #<(_animate_playerrun2left_data)
;
; else
;
	jmp     L410A
;
; if (player_shooting)
;
L2C93:	lda     _player_shooting
	beq     L2C9D
;
; tempint = animate_playerrunshoot2right_data;
;
	lda     #>(_animate_playerrunshoot2right_data)
	sta     _tempint+1
	lda     #<(_animate_playerrunshoot2right_data)
;
; else
;
	jmp     L410A
;
; tempint = animate_playerrun2right_data;
;
L2C9D:	lda     #>(_animate_playerrun2right_data)
	sta     _tempint+1
	lda     #<(_animate_playerrun2right_data)
;
; else if (sprite_frame_counter < PLAYER_RUN_2_FRAMES)
;
	jmp     L410A
L4114:	lda     _sprite_frame_counter
	cmp     #$18
	bcs     L4115
;
; if (direction == LEFT)
;
	lda     _direction
	bne     L2CA7
;
; if (player_shooting)
;
	lda     _player_shooting
	beq     L2CA9
;
; tempint = animate_playerrunshoot3left_data;
;
	lda     #>(_animate_playerrunshoot3left_data)
	sta     _tempint+1
	lda     #<(_animate_playerrunshoot3left_data)
;
; else
;
	jmp     L410A
;
; tempint = animate_playerrun3left_data;
;
L2CA9:	lda     #>(_animate_playerrun3left_data)
	sta     _tempint+1
	lda     #<(_animate_playerrun3left_data)
;
; else
;
	jmp     L410A
;
; if (player_shooting)
;
L2CA7:	lda     _player_shooting
	beq     L2CB1
;
; tempint = animate_playerrunshoot3right_data;
;
	lda     #>(_animate_playerrunshoot3right_data)
	sta     _tempint+1
	lda     #<(_animate_playerrunshoot3right_data)
;
; else
;
	jmp     L410A
;
; tempint = animate_playerrun3right_data;
;
L2CB1:	lda     #>(_animate_playerrun3right_data)
	sta     _tempint+1
	lda     #<(_animate_playerrun3right_data)
;
; else if (sprite_frame_counter < PLAYER_RUN_3_FRAMES)
;
	jmp     L410A
L4115:	lda     _sprite_frame_counter
	cmp     #$24
	bcs     L4116
;
; if (direction == LEFT)
;
	lda     _direction
	bne     L2CBB
;
; if (player_shooting)
;
	lda     _player_shooting
	beq     L2CBD
;
; tempint = animate_playerrunshoot2left_data;
;
	lda     #>(_animate_playerrunshoot2left_data)
	sta     _tempint+1
	lda     #<(_animate_playerrunshoot2left_data)
;
; else
;
	jmp     L410A
;
; tempint = animate_playerrun2left_data;
;
L2CBD:	lda     #>(_animate_playerrun2left_data)
	sta     _tempint+1
	lda     #<(_animate_playerrun2left_data)
;
; else
;
	jmp     L410A
;
; if (player_shooting)
;
L2CBB:	lda     _player_shooting
	beq     L2CC5
;
; tempint = animate_playerrunshoot2right_data;
;
	lda     #>(_animate_playerrunshoot2right_data)
	sta     _tempint+1
	lda     #<(_animate_playerrunshoot2right_data)
;
; else
;
	jmp     L410A
;
; tempint = animate_playerrun2right_data;
;
L2CC5:	lda     #>(_animate_playerrun2right_data)
	sta     _tempint+1
	lda     #<(_animate_playerrun2right_data)
;
; else if (sprite_frame_counter < PLAYER_RUN_4_FRAMES)
;
	jmp     L410A
L4116:	lda     _sprite_frame_counter
	cmp     #$30
	bcs     L4117
;
; if (direction == LEFT)
;
	lda     _direction
	bne     L2CCF
;
; if (player_shooting)
;
	lda     _player_shooting
	beq     L2CD1
;
; tempint = animate_playerrunshoot1left_data;
;
	lda     #>(_animate_playerrunshoot1left_data)
	sta     _tempint+1
	lda     #<(_animate_playerrunshoot1left_data)
;
; else
;
	jmp     L410A
;
; tempint = animate_playerrun1left_data;
;
L2CD1:	lda     #>(_animate_playerrun1left_data)
	sta     _tempint+1
	lda     #<(_animate_playerrun1left_data)
;
; else
;
	jmp     L410A
;
; if (player_shooting)
;
L2CCF:	lda     _player_shooting
	beq     L2CED
;
; tempint = animate_playerrunshoot1right_data;
;
	lda     #>(_animate_playerrunshoot1right_data)
	sta     _tempint+1
	lda     #<(_animate_playerrunshoot1right_data)
;
; else
;
	jmp     L410A
;
; sprite_frame_counter = 0;
;
L4117:	lda     #$00
	sta     _sprite_frame_counter
;
; if (direction == LEFT)
;
	lda     _direction
	bne     L2CE3
;
; if (player_shooting)
;
	lda     _player_shooting
	beq     L2CE5
;
; tempint = animate_playerrunshoot1left_data;
;
	lda     #>(_animate_playerrunshoot1left_data)
	sta     _tempint+1
	lda     #<(_animate_playerrunshoot1left_data)
;
; else
;
	jmp     L410A
;
; tempint = animate_playerrun1left_data;
;
L2CE5:	lda     #>(_animate_playerrun1left_data)
	sta     _tempint+1
	lda     #<(_animate_playerrun1left_data)
;
; else
;
	jmp     L410A
;
; if (player_shooting)
;
L2CE3:	lda     _player_shooting
	beq     L2CED
;
; tempint = animate_playerrunshoot1right_data;
;
	lda     #>(_animate_playerrunshoot1right_data)
	sta     _tempint+1
	lda     #<(_animate_playerrunshoot1right_data)
;
; else
;
	jmp     L410A
;
; tempint = animate_playerrun1right_data;
;
L2CED:	lda     #>(_animate_playerrun1right_data)
	sta     _tempint+1
	lda     #<(_animate_playerrun1right_data)
L410A:	sta     _tempint
;
; oam_meta_spr(temp_x, temp_y, tempint);
;
	jsr     decsp2
	lda     _temp_x
	ldy     #$01
	sta     (sp),y
	lda     _temp_y
	dey
	sta     (sp),y
	lda     _tempint
	ldx     _tempint+1
	jmp     _oam_meta_spr
;
; if (player_shooting)
;
L2C8F:	lda     _player_shooting
	beq     L2CF9
;
; if (direction == LEFT)
;
	lda     _direction
	bne     L2CFB
;
; tempint = animate_playerstandshootleft_data;
;
	lda     #>(_animate_playerstandshootleft_data)
	sta     _tempint+1
	lda     #<(_animate_playerstandshootleft_data)
;
; else
;
	jmp     L410E
;
; tempint = animate_playerstandshootright_data;
;
L2CFB:	lda     #>(_animate_playerstandshootright_data)
	sta     _tempint+1
	lda     #<(_animate_playerstandshootright_data)
;
; else
;
	jmp     L410E
;
; if (direction == LEFT)
;
L2CF9:	lda     _direction
	bne     L2D03
;
; tempint = animate_playerstandleft_data;
;
	lda     #>(_animate_playerstandleft_data)
	sta     _tempint+1
	lda     #<(_animate_playerstandleft_data)
;
; else
;
	jmp     L410E
;
; tempint = animate_playerstandright_data;
;
L2D03:	lda     #>(_animate_playerstandright_data)
	sta     _tempint+1
	lda     #<(_animate_playerstandright_data)
L410E:	sta     _tempint
;
; oam_meta_spr(temp_x, temp_y, tempint);
;
	jsr     decsp2
	lda     _temp_x
	ldy     #$01
	sta     (sp),y
	lda     _temp_y
	dey
	sta     (sp),y
	lda     _tempint
	ldx     _tempint+1
	jmp     _oam_meta_spr

.endproc

; ---------------------------------------------------------------
; void __near__ main (void)
; ---------------------------------------------------------------

.segment	"CODE"

.proc	_main: near

.segment	"CODE"

;
; reset();
;
	jsr     _reset
;
; load_title();
;
	jsr     _load_title
;
; while (game_mode == MODE_TITLE)
;
	jmp     L412B
;
; ppu_wait_nmi();
;
L2D15:	jsr     _ppu_wait_nmi
;
; pad1 = pad_poll(0); // read the first controller
;
	lda     #$00
	jsr     _pad_poll
	sta     _pad1
;
; pad1_new = get_pad_new(0);
;
	lda     #$00
	jsr     _get_pad_new
	sta     _pad1_new
;
; if (pad1_new & PAD_START)
;
	and     #$10
	jeq     L412B
;
; sfx_play(SFX_START_LEVEL, 0);
;
	lda     #$06
	jsr     pusha
	lda     #$00
	jsr     _sfx_play
;
; pal_bright(3);
;
	lda     #$03
	jsr     _pal_bright
;
; for (temp = 0; temp < 10; ++temp)
;
	lda     #$00
	sta     _temp
L4120:	lda     _temp
	cmp     #$0A
	bcs     L2D28
;
; ppu_wait_nmi();
;
	jsr     _ppu_wait_nmi
;
; for (temp = 0; temp < 10; ++temp)
;
	inc     _temp
	jmp     L4120
;
; pal_bright(2);
;
L2D28:	lda     #$02
	jsr     _pal_bright
;
; for (temp = 0; temp < 10; ++temp)
;
	lda     #$00
	sta     _temp
L4121:	lda     _temp
	cmp     #$0A
	bcs     L2D33
;
; ppu_wait_nmi();
;
	jsr     _ppu_wait_nmi
;
; for (temp = 0; temp < 10; ++temp)
;
	inc     _temp
	jmp     L4121
;
; pal_bright(1);
;
L2D33:	lda     #$01
	jsr     _pal_bright
;
; for (temp = 0; temp < 10; ++temp)
;
	lda     #$00
	sta     _temp
L4122:	lda     _temp
	cmp     #$0A
	bcs     L2D3E
;
; ppu_wait_nmi();
;
	jsr     _ppu_wait_nmi
;
; for (temp = 0; temp < 10; ++temp)
;
	inc     _temp
	jmp     L4122
;
; pal_bright(0);
;
L2D3E:	lda     #$00
	jsr     _pal_bright
;
; for (temp = 0; temp < 10; ++temp)
;
	lda     #$00
	sta     _temp
L4123:	lda     _temp
	cmp     #$0A
	bcs     L2D49
;
; ppu_wait_nmi();
;
	jsr     _ppu_wait_nmi
;
; for (temp = 0; temp < 10; ++temp)
;
	inc     _temp
	jmp     L4123
;
; ppu_off();
;
L2D49:	jsr     _ppu_off
;
; for (temp = 0; temp < 20; ++temp)
;
	lda     #$00
	sta     _temp
L4124:	lda     _temp
	cmp     #$14
	bcs     L4125
;
; ppu_wait_nmi();
;
	jsr     _ppu_wait_nmi
;
; for (temp = 0; temp < 20; ++temp)
;
	inc     _temp
	jmp     L4124
;
; game_mode = MODE_GAME;
;
L4125:	lda     #$01
	sta     _game_mode
;
; load_room();
;
	jsr     _load_room
;
; ppu_on_all();
;
	jsr     _ppu_on_all
;
; pal_bright(1);
;
	lda     #$01
	jsr     _pal_bright
;
; for (temp = 0; temp < 10; ++temp)
;
	lda     #$00
	sta     _temp
L4126:	lda     _temp
	cmp     #$0A
	bcs     L2D62
;
; ppu_wait_nmi();
;
	jsr     _ppu_wait_nmi
;
; for (temp = 0; temp < 10; ++temp)
;
	inc     _temp
	jmp     L4126
;
; pal_bright(2);
;
L2D62:	lda     #$02
	jsr     _pal_bright
;
; for (temp = 0; temp < 10; ++temp)
;
	lda     #$00
	sta     _temp
L4127:	lda     _temp
	cmp     #$0A
	bcs     L2D6D
;
; ppu_wait_nmi();
;
	jsr     _ppu_wait_nmi
;
; for (temp = 0; temp < 10; ++temp)
;
	inc     _temp
	jmp     L4127
;
; pal_bright(3);
;
L2D6D:	lda     #$03
	jsr     _pal_bright
;
; for (temp = 0; temp < 10; ++temp)
;
	lda     #$00
	sta     _temp
L4128:	lda     _temp
	cmp     #$0A
	bcs     L2D78
;
; ppu_wait_nmi();
;
	jsr     _ppu_wait_nmi
;
; for (temp = 0; temp < 10; ++temp)
;
	inc     _temp
	jmp     L4128
;
; pal_bright(4);
;
L2D78:	lda     #$04
	jsr     _pal_bright
;
; for (temp = 0; temp < 10; ++temp)
;
	lda     #$00
	sta     _temp
L4129:	lda     _temp
	cmp     #$0A
	bcs     L412A
;
; ppu_wait_nmi();
;
	jsr     _ppu_wait_nmi
;
; for (temp = 0; temp < 10; ++temp)
;
	inc     _temp
	jmp     L4129
;
; song = SONG_GAME;
;
L412A:	lda     #$00
	sta     _song
;
; set_music_speed(11);
;
	lda     #$0B
	jsr     _set_music_speed
;
; while (game_mode == MODE_TITLE)
;
L412B:	lda     _game_mode
	jeq     L2D15
;
; while (game_mode == MODE_GAME)
;
	jmp     L4142
;
; ++frame_counter;
;
L412C:	inc     _frame_counter
;
; ppu_wait_nmi(); // wait till beginning of the frame
;
	jsr     _ppu_wait_nmi
;
; pad1 = pad_poll(0); // read the first controller
;
	lda     #$00
	jsr     _pad_poll
	sta     _pad1
;
; pad1_new = get_pad_new(0);
;
	lda     #$00
	jsr     _get_pad_new
	sta     _pad1_new
;
; pad1_state = pad_state(0);
;
	lda     #$00
	jsr     _pad_state
	sta     _pad1_state
;
; if (pad1_new & PAD_START)
;
	lda     _pad1_new
	and     #$10
	beq     L2D9E
;
; game_mode = MODE_PAUSE;
;
	lda     #$02
	sta     _game_mode
;
; music_stop();
;
	jsr     _music_stop
;
; ppu_mask(0b00011001); // grayscale mode
;
	lda     #$19
	jsr     _ppu_mask
;
; break; // out of the game loop
;
	jmp     L414B
;
; movement();
;
L2D9E:	jsr     _movement
;
; check_spr_objects();
;
	jsr     _check_spr_objects
;
; check_entity_objects();
;
	jsr     _check_entity_objects
;
; projectile_movement();
;
	jsr     _projectile_movement
;
; sprite_collisions();
;
	jsr     _sprite_collisions
;
; entity_collisions();
;
	jsr     _entity_collisions
;
; set_scroll_x(scroll_x);
;
	lda     _scroll_x
	ldx     _scroll_x+1
	jsr     _set_scroll_x
;
; set_scroll_y(scroll_y);
;
	lda     _scroll_y
	ldx     _scroll_y+1
	jsr     _set_scroll_y
;
; handle_scrolling();
;
	jsr     _handle_scrolling
;
; draw_sprites();
;
	jsr     _draw_sprites
;
; if (BoxGuy1.health == 0 || BoxGuy1.health > MAX_PLAYER_HEALTH) // if it wraps
;
	lda     _BoxGuy1+8
	beq     L412D
	cmp     #$1D
	bcc     L2DB1
;
; death = 1;
;
L412D:	lda     #$01
	sta     _death
;
; if (death)
;
L2DB1:	lda     _death
	beq     L412E
;
; init_death();
;
	jsr     _init_death
;
; if (high_byte(BoxGuy1.y) < 0x08 && level_up && player_on_ladder)
;
L412E:	lda     _BoxGuy1+3
	cmp     #$08
	bcs     L4132
	lda     _level_up
	beq     L4132
	lda     _player_on_ladder
	beq     L4132
;
; BoxGuy1.y = 0xD000; // put the user above the bottom of the screen.
;
	ldx     #$D0
	lda     #$00
	sta     _BoxGuy1+2
	stx     _BoxGuy1+2+1
;
; level_up_routine();
;
	jsr     _level_up_routine
;
; if (high_byte(BoxGuy1.y) > 0xd0 && high_byte(BoxGuy1.y) < 0xf4 && level_up) // todo: might need less than 0xd0
;
L4132:	lda     _BoxGuy1+3
	cmp     #$D1
	bcc     L4136
	cmp     #$F4
	bcs     L4136
	lda     _level_up
	beq     L4136
;
; BoxGuy1.y = 0x1800; // put the user near the top of screen
;
	ldx     #$18
	lda     #$00
	sta     _BoxGuy1+2
	stx     _BoxGuy1+2+1
;
; level_up_routine();
;
	jsr     _level_up_routine
;
; if (high_byte(BoxGuy1.y) < 0x08 && level_down && player_on_ladder)
;
L4136:	lda     _BoxGuy1+3
	cmp     #$08
	bcs     L413A
	lda     _level_down
	beq     L413A
	lda     _player_on_ladder
	beq     L413A
;
; BoxGuy1.y = 0xD000; // put the user above the bottom of the screen.
;
	ldx     #$D0
	lda     #$00
	sta     _BoxGuy1+2
	stx     _BoxGuy1+2+1
;
; level_down_routine();
;
	jsr     _level_down_routine
;
; if (high_byte(BoxGuy1.y) > 0xd0 && level_down)
;
L413A:	lda     _BoxGuy1+3
	cmp     #$D1
	bcc     L413E
	lda     _level_down
	beq     L413E
;
; BoxGuy1.y = 0x1800; // put the user near the top of screen
;
	ldx     #$18
	lda     #$00
	sta     _BoxGuy1+2
	stx     _BoxGuy1+2+1
;
; level_down_routine();
;
	jsr     _level_down_routine
;
; if (high_byte(BoxGuy1.y) > 0xe8 && death_flag)
;
L413E:	lda     _BoxGuy1+3
	cmp     #$E9
	bcc     L4142
	lda     _death_flag
	beq     L4142
;
; ++death;
;
	inc     _death
;
; while (game_mode == MODE_GAME)
;
L4142:	lda     _game_mode
	cmp     #$01
	jeq     L412C
;
; while (game_mode == MODE_DEATH)
;
	jmp     L414B
;
; ppu_wait_nmi();
;
L2DE0:	jsr     _ppu_wait_nmi
;
; pad1 = pad_poll(0); // read the first controller
;
	lda     #$00
	jsr     _pad_poll
	sta     _pad1
;
; pad1_new = get_pad_new(0);
;
	lda     #$00
	jsr     _get_pad_new
	sta     _pad1_new
;
; temp_x = 120;
;
	lda     #$78
	sta     _temp_x
;
; temp_y = 195;
;
	lda     #$C3
	sta     _temp_y
;
; if (frame_counter < 250)
;
	lda     _frame_counter
	cmp     #$FA
	jcs     L414A
;
; oam_clear();
;
	jsr     _oam_clear
;
; ++frame_counter;
;
	inc     _frame_counter
;
; if (frame_counter < 40)
;
	lda     _frame_counter
	cmp     #$28
	bcs     L4143
;
; oam_meta_spr(temp_x, temp_y, animate_playerstandright_data);
;
	jsr     decsp2
	lda     _temp_x
	ldy     #$01
	sta     (sp),y
	lda     _temp_y
	dey
	sta     (sp),y
	lda     #<(_animate_playerstandright_data)
	ldx     #>(_animate_playerstandright_data)
;
; else if (frame_counter < 50)
;
	jmp     L411F
L4143:	lda     _frame_counter
	cmp     #$32
	bcs     L4144
;
; oam_meta_spr(temp_x, temp_y, animate_deathright1_data);
;
	jsr     decsp2
	lda     _temp_x
	ldy     #$01
	sta     (sp),y
	lda     _temp_y
	dey
	sta     (sp),y
	lda     #<(_animate_deathright1_data)
	ldx     #>(_animate_deathright1_data)
;
; else if (frame_counter < 60)
;
	jmp     L411F
L4144:	lda     _frame_counter
	cmp     #$3C
	bcs     L4145
;
; oam_meta_spr(temp_x, temp_y, animate_deathright2_data);
;
	jsr     decsp2
	lda     _temp_x
	ldy     #$01
	sta     (sp),y
	lda     _temp_y
	dey
	sta     (sp),y
	lda     #<(_animate_deathright2_data)
	ldx     #>(_animate_deathright2_data)
;
; else if (frame_counter < 70)
;
	jmp     L411F
L4145:	lda     _frame_counter
	cmp     #$46
	bcs     L4146
;
; oam_meta_spr(temp_x, temp_y, animate_deathright3_data);
;
	jsr     decsp2
	lda     _temp_x
	ldy     #$01
	sta     (sp),y
	lda     _temp_y
	dey
	sta     (sp),y
	lda     #<(_animate_deathright3_data)
	ldx     #>(_animate_deathright3_data)
;
; else if (frame_counter < 80)
;
	jmp     L411F
L4146:	lda     _frame_counter
	cmp     #$50
	bcs     L4147
;
; oam_meta_spr(temp_x, temp_y, animate_deathright4_data);
;
	jsr     decsp2
	lda     _temp_x
	ldy     #$01
	sta     (sp),y
	lda     _temp_y
	dey
	sta     (sp),y
	lda     #<(_animate_deathright4_data)
	ldx     #>(_animate_deathright4_data)
;
; else if (frame_counter < 90)
;
	jmp     L411F
L4147:	lda     _frame_counter
	cmp     #$5A
	bcs     L4148
;
; oam_meta_spr(temp_x, temp_y, animate_deathright5_data);
;
	jsr     decsp2
	lda     _temp_x
	ldy     #$01
	sta     (sp),y
	lda     _temp_y
	dey
	sta     (sp),y
	lda     #<(_animate_deathright5_data)
	ldx     #>(_animate_deathright5_data)
;
; else if (frame_counter < 100)
;
	jmp     L411F
L4148:	lda     _frame_counter
	cmp     #$64
	bcs     L4149
;
; oam_meta_spr(temp_x, temp_y, animate_deathright6_data);
;
	jsr     decsp2
	lda     _temp_x
	ldy     #$01
	sta     (sp),y
	lda     _temp_y
	dey
	sta     (sp),y
	lda     #<(_animate_deathright6_data)
	ldx     #>(_animate_deathright6_data)
;
; else if (frame_counter < 110)
;
	jmp     L411F
L4149:	lda     _frame_counter
	cmp     #$6E
	bcs     L2E24
;
; oam_meta_spr(temp_x, temp_y, animate_deathright7_data);
;
	jsr     decsp2
	lda     _temp_x
	ldy     #$01
	sta     (sp),y
	lda     _temp_y
	dey
	sta     (sp),y
	lda     #<(_animate_deathright7_data)
	ldx     #>(_animate_deathright7_data)
;
; else
;
	jmp     L411F
;
; oam_meta_spr(temp_x, temp_y, animate_deathright8_data);
;
L2E24:	jsr     decsp2
	lda     _temp_x
	ldy     #$01
	sta     (sp),y
	lda     _temp_y
	dey
	sta     (sp),y
	lda     #<(_animate_deathright8_data)
	ldx     #>(_animate_deathright8_data)
L411F:	jsr     _oam_meta_spr
;
; if (pad1_new & PAD_START)
;
L414A:	lda     _pad1_new
	and     #$10
	beq     L414B
;
; reset();
;
	jsr     _reset
;
; load_title();
;
	jsr     _load_title
;
; game_mode = MODE_TITLE;
;
	lda     #$00
	sta     _game_mode
;
; while (game_mode == MODE_DEATH)
;
L414B:	lda     _game_mode
	cmp     #$03
	jeq     L2DE0
;
; while (game_mode == MODE_PAUSE)
;
	jmp     L414C
;
; ppu_wait_nmi();
;
L2E35:	jsr     _ppu_wait_nmi
;
; pad1 = pad_poll(0); // read the first controller
;
	lda     #$00
	jsr     _pad_poll
	sta     _pad1
;
; pad1_new = get_pad_new(0);
;
	lda     #$00
	jsr     _get_pad_new
	sta     _pad1_new
;
; if (pad1_new & PAD_START)
;
	and     #$10
	beq     L414C
;
; game_mode = MODE_GAME;
;
	lda     #$01
	sta     _game_mode
;
; song = SONG_GAME;
;
	lda     #$00
	sta     _song
;
; ppu_mask(0b00011000); // grayscale mode
;
	lda     #$18
	jsr     _ppu_mask
;
; while (game_mode == MODE_PAUSE)
;
L414C:	lda     _game_mode
	cmp     #$02
	beq     L2E35
;
; while (game_mode == MODE_SWITCH)
;
	jmp     L414D
;
; ppu_off();
;
L2E48:	jsr     _ppu_off
;
; oam_clear();
;
	jsr     _oam_clear
;
; load_room();
;
	jsr     _load_room
;
; game_mode = MODE_GAME;
;
	lda     #$01
	sta     _game_mode
;
; ppu_on_all();
;
	jsr     _ppu_on_all
;
; pal_bright(4); // back to normal brighness
;
	lda     #$04
	jsr     _pal_bright
;
; while (game_mode == MODE_SWITCH)
;
L414D:	lda     _game_mode
	cmp     #$04
	beq     L2E48
;
; while (game_mode == MODE_END)
;
	jmp     L414E
;
; ppu_wait_nmi();
;
L2E54:	jsr     _ppu_wait_nmi
;
; pad1 = pad_poll(0); // read the first controller
;
	lda     #$00
	jsr     _pad_poll
	sta     _pad1
;
; pad1_new = get_pad_new(0);
;
	lda     #$00
	jsr     _get_pad_new
	sta     _pad1_new
;
; if (pad1_new & PAD_START)
;
	and     #$10
	beq     L414E
;
; reset();
;
	jsr     _reset
;
; game_mode = MODE_TITLE;
;
	lda     #$00
	sta     _game_mode
;
; while (game_mode == MODE_END)
;
L414E:	lda     _game_mode
	cmp     #$05
	beq     L2E54
;
; while (1)
;
	jmp     L412B

.endproc

; ---------------------------------------------------------------
; void __near__ load_gameover (void)
; ---------------------------------------------------------------

.segment	"CODE"

.proc	_load_gameover: near

.segment	"CODE"

;
; clear_vram_buffer();
;
	jsr     _clear_vram_buffer
;
; pal_bg(palette_gameover);
;
	lda     #<(_palette_gameover)
	ldx     #>(_palette_gameover)
	jsr     _pal_bg
;
; set_data_pointer(gameovertiled_0);
;
	lda     #<(_gameovertiled_0)
	ldx     #>(_gameovertiled_0)
	jsr     _set_data_pointer
;
; for (y = 0;; y += 0x20)
;
	lda     #$00
L4151:	sta     _y
;
; for (x = 0;; x += 0x20)
;
	lda     #$00
L4150:	sta     _x
;
; address = get_ppu_addr(0, x, y);
;
	jsr     decsp2
	lda     #$00
	ldy     #$01
	sta     (sp),y
	lda     _x
	dey
	sta     (sp),y
	lda     _y
	jsr     _get_ppu_addr
	sta     _address
	stx     _address+1
;
; index = (y & 0xf0) + (x >> 4);
;
	lda     _y
	and     #$F0
	sta     ptr1
	lda     _x
	lsr     a
	lsr     a
	lsr     a
	lsr     a
	clc
	adc     ptr1
	sta     _index
;
; buffer_4_mt(address, index); // ppu_address, index to the data
;
	lda     _address
	ldx     _address+1
	jsr     pushax
	lda     _index
	jsr     _buffer_4_mt
;
; flush_vram_update2();
;
	jsr     _flush_vram_update2
;
; if (x == 0xe0)
;
	lda     _x
	cmp     #$E0
;
; break;
;
	beq     L4152
;
; for (x = 0;; x += 0x20)
;
	lda     #$20
	clc
	adc     _x
	jmp     L4150
;
; if (y == 0xe0)
;
L4152:	lda     _y
	cmp     #$E0
;
; break;
;
	beq     L309C
;
; for (y = 0;; y += 0x20)
;
	lda     #$20
	clc
	adc     _y
	jmp     L4151
;
; multi_vram_buffer_horz("GAME OVER", 10, NTADR_A(11, 12));
;
L309C:	jsr     decsp3
	lda     #<(L30BD)
	ldy     #$01
	sta     (sp),y
	iny
	lda     #>(L30BD)
	sta     (sp),y
	lda     #$0A
	ldy     #$00
	sta     (sp),y
	ldx     #$21
	lda     #$8B
	jsr     _multi_vram_buffer_horz
;
; multi_vram_buffer_horz("PRESS START", 12, NTADR_A(10, 14));
;
	jsr     decsp3
	lda     #<(L30C7)
	ldy     #$01
	sta     (sp),y
	iny
	lda     #>(L30C7)
	sta     (sp),y
	lda     #$0C
	ldy     #$00
	sta     (sp),y
	ldx     #$21
	lda     #$CA
	jmp     _multi_vram_buffer_horz

.endproc

