;
; File generated by cc65 v 2.19 - Git 4f87c7c
;
	.fopt		compiler,"cc65 v 2.19 - Git 4f87c7c"
	.setcpu		"6502"
	.smart		on
	.autoimport	on
	.case		on
	.debuginfo	off
	.importzp	sp, sreg, regsave, regbank
	.importzp	tmp1, tmp2, tmp3, tmp4, ptr1, ptr2, ptr3, ptr4
	.macpack	longbranch
	.forceimport	__STARTUP__
	.import		_pal_bg
	.import		_pal_spr
	.import		_pal_bright
	.import		_ppu_wait_nmi
	.import		_ppu_off
	.import		_ppu_on_all
	.import		_ppu_mask
	.import		_oam_clear
	.import		_oam_meta_spr
	.import		_music_play
	.import		_music_stop
	.import		_music_pause
	.import		_sfx_play
	.import		_pad_poll
	.import		_pad_state
	.import		_bank_spr
	.import		_bank_bg
	.import		_vram_adr
	.import		_vram_unrle
	.import		_memcpy
	.import		_set_vram_buffer
	.import		_multi_vram_buffer_horz
	.import		_clear_vram_buffer
	.import		_get_pad_new
	.import		_get_frame_count
	.import		_set_music_speed
	.import		_check_collision
	.import		_pal_fade_to
	.import		_set_scroll_x
	.import		_set_scroll_y
	.import		_get_ppu_addr
	.import		_set_data_pointer
	.import		_set_mt_pointer
	.import		_buffer_4_mt
	.import		_flush_vram_update2
	.export		_animate_bread_data
	.export		_animate_bread2_data
	.export		_animate_bun_data
	.export		_animate_bun2_data
	.export		_animate_wine_data
	.export		_animate_implosion1_data
	.export		_animate_implosion2_data
	.export		_animate_implosion3_data
	.export		_animate_orb0_data
	.export		_animate_orbBig_data
	.export		_animate_meter28_data
	.export		_animate_meter27_data
	.export		_animate_meter26_data
	.export		_animate_meter25_data
	.export		_animate_meter24_data
	.export		_animate_meter23_data
	.export		_animate_meter22_data
	.export		_animate_meter21_data
	.export		_animate_meter20_data
	.export		_animate_meter19_data
	.export		_animate_meter18_data
	.export		_animate_meter17_data
	.export		_animate_meter16_data
	.export		_animate_meter15_data
	.export		_animate_meter14_data
	.export		_animate_meter13_data
	.export		_animate_meter12_data
	.export		_animate_meter11_data
	.export		_animate_meter10_data
	.export		_animate_meter9_data
	.export		_animate_meter8_data
	.export		_animate_meter7_data
	.export		_animate_meter6_data
	.export		_animate_meter5_data
	.export		_animate_meter4_data
	.export		_animate_meter3_data
	.export		_animate_meter2_data
	.export		_animate_meter1_data
	.export		_animate_meter0_data
	.export		_animate_laddertop_data
	.export		_animate_playerclimb1_data
	.export		_animate_playerclimb2_data
	.export		_animate_playerclimbshootleft_data
	.export		_animate_playerclimbshootright_data
	.export		_animate_recoilleft_data
	.export		_animate_skeletonleft_data
	.export		_animate_recoilright_data
	.export		_animate_skeletonright_data
	.export		_animate_deathright1_data
	.export		_animate_deathright2_data
	.export		_animate_deathright3_data
	.export		_animate_deathright4_data
	.export		_animate_deathright5_data
	.export		_animate_deathright6_data
	.export		_animate_deathright7_data
	.export		_animate_deathright8_data
	.export		_animate_playerstandright_data
	.export		_animate_playerstandleft_data
	.export		_animate_playerstandshootleft_data
	.export		_animate_playerstandshootright_data
	.export		_animate_playerrun1left_data
	.export		_animate_playerrun2left_data
	.export		_animate_playerrun3left_data
	.export		_animate_playerrun1right_data
	.export		_animate_playerrun2right_data
	.export		_animate_playerrun3right_data
	.export		_animate_playerrunshoot1left_data
	.export		_animate_playerrunshoot2left_data
	.export		_animate_playerrunshoot3left_data
	.export		_animate_playerrunshoot1right_data
	.export		_animate_playerrunshoot2right_data
	.export		_animate_playerrunshoot3right_data
	.export		_animate_playerjumpleft_data
	.export		_animate_playerjumpleftshoot_data
	.export		_animate_playerjumpright_data
	.export		_animate_playerjumprightshoot_data
	.export		_animate_hootyowl1left_data
	.export		_animate_hootyowl2left_data
	.export		_animate_hootyowl3left_data
	.export		_animate_hootyowl4left_data
	.export		_animate_hootyowl5left_data
	.export		_animate_hootyowl1right_data
	.export		_animate_hootyowl2right_data
	.export		_animate_hootyowl3right_data
	.export		_animate_hootyowl4right_data
	.export		_animate_hootyowl5right_data
	.export		_animate_snail1left_data
	.export		_animate_snail2left_data
	.export		_animate_snail3left_data
	.export		_animate_snail1right_data
	.export		_animate_snail2right_data
	.export		_animate_snail3right_data
	.export		_animate_bearstandleft_data
	.export		_animate_bearstandright_data
	.export		_animate_bearroarleft_data
	.export		_animate_bearroarright_data
	.export		_animate_beararms_data
	.export		_animate_beararmsright_data
	.export		_animate_bearwalk1eft_data
	.export		_animate_bearwalk2left_data
	.export		_animate_bearwalk3left_data
	.export		_animate_bearwalkright_data
	.export		_animate_bearwalk2right_data
	.export		_animate_bearwalk3right_data
	.export		_animate_bouldersmall_data
	.export		_animate_starburst1_data
	.export		_animate_starburst2_data
	.export		_animate_starburst3_data
	.export		_animate_slideleft_data
	.export		_animate_slideright_data
	.export		_animate_scroll_data
	.export		_debug
	.export		_pad1
	.export		_pad1_new
	.export		_pad1_state
	.export		_short_jump_count
	.export		_map_loaded
	.export		_collision
	.export		_player_in_air
	.export		_player_is_sliding
	.export		_player_is_running
	.export		_player_on_ladder
	.export		_player_on_ladder_pose
	.export		_player_on_ladder_top
	.export		_player_in_hitstun
	.export		_player_running
	.export		_collision_L
	.export		_collision_R
	.export		_collision_U
	.export		_collision_D
	.export		_coordinates
	.export		_falling_down
	.export		_nametable_to_load
	.export		_temp1
	.export		_temp2
	.export		_temp3
	.export		_temp4
	.export		_multi_jump
	.export		_temp5
	.export		_temp6
	.export		_tempint
	.export		_tempint2
	.export		_temp_playerlocation
	.export		_level
	.export		_offset
	.export		_level_up
	.export		_level_down
	.export		_eject_L
	.export		_eject_R
	.export		_eject_D
	.export		_eject_U
	.export		_direction
	.export		_hit_direction
	.export		_direction_y
	.export		_sprite_frame_counter
	.export		_frame_counter
	.export		_frame_counter2
	.export		_address
	.export		_x
	.export		_y
	.export		_nt
	.export		_index
	.export		_index2
	.export		_room_to_load
	.export		_current_room
	.export		_map
	.export		_scroll_x
	.export		_scroll_y
	.export		_scroll_count
	.export		_pseudo_scroll_x
	.export		_song
	.export		_game_mode
	.export		_multi_jump_max
	.export		_pointer
	.export		_l_scroll_frames
	.export		_r_scroll_frames
	.export		_old_x
	.export		_old_y
	.export		_bright
	.export		_bright_count
	.export		_temp
	.export		_temp_x
	.export		_temp_y
	.export		_temp_room
	.export		_player_shooting
	.export		_death
	.export		_death_flag
	.export		_invul_frames
	.export		_projectile_cooldown
	.export		_projectile_count
	.export		_projectile_index
	.export		_projectile_big
	.export		_projectiles_list
	.export		_projectiles_x
	.export		_projectiles_y
	.export		_sine_wave
	.export		_shuffle_array
	.export		_c_map
	.export		_c_map2
	.export		_Generic
	.export		_Generic2
	.export		_BoxGuy1
	.export		_max_rooms
	.export		_max_scroll
	.export		_enemy_x
	.export		_enemy_y
	.export		_enemy_active
	.export		_enemy_mode
	.export		_enemy_invul
	.export		_enemy_health
	.export		_enemy_room
	.export		_enemy_actual_x
	.export		_enemy_type
	.export		_enemy_dir
	.export		_enemy_anim
	.export		_enemy_frames
	.export		_entity_x
	.export		_entity_y
	.export		_entity_active
	.export		_entity_room
	.export		_entity_actual_x
	.export		_entity_type
	.export		_entity_frames
	.export		_palette_bg
	.export		_palette_sp
	.export		_metatile
	.export		_metatile_colision_map
	.export		_level0_0
	.export		_level0_1
	.export		_level0_2
	.export		_level0_3
	.export		_level0_4
	.export		_level0_5
	.export		_level0_6
	.export		_level0_7
	.export		_level1_0
	.export		_level2_0
	.export		_level2_1
	.export		_level2_2
	.export		_level2_3
	.export		_level3_0
	.export		_level4_0
	.export		_level4_1
	.export		_level4_2
	.export		_level4_3
	.export		_level4_4
	.export		_level5_0
	.export		_level6_0
	.export		_level6_1
	.export		_level7_0
	.export		_stage1_levels_list
	.export		_level_max_rooms
	.export		_level_offsets
	.export		_starting_x_place
	.export		_starting_y_place
	.export		_level_0_enemies
	.export		_level_1_enemies
	.export		_level_2_enemies
	.export		_level_3_enemies
	.export		_level_4_enemies
	.export		_level_5_enemies
	.export		_level_6_enemies
	.export		_level_7_enemies
	.export		_Enemy_list
	.export		_level_0_entities
	.export		_level_1_entities
	.export		_level_2_entities
	.export		_level_3_entities
	.export		_level_4_entities
	.export		_level_5_entities
	.export		_level_6_entities
	.export		_entity_list
	.export		_load_room
	.export		_draw_sprites
	.export		_movement
	.export		_bg_collision_sub
	.export		_draw_screen_R
	.export		_draw_screen_L
	.export		_new_cmap
	.export		_handle_scrolling
	.export		_projectile_movement
	.export		_check_spr_objects
	.export		_check_entity_objects
	.export		_sprite_collisions
	.export		_entity_collisions
	.export		_load_title
	.export		_load_victory
	.export		_enemy_moves
	.export		_entity_moves
	.export		_reset
	.export		_sprite_obj_init
	.export		_entity_obj_init
	.export		_init_death
	.export		_level_down_routine
	.export		_level_up_routine
	.export		_load_bear_victory
	.export		_enemy_snail_behavior
	.export		_enemy_owl_behavior
	.export		_enemy_bear_behavior
	.export		_waitTen
	.export		_drawMetatileBlock
	.export		_bg_coll_L
	.export		_bg_coll_R
	.export		_bg_coll_U
	.export		_bg_coll_D
	.export		_bg_coll_D2
	.export		_get_position
	.export		_bg_collision_fast
	.export		_bg_coll_ladder
	.export		_bg_coll_ladder_top_at_player
	.export		_bg_coll_ladder_top_under_player
	.export		_draw_health_meter
	.export		_draw_player_sprites
	.export		_main
	.export		_titletiled_0
	.export		_gameovertiled_0
	.export		_palette_gameover
	.export		_load_gameover
	.export		_clear_bg
	.export		_palette_victory
	.export		_victory
	.export		_enemy_implosion

.segment	"DATA"

_direction:
	.byte	$01
_direction_y:
	.byte	$01
_room_to_load:
	.byte	$00
_current_room:
	.byte	$00
_projectiles_list:
	.byte	$FF
	.byte	$FF
	.byte	$FF
	.byte	$FF
_projectiles_x:
	.byte	$00
	.byte	$00
	.byte	$00
	.byte	$00
_projectiles_y:
	.byte	$00
	.byte	$00
	.byte	$00
	.byte	$00
_sine_wave:
	.byte	$05
	.byte	$08
	.byte	$0A
	.byte	$0A
	.byte	$08
	.byte	$05
	.byte	$02
	.byte	$00
	.byte	$00
	.byte	$02
_BoxGuy1:
	.word	$4000
	.word	$8400
	.res	5,$00

.segment	"RODATA"

_animate_bread_data:
	.byte	$00
	.byte	$00
	.byte	$0D
	.byte	$00
	.byte	$08
	.byte	$00
	.byte	$0E
	.byte	$00
	.byte	$00
	.byte	$F8
	.byte	$2B
	.byte	$02
	.byte	$08
	.byte	$F8
	.byte	$2B
	.byte	$C2
	.byte	$80
_animate_bread2_data:
	.byte	$00
	.byte	$00
	.byte	$0D
	.byte	$00
	.byte	$08
	.byte	$00
	.byte	$0E
	.byte	$00
	.byte	$00
	.byte	$F8
	.byte	$2B
	.byte	$82
	.byte	$08
	.byte	$F8
	.byte	$2B
	.byte	$42
	.byte	$80
_animate_bun_data:
	.byte	$00
	.byte	$00
	.byte	$1D
	.byte	$00
	.byte	$00
	.byte	$F8
	.byte	$2B
	.byte	$02
	.byte	$80
_animate_bun2_data:
	.byte	$00
	.byte	$00
	.byte	$1D
	.byte	$00
	.byte	$00
	.byte	$F8
	.byte	$2B
	.byte	$C2
	.byte	$80
_animate_wine_data:
	.byte	$00
	.byte	$00
	.byte	$0F
	.byte	$02
	.byte	$00
	.byte	$08
	.byte	$1F
	.byte	$02
	.byte	$00
	.byte	$01
	.byte	$1C
	.byte	$00
	.byte	$80
_animate_implosion1_data:
	.byte	$00
	.byte	$00
	.byte	$2E
	.byte	$02
	.byte	$08
	.byte	$00
	.byte	$2E
	.byte	$42
	.byte	$00
	.byte	$08
	.byte	$2E
	.byte	$82
	.byte	$08
	.byte	$08
	.byte	$2E
	.byte	$C2
	.byte	$80
_animate_implosion2_data:
	.byte	$04
	.byte	$04
	.byte	$2F
	.byte	$02
	.byte	$80
_animate_implosion3_data:
	.byte	$04
	.byte	$04
	.byte	$3F
	.byte	$02
	.byte	$80
_animate_orb0_data:
	.byte	$00
	.byte	$00
	.byte	$0C
	.byte	$03
	.byte	$80
_animate_orbBig_data:
	.byte	$00
	.byte	$00
	.byte	$CF
	.byte	$03
	.byte	$80
_animate_meter28_data:
	.byte	$00
	.byte	$00
	.byte	$50
	.byte	$02
	.byte	$00
	.byte	$08
	.byte	$50
	.byte	$02
	.byte	$00
	.byte	$10
	.byte	$50
	.byte	$02
	.byte	$00
	.byte	$18
	.byte	$50
	.byte	$02
	.byte	$00
	.byte	$20
	.byte	$50
	.byte	$02
	.byte	$00
	.byte	$28
	.byte	$50
	.byte	$02
	.byte	$00
	.byte	$30
	.byte	$50
	.byte	$02
	.byte	$80
_animate_meter27_data:
	.byte	$00
	.byte	$00
	.byte	$51
	.byte	$02
	.byte	$00
	.byte	$08
	.byte	$50
	.byte	$02
	.byte	$00
	.byte	$10
	.byte	$50
	.byte	$02
	.byte	$00
	.byte	$18
	.byte	$50
	.byte	$02
	.byte	$00
	.byte	$20
	.byte	$50
	.byte	$02
	.byte	$00
	.byte	$28
	.byte	$50
	.byte	$02
	.byte	$00
	.byte	$30
	.byte	$50
	.byte	$02
	.byte	$80
_animate_meter26_data:
	.byte	$00
	.byte	$00
	.byte	$52
	.byte	$02
	.byte	$00
	.byte	$08
	.byte	$50
	.byte	$02
	.byte	$00
	.byte	$10
	.byte	$50
	.byte	$02
	.byte	$00
	.byte	$18
	.byte	$50
	.byte	$02
	.byte	$00
	.byte	$20
	.byte	$50
	.byte	$02
	.byte	$00
	.byte	$28
	.byte	$50
	.byte	$02
	.byte	$00
	.byte	$30
	.byte	$50
	.byte	$02
	.byte	$80
_animate_meter25_data:
	.byte	$00
	.byte	$00
	.byte	$53
	.byte	$02
	.byte	$00
	.byte	$08
	.byte	$50
	.byte	$02
	.byte	$00
	.byte	$10
	.byte	$50
	.byte	$02
	.byte	$00
	.byte	$18
	.byte	$50
	.byte	$02
	.byte	$00
	.byte	$20
	.byte	$50
	.byte	$02
	.byte	$00
	.byte	$28
	.byte	$50
	.byte	$02
	.byte	$00
	.byte	$30
	.byte	$50
	.byte	$02
	.byte	$80
_animate_meter24_data:
	.byte	$00
	.byte	$00
	.byte	$54
	.byte	$02
	.byte	$00
	.byte	$08
	.byte	$50
	.byte	$02
	.byte	$00
	.byte	$10
	.byte	$50
	.byte	$02
	.byte	$00
	.byte	$18
	.byte	$50
	.byte	$02
	.byte	$00
	.byte	$20
	.byte	$50
	.byte	$02
	.byte	$00
	.byte	$28
	.byte	$50
	.byte	$02
	.byte	$00
	.byte	$30
	.byte	$50
	.byte	$02
	.byte	$80
_animate_meter23_data:
	.byte	$00
	.byte	$00
	.byte	$54
	.byte	$02
	.byte	$00
	.byte	$08
	.byte	$51
	.byte	$02
	.byte	$00
	.byte	$10
	.byte	$50
	.byte	$02
	.byte	$00
	.byte	$18
	.byte	$50
	.byte	$02
	.byte	$00
	.byte	$20
	.byte	$50
	.byte	$02
	.byte	$00
	.byte	$28
	.byte	$50
	.byte	$02
	.byte	$00
	.byte	$30
	.byte	$50
	.byte	$02
	.byte	$80
_animate_meter22_data:
	.byte	$00
	.byte	$00
	.byte	$54
	.byte	$02
	.byte	$00
	.byte	$08
	.byte	$52
	.byte	$02
	.byte	$00
	.byte	$10
	.byte	$50
	.byte	$02
	.byte	$00
	.byte	$18
	.byte	$50
	.byte	$02
	.byte	$00
	.byte	$20
	.byte	$50
	.byte	$02
	.byte	$00
	.byte	$28
	.byte	$50
	.byte	$02
	.byte	$00
	.byte	$30
	.byte	$50
	.byte	$02
	.byte	$80
_animate_meter21_data:
	.byte	$00
	.byte	$00
	.byte	$54
	.byte	$02
	.byte	$00
	.byte	$08
	.byte	$53
	.byte	$02
	.byte	$00
	.byte	$10
	.byte	$50
	.byte	$02
	.byte	$00
	.byte	$18
	.byte	$50
	.byte	$02
	.byte	$00
	.byte	$20
	.byte	$50
	.byte	$02
	.byte	$00
	.byte	$28
	.byte	$50
	.byte	$02
	.byte	$00
	.byte	$30
	.byte	$50
	.byte	$02
	.byte	$80
_animate_meter20_data:
	.byte	$00
	.byte	$00
	.byte	$54
	.byte	$02
	.byte	$00
	.byte	$08
	.byte	$54
	.byte	$02
	.byte	$00
	.byte	$10
	.byte	$50
	.byte	$02
	.byte	$00
	.byte	$18
	.byte	$50
	.byte	$02
	.byte	$00
	.byte	$20
	.byte	$50
	.byte	$02
	.byte	$00
	.byte	$28
	.byte	$50
	.byte	$02
	.byte	$00
	.byte	$30
	.byte	$50
	.byte	$02
	.byte	$80
_animate_meter19_data:
	.byte	$00
	.byte	$00
	.byte	$54
	.byte	$02
	.byte	$00
	.byte	$08
	.byte	$54
	.byte	$02
	.byte	$00
	.byte	$10
	.byte	$51
	.byte	$02
	.byte	$00
	.byte	$18
	.byte	$50
	.byte	$02
	.byte	$00
	.byte	$20
	.byte	$50
	.byte	$02
	.byte	$00
	.byte	$28
	.byte	$50
	.byte	$02
	.byte	$00
	.byte	$30
	.byte	$50
	.byte	$02
	.byte	$80
_animate_meter18_data:
	.byte	$00
	.byte	$00
	.byte	$54
	.byte	$02
	.byte	$00
	.byte	$08
	.byte	$54
	.byte	$02
	.byte	$00
	.byte	$10
	.byte	$52
	.byte	$02
	.byte	$00
	.byte	$18
	.byte	$50
	.byte	$02
	.byte	$00
	.byte	$20
	.byte	$50
	.byte	$02
	.byte	$00
	.byte	$28
	.byte	$50
	.byte	$02
	.byte	$00
	.byte	$30
	.byte	$50
	.byte	$02
	.byte	$80
_animate_meter17_data:
	.byte	$00
	.byte	$00
	.byte	$54
	.byte	$02
	.byte	$00
	.byte	$08
	.byte	$54
	.byte	$02
	.byte	$00
	.byte	$10
	.byte	$53
	.byte	$02
	.byte	$00
	.byte	$18
	.byte	$50
	.byte	$02
	.byte	$00
	.byte	$20
	.byte	$50
	.byte	$02
	.byte	$00
	.byte	$28
	.byte	$50
	.byte	$02
	.byte	$00
	.byte	$30
	.byte	$50
	.byte	$02
	.byte	$80
_animate_meter16_data:
	.byte	$00
	.byte	$00
	.byte	$54
	.byte	$02
	.byte	$00
	.byte	$08
	.byte	$54
	.byte	$02
	.byte	$00
	.byte	$10
	.byte	$54
	.byte	$02
	.byte	$00
	.byte	$18
	.byte	$50
	.byte	$02
	.byte	$00
	.byte	$20
	.byte	$50
	.byte	$02
	.byte	$00
	.byte	$28
	.byte	$50
	.byte	$02
	.byte	$00
	.byte	$30
	.byte	$50
	.byte	$02
	.byte	$80
_animate_meter15_data:
	.byte	$00
	.byte	$00
	.byte	$54
	.byte	$02
	.byte	$00
	.byte	$08
	.byte	$54
	.byte	$02
	.byte	$00
	.byte	$10
	.byte	$54
	.byte	$02
	.byte	$00
	.byte	$18
	.byte	$51
	.byte	$02
	.byte	$00
	.byte	$20
	.byte	$50
	.byte	$02
	.byte	$00
	.byte	$28
	.byte	$50
	.byte	$02
	.byte	$00
	.byte	$30
	.byte	$50
	.byte	$02
	.byte	$80
_animate_meter14_data:
	.byte	$00
	.byte	$00
	.byte	$54
	.byte	$02
	.byte	$00
	.byte	$08
	.byte	$54
	.byte	$02
	.byte	$00
	.byte	$10
	.byte	$54
	.byte	$02
	.byte	$00
	.byte	$18
	.byte	$52
	.byte	$02
	.byte	$00
	.byte	$20
	.byte	$50
	.byte	$02
	.byte	$00
	.byte	$28
	.byte	$50
	.byte	$02
	.byte	$00
	.byte	$30
	.byte	$50
	.byte	$02
	.byte	$80
_animate_meter13_data:
	.byte	$00
	.byte	$00
	.byte	$54
	.byte	$02
	.byte	$00
	.byte	$08
	.byte	$54
	.byte	$02
	.byte	$00
	.byte	$10
	.byte	$54
	.byte	$02
	.byte	$00
	.byte	$18
	.byte	$53
	.byte	$02
	.byte	$00
	.byte	$20
	.byte	$50
	.byte	$02
	.byte	$00
	.byte	$28
	.byte	$50
	.byte	$02
	.byte	$00
	.byte	$30
	.byte	$50
	.byte	$02
	.byte	$80
_animate_meter12_data:
	.byte	$00
	.byte	$00
	.byte	$54
	.byte	$02
	.byte	$00
	.byte	$08
	.byte	$54
	.byte	$02
	.byte	$00
	.byte	$10
	.byte	$54
	.byte	$02
	.byte	$00
	.byte	$18
	.byte	$54
	.byte	$02
	.byte	$00
	.byte	$20
	.byte	$50
	.byte	$02
	.byte	$00
	.byte	$28
	.byte	$50
	.byte	$02
	.byte	$00
	.byte	$30
	.byte	$50
	.byte	$02
	.byte	$80
_animate_meter11_data:
	.byte	$00
	.byte	$00
	.byte	$54
	.byte	$02
	.byte	$00
	.byte	$08
	.byte	$54
	.byte	$02
	.byte	$00
	.byte	$10
	.byte	$54
	.byte	$02
	.byte	$00
	.byte	$18
	.byte	$54
	.byte	$02
	.byte	$00
	.byte	$20
	.byte	$51
	.byte	$02
	.byte	$00
	.byte	$28
	.byte	$50
	.byte	$02
	.byte	$00
	.byte	$30
	.byte	$50
	.byte	$02
	.byte	$80
_animate_meter10_data:
	.byte	$00
	.byte	$00
	.byte	$54
	.byte	$02
	.byte	$00
	.byte	$08
	.byte	$54
	.byte	$02
	.byte	$00
	.byte	$10
	.byte	$54
	.byte	$02
	.byte	$00
	.byte	$18
	.byte	$54
	.byte	$02
	.byte	$00
	.byte	$20
	.byte	$52
	.byte	$02
	.byte	$00
	.byte	$28
	.byte	$50
	.byte	$02
	.byte	$00
	.byte	$30
	.byte	$50
	.byte	$02
	.byte	$80
_animate_meter9_data:
	.byte	$00
	.byte	$00
	.byte	$54
	.byte	$02
	.byte	$00
	.byte	$08
	.byte	$54
	.byte	$02
	.byte	$00
	.byte	$10
	.byte	$54
	.byte	$02
	.byte	$00
	.byte	$18
	.byte	$54
	.byte	$02
	.byte	$00
	.byte	$20
	.byte	$53
	.byte	$02
	.byte	$00
	.byte	$28
	.byte	$50
	.byte	$02
	.byte	$00
	.byte	$30
	.byte	$50
	.byte	$02
	.byte	$80
_animate_meter8_data:
	.byte	$00
	.byte	$00
	.byte	$54
	.byte	$02
	.byte	$00
	.byte	$08
	.byte	$54
	.byte	$02
	.byte	$00
	.byte	$10
	.byte	$54
	.byte	$02
	.byte	$00
	.byte	$18
	.byte	$54
	.byte	$02
	.byte	$00
	.byte	$20
	.byte	$54
	.byte	$02
	.byte	$00
	.byte	$28
	.byte	$50
	.byte	$02
	.byte	$00
	.byte	$30
	.byte	$50
	.byte	$02
	.byte	$80
_animate_meter7_data:
	.byte	$00
	.byte	$00
	.byte	$54
	.byte	$02
	.byte	$00
	.byte	$08
	.byte	$54
	.byte	$02
	.byte	$00
	.byte	$10
	.byte	$54
	.byte	$02
	.byte	$00
	.byte	$18
	.byte	$54
	.byte	$02
	.byte	$00
	.byte	$20
	.byte	$54
	.byte	$02
	.byte	$00
	.byte	$28
	.byte	$51
	.byte	$02
	.byte	$00
	.byte	$30
	.byte	$50
	.byte	$02
	.byte	$80
_animate_meter6_data:
	.byte	$00
	.byte	$00
	.byte	$54
	.byte	$02
	.byte	$00
	.byte	$08
	.byte	$54
	.byte	$02
	.byte	$00
	.byte	$10
	.byte	$54
	.byte	$02
	.byte	$00
	.byte	$18
	.byte	$54
	.byte	$02
	.byte	$00
	.byte	$20
	.byte	$54
	.byte	$02
	.byte	$00
	.byte	$28
	.byte	$52
	.byte	$02
	.byte	$00
	.byte	$30
	.byte	$50
	.byte	$02
	.byte	$80
_animate_meter5_data:
	.byte	$00
	.byte	$00
	.byte	$54
	.byte	$02
	.byte	$00
	.byte	$08
	.byte	$54
	.byte	$02
	.byte	$00
	.byte	$10
	.byte	$54
	.byte	$02
	.byte	$00
	.byte	$18
	.byte	$54
	.byte	$02
	.byte	$00
	.byte	$20
	.byte	$54
	.byte	$02
	.byte	$00
	.byte	$28
	.byte	$53
	.byte	$02
	.byte	$00
	.byte	$30
	.byte	$50
	.byte	$02
	.byte	$80
_animate_meter4_data:
	.byte	$00
	.byte	$00
	.byte	$54
	.byte	$02
	.byte	$00
	.byte	$08
	.byte	$54
	.byte	$02
	.byte	$00
	.byte	$10
	.byte	$54
	.byte	$02
	.byte	$00
	.byte	$18
	.byte	$54
	.byte	$02
	.byte	$00
	.byte	$20
	.byte	$54
	.byte	$02
	.byte	$00
	.byte	$28
	.byte	$54
	.byte	$02
	.byte	$00
	.byte	$30
	.byte	$50
	.byte	$02
	.byte	$80
_animate_meter3_data:
	.byte	$00
	.byte	$00
	.byte	$54
	.byte	$02
	.byte	$00
	.byte	$08
	.byte	$54
	.byte	$02
	.byte	$00
	.byte	$10
	.byte	$54
	.byte	$02
	.byte	$00
	.byte	$18
	.byte	$54
	.byte	$02
	.byte	$00
	.byte	$20
	.byte	$54
	.byte	$02
	.byte	$00
	.byte	$28
	.byte	$54
	.byte	$02
	.byte	$00
	.byte	$30
	.byte	$51
	.byte	$02
	.byte	$80
_animate_meter2_data:
	.byte	$00
	.byte	$00
	.byte	$54
	.byte	$02
	.byte	$00
	.byte	$08
	.byte	$54
	.byte	$02
	.byte	$00
	.byte	$10
	.byte	$54
	.byte	$02
	.byte	$00
	.byte	$18
	.byte	$54
	.byte	$02
	.byte	$00
	.byte	$20
	.byte	$54
	.byte	$02
	.byte	$00
	.byte	$28
	.byte	$54
	.byte	$02
	.byte	$00
	.byte	$30
	.byte	$52
	.byte	$02
	.byte	$80
_animate_meter1_data:
	.byte	$00
	.byte	$00
	.byte	$54
	.byte	$02
	.byte	$00
	.byte	$08
	.byte	$54
	.byte	$02
	.byte	$00
	.byte	$10
	.byte	$54
	.byte	$02
	.byte	$00
	.byte	$18
	.byte	$54
	.byte	$02
	.byte	$00
	.byte	$20
	.byte	$54
	.byte	$02
	.byte	$00
	.byte	$28
	.byte	$54
	.byte	$02
	.byte	$00
	.byte	$30
	.byte	$53
	.byte	$02
	.byte	$80
_animate_meter0_data:
	.byte	$00
	.byte	$00
	.byte	$54
	.byte	$02
	.byte	$00
	.byte	$08
	.byte	$54
	.byte	$02
	.byte	$00
	.byte	$10
	.byte	$54
	.byte	$02
	.byte	$00
	.byte	$18
	.byte	$54
	.byte	$02
	.byte	$00
	.byte	$20
	.byte	$54
	.byte	$02
	.byte	$00
	.byte	$28
	.byte	$54
	.byte	$02
	.byte	$00
	.byte	$30
	.byte	$54
	.byte	$02
	.byte	$80
_animate_laddertop_data:
	.byte	$00
	.byte	$00
	.byte	$57
	.byte	$00
	.byte	$08
	.byte	$00
	.byte	$57
	.byte	$40
	.byte	$00
	.byte	$08
	.byte	$26
	.byte	$00
	.byte	$08
	.byte	$08
	.byte	$36
	.byte	$00
	.byte	$00
	.byte	$F8
	.byte	$55
	.byte	$00
	.byte	$08
	.byte	$F8
	.byte	$56
	.byte	$00
	.byte	$80
_animate_playerclimb1_data:
	.byte	$00
	.byte	$F8
	.byte	$04
	.byte	$00
	.byte	$08
	.byte	$F8
	.byte	$03
	.byte	$00
	.byte	$00
	.byte	$00
	.byte	$14
	.byte	$00
	.byte	$08
	.byte	$00
	.byte	$13
	.byte	$00
	.byte	$00
	.byte	$08
	.byte	$22
	.byte	$00
	.byte	$08
	.byte	$08
	.byte	$25
	.byte	$00
	.byte	$80
_animate_playerclimb2_data:
	.byte	$00
	.byte	$F8
	.byte	$02
	.byte	$00
	.byte	$08
	.byte	$F8
	.byte	$05
	.byte	$00
	.byte	$00
	.byte	$00
	.byte	$12
	.byte	$00
	.byte	$08
	.byte	$00
	.byte	$15
	.byte	$00
	.byte	$00
	.byte	$08
	.byte	$24
	.byte	$00
	.byte	$08
	.byte	$08
	.byte	$23
	.byte	$00
	.byte	$80
_animate_playerclimbshootleft_data:
	.byte	$00
	.byte	$F8
	.byte	$06
	.byte	$00
	.byte	$08
	.byte	$F8
	.byte	$07
	.byte	$00
	.byte	$00
	.byte	$00
	.byte	$16
	.byte	$00
	.byte	$08
	.byte	$00
	.byte	$13
	.byte	$00
	.byte	$00
	.byte	$08
	.byte	$22
	.byte	$00
	.byte	$08
	.byte	$08
	.byte	$25
	.byte	$00
	.byte	$01
	.byte	$F9
	.byte	$0A
	.byte	$02
	.byte	$F8
	.byte	$00
	.byte	$08
	.byte	$00
	.byte	$80
_animate_playerclimbshootright_data:
	.byte	$00
	.byte	$F8
	.byte	$07
	.byte	$40
	.byte	$08
	.byte	$F8
	.byte	$06
	.byte	$40
	.byte	$00
	.byte	$00
	.byte	$12
	.byte	$00
	.byte	$08
	.byte	$00
	.byte	$16
	.byte	$40
	.byte	$00
	.byte	$08
	.byte	$24
	.byte	$00
	.byte	$08
	.byte	$08
	.byte	$23
	.byte	$00
	.byte	$10
	.byte	$00
	.byte	$08
	.byte	$40
	.byte	$07
	.byte	$F9
	.byte	$0A
	.byte	$42
	.byte	$80
_animate_recoilleft_data:
	.byte	$00
	.byte	$F8
	.byte	$29
	.byte	$00
	.byte	$08
	.byte	$F8
	.byte	$2A
	.byte	$00
	.byte	$00
	.byte	$00
	.byte	$39
	.byte	$00
	.byte	$08
	.byte	$00
	.byte	$3A
	.byte	$00
	.byte	$00
	.byte	$08
	.byte	$49
	.byte	$00
	.byte	$08
	.byte	$08
	.byte	$4A
	.byte	$00
	.byte	$10
	.byte	$00
	.byte	$3B
	.byte	$00
	.byte	$F8
	.byte	$00
	.byte	$3B
	.byte	$40
	.byte	$04
	.byte	$F9
	.byte	$0B
	.byte	$02
	.byte	$80
_animate_skeletonleft_data:
	.byte	$00
	.byte	$F8
	.byte	$2C
	.byte	$02
	.byte	$00
	.byte	$08
	.byte	$4C
	.byte	$02
	.byte	$00
	.byte	$00
	.byte	$3C
	.byte	$02
	.byte	$08
	.byte	$00
	.byte	$3D
	.byte	$02
	.byte	$08
	.byte	$F8
	.byte	$2D
	.byte	$02
	.byte	$08
	.byte	$08
	.byte	$4D
	.byte	$02
	.byte	$10
	.byte	$00
	.byte	$4B
	.byte	$42
	.byte	$F8
	.byte	$00
	.byte	$4B
	.byte	$02
	.byte	$80
_animate_recoilright_data:
	.byte	$08
	.byte	$F8
	.byte	$29
	.byte	$40
	.byte	$00
	.byte	$F8
	.byte	$2A
	.byte	$40
	.byte	$08
	.byte	$00
	.byte	$39
	.byte	$40
	.byte	$00
	.byte	$00
	.byte	$3A
	.byte	$40
	.byte	$08
	.byte	$08
	.byte	$49
	.byte	$40
	.byte	$00
	.byte	$08
	.byte	$4A
	.byte	$40
	.byte	$F8
	.byte	$00
	.byte	$3B
	.byte	$40
	.byte	$10
	.byte	$00
	.byte	$3B
	.byte	$00
	.byte	$04
	.byte	$F9
	.byte	$0B
	.byte	$42
	.byte	$80
_animate_skeletonright_data:
	.byte	$08
	.byte	$F8
	.byte	$2C
	.byte	$42
	.byte	$08
	.byte	$08
	.byte	$4C
	.byte	$42
	.byte	$08
	.byte	$00
	.byte	$3C
	.byte	$42
	.byte	$00
	.byte	$00
	.byte	$3D
	.byte	$42
	.byte	$00
	.byte	$F8
	.byte	$2D
	.byte	$42
	.byte	$00
	.byte	$08
	.byte	$4D
	.byte	$42
	.byte	$F8
	.byte	$00
	.byte	$4B
	.byte	$02
	.byte	$10
	.byte	$00
	.byte	$4B
	.byte	$42
	.byte	$80
_animate_deathright1_data:
	.byte	$08
	.byte	$F8
	.byte	$2C
	.byte	$42
	.byte	$08
	.byte	$08
	.byte	$4C
	.byte	$42
	.byte	$08
	.byte	$00
	.byte	$3C
	.byte	$42
	.byte	$00
	.byte	$00
	.byte	$3D
	.byte	$42
	.byte	$00
	.byte	$F8
	.byte	$2D
	.byte	$42
	.byte	$00
	.byte	$08
	.byte	$4D
	.byte	$42
	.byte	$F8
	.byte	$00
	.byte	$4B
	.byte	$02
	.byte	$10
	.byte	$00
	.byte	$4B
	.byte	$42
	.byte	$80
_animate_deathright2_data:
	.byte	$08
	.byte	$F8
	.byte	$2C
	.byte	$42
	.byte	$08
	.byte	$08
	.byte	$4C
	.byte	$42
	.byte	$08
	.byte	$00
	.byte	$3C
	.byte	$42
	.byte	$00
	.byte	$00
	.byte	$3D
	.byte	$42
	.byte	$00
	.byte	$F8
	.byte	$2D
	.byte	$42
	.byte	$00
	.byte	$08
	.byte	$4D
	.byte	$42
	.byte	$F8
	.byte	$00
	.byte	$4B
	.byte	$02
	.byte	$10
	.byte	$00
	.byte	$4B
	.byte	$42
	.byte	$80
_animate_deathright3_data:
	.byte	$08
	.byte	$FA
	.byte	$2C
	.byte	$42
	.byte	$08
	.byte	$02
	.byte	$3C
	.byte	$42
	.byte	$00
	.byte	$02
	.byte	$3D
	.byte	$42
	.byte	$00
	.byte	$FA
	.byte	$2D
	.byte	$42
	.byte	$F8
	.byte	$00
	.byte	$4B
	.byte	$02
	.byte	$10
	.byte	$00
	.byte	$4B
	.byte	$42
	.byte	$08
	.byte	$08
	.byte	$4C
	.byte	$42
	.byte	$00
	.byte	$08
	.byte	$4D
	.byte	$42
	.byte	$80
_animate_deathright4_data:
	.byte	$08
	.byte	$FC
	.byte	$2C
	.byte	$42
	.byte	$08
	.byte	$04
	.byte	$3C
	.byte	$42
	.byte	$00
	.byte	$04
	.byte	$3D
	.byte	$42
	.byte	$00
	.byte	$FC
	.byte	$2D
	.byte	$42
	.byte	$F8
	.byte	$02
	.byte	$4B
	.byte	$02
	.byte	$10
	.byte	$02
	.byte	$4B
	.byte	$42
	.byte	$08
	.byte	$08
	.byte	$4C
	.byte	$42
	.byte	$00
	.byte	$08
	.byte	$4D
	.byte	$42
	.byte	$80
_animate_deathright5_data:
	.byte	$08
	.byte	$FE
	.byte	$2C
	.byte	$42
	.byte	$08
	.byte	$06
	.byte	$3C
	.byte	$42
	.byte	$00
	.byte	$06
	.byte	$3D
	.byte	$42
	.byte	$00
	.byte	$FE
	.byte	$2D
	.byte	$42
	.byte	$F8
	.byte	$04
	.byte	$4B
	.byte	$02
	.byte	$10
	.byte	$04
	.byte	$4B
	.byte	$42
	.byte	$08
	.byte	$08
	.byte	$4C
	.byte	$42
	.byte	$00
	.byte	$08
	.byte	$4D
	.byte	$42
	.byte	$80
_animate_deathright6_data:
	.byte	$08
	.byte	$FE
	.byte	$2C
	.byte	$42
	.byte	$08
	.byte	$06
	.byte	$3C
	.byte	$42
	.byte	$00
	.byte	$06
	.byte	$3D
	.byte	$42
	.byte	$00
	.byte	$FE
	.byte	$2D
	.byte	$42
	.byte	$F8
	.byte	$06
	.byte	$4B
	.byte	$02
	.byte	$10
	.byte	$06
	.byte	$4B
	.byte	$42
	.byte	$08
	.byte	$08
	.byte	$4C
	.byte	$42
	.byte	$00
	.byte	$08
	.byte	$4D
	.byte	$42
	.byte	$80
_animate_deathright7_data:
	.byte	$08
	.byte	$FF
	.byte	$2C
	.byte	$42
	.byte	$08
	.byte	$07
	.byte	$5E
	.byte	$42
	.byte	$00
	.byte	$07
	.byte	$5F
	.byte	$42
	.byte	$00
	.byte	$FF
	.byte	$2D
	.byte	$42
	.byte	$F9
	.byte	$09
	.byte	$4B
	.byte	$02
	.byte	$0F
	.byte	$09
	.byte	$4B
	.byte	$42
	.byte	$80
_animate_deathright8_data:
	.byte	$08
	.byte	$FF
	.byte	$2C
	.byte	$42
	.byte	$08
	.byte	$07
	.byte	$5E
	.byte	$42
	.byte	$00
	.byte	$07
	.byte	$5F
	.byte	$42
	.byte	$00
	.byte	$FF
	.byte	$2D
	.byte	$42
	.byte	$F9
	.byte	$0B
	.byte	$4B
	.byte	$02
	.byte	$0F
	.byte	$0B
	.byte	$4B
	.byte	$42
	.byte	$80
_animate_playerstandright_data:
	.byte	$08
	.byte	$F8
	.byte	$00
	.byte	$40
	.byte	$00
	.byte	$F8
	.byte	$01
	.byte	$40
	.byte	$08
	.byte	$00
	.byte	$10
	.byte	$40
	.byte	$00
	.byte	$00
	.byte	$11
	.byte	$40
	.byte	$08
	.byte	$08
	.byte	$20
	.byte	$40
	.byte	$00
	.byte	$08
	.byte	$21
	.byte	$40
	.byte	$04
	.byte	$F9
	.byte	$0B
	.byte	$42
	.byte	$80
_animate_playerstandleft_data:
	.byte	$00
	.byte	$F8
	.byte	$00
	.byte	$00
	.byte	$08
	.byte	$F8
	.byte	$01
	.byte	$00
	.byte	$00
	.byte	$00
	.byte	$10
	.byte	$00
	.byte	$08
	.byte	$00
	.byte	$11
	.byte	$00
	.byte	$00
	.byte	$08
	.byte	$20
	.byte	$00
	.byte	$08
	.byte	$08
	.byte	$21
	.byte	$00
	.byte	$04
	.byte	$F9
	.byte	$0B
	.byte	$02
	.byte	$80
_animate_playerstandshootleft_data:
	.byte	$00
	.byte	$F8
	.byte	$00
	.byte	$00
	.byte	$08
	.byte	$F8
	.byte	$01
	.byte	$00
	.byte	$00
	.byte	$00
	.byte	$09
	.byte	$00
	.byte	$08
	.byte	$00
	.byte	$11
	.byte	$00
	.byte	$00
	.byte	$08
	.byte	$20
	.byte	$00
	.byte	$08
	.byte	$08
	.byte	$21
	.byte	$00
	.byte	$04
	.byte	$F9
	.byte	$0B
	.byte	$02
	.byte	$F8
	.byte	$00
	.byte	$08
	.byte	$00
	.byte	$80
_animate_playerstandshootright_data:
	.byte	$08
	.byte	$F8
	.byte	$00
	.byte	$40
	.byte	$00
	.byte	$F8
	.byte	$01
	.byte	$40
	.byte	$08
	.byte	$00
	.byte	$09
	.byte	$40
	.byte	$00
	.byte	$00
	.byte	$11
	.byte	$40
	.byte	$08
	.byte	$08
	.byte	$20
	.byte	$40
	.byte	$00
	.byte	$08
	.byte	$21
	.byte	$40
	.byte	$04
	.byte	$F9
	.byte	$0B
	.byte	$42
	.byte	$10
	.byte	$00
	.byte	$08
	.byte	$40
	.byte	$80
_animate_playerrun1left_data:
	.byte	$10
	.byte	$08
	.byte	$46
	.byte	$00
	.byte	$00
	.byte	$F8
	.byte	$1A
	.byte	$00
	.byte	$08
	.byte	$F8
	.byte	$1B
	.byte	$00
	.byte	$00
	.byte	$00
	.byte	$32
	.byte	$00
	.byte	$08
	.byte	$00
	.byte	$33
	.byte	$00
	.byte	$00
	.byte	$08
	.byte	$42
	.byte	$00
	.byte	$08
	.byte	$08
	.byte	$43
	.byte	$00
	.byte	$04
	.byte	$FB
	.byte	$0B
	.byte	$02
	.byte	$80
_animate_playerrun2left_data:
	.byte	$00
	.byte	$F8
	.byte	$00
	.byte	$00
	.byte	$08
	.byte	$F8
	.byte	$01
	.byte	$00
	.byte	$00
	.byte	$00
	.byte	$30
	.byte	$00
	.byte	$08
	.byte	$00
	.byte	$31
	.byte	$00
	.byte	$00
	.byte	$08
	.byte	$40
	.byte	$00
	.byte	$08
	.byte	$08
	.byte	$41
	.byte	$00
	.byte	$04
	.byte	$F9
	.byte	$0B
	.byte	$02
	.byte	$80
_animate_playerrun3left_data:
	.byte	$10
	.byte	$07
	.byte	$46
	.byte	$00
	.byte	$00
	.byte	$F8
	.byte	$1A
	.byte	$00
	.byte	$08
	.byte	$F8
	.byte	$1B
	.byte	$00
	.byte	$00
	.byte	$00
	.byte	$34
	.byte	$00
	.byte	$08
	.byte	$00
	.byte	$35
	.byte	$00
	.byte	$00
	.byte	$08
	.byte	$44
	.byte	$00
	.byte	$08
	.byte	$08
	.byte	$45
	.byte	$00
	.byte	$04
	.byte	$FB
	.byte	$0B
	.byte	$02
	.byte	$80
_animate_playerrun1right_data:
	.byte	$08
	.byte	$F8
	.byte	$1A
	.byte	$40
	.byte	$00
	.byte	$F8
	.byte	$1B
	.byte	$40
	.byte	$08
	.byte	$00
	.byte	$32
	.byte	$40
	.byte	$00
	.byte	$00
	.byte	$33
	.byte	$40
	.byte	$08
	.byte	$08
	.byte	$42
	.byte	$40
	.byte	$00
	.byte	$08
	.byte	$43
	.byte	$40
	.byte	$F8
	.byte	$08
	.byte	$46
	.byte	$40
	.byte	$04
	.byte	$FB
	.byte	$0B
	.byte	$42
	.byte	$80
_animate_playerrun2right_data:
	.byte	$08
	.byte	$F8
	.byte	$00
	.byte	$40
	.byte	$00
	.byte	$F8
	.byte	$01
	.byte	$40
	.byte	$08
	.byte	$00
	.byte	$30
	.byte	$40
	.byte	$00
	.byte	$00
	.byte	$31
	.byte	$40
	.byte	$08
	.byte	$08
	.byte	$40
	.byte	$40
	.byte	$00
	.byte	$08
	.byte	$41
	.byte	$40
	.byte	$04
	.byte	$F9
	.byte	$0B
	.byte	$42
	.byte	$80
_animate_playerrun3right_data:
	.byte	$08
	.byte	$F8
	.byte	$1A
	.byte	$40
	.byte	$00
	.byte	$F8
	.byte	$1B
	.byte	$40
	.byte	$08
	.byte	$00
	.byte	$34
	.byte	$40
	.byte	$00
	.byte	$00
	.byte	$35
	.byte	$40
	.byte	$08
	.byte	$08
	.byte	$44
	.byte	$40
	.byte	$00
	.byte	$08
	.byte	$45
	.byte	$40
	.byte	$F8
	.byte	$07
	.byte	$46
	.byte	$40
	.byte	$04
	.byte	$FB
	.byte	$0B
	.byte	$42
	.byte	$80
_animate_playerrunshoot1left_data:
	.byte	$00
	.byte	$F8
	.byte	$1A
	.byte	$00
	.byte	$08
	.byte	$F8
	.byte	$1B
	.byte	$00
	.byte	$00
	.byte	$00
	.byte	$19
	.byte	$00
	.byte	$08
	.byte	$00
	.byte	$33
	.byte	$00
	.byte	$00
	.byte	$08
	.byte	$42
	.byte	$00
	.byte	$08
	.byte	$08
	.byte	$43
	.byte	$00
	.byte	$10
	.byte	$08
	.byte	$46
	.byte	$00
	.byte	$04
	.byte	$FB
	.byte	$0B
	.byte	$02
	.byte	$F8
	.byte	$00
	.byte	$18
	.byte	$00
	.byte	$80
_animate_playerrunshoot2left_data:
	.byte	$00
	.byte	$F8
	.byte	$00
	.byte	$00
	.byte	$08
	.byte	$F8
	.byte	$01
	.byte	$00
	.byte	$00
	.byte	$00
	.byte	$09
	.byte	$00
	.byte	$08
	.byte	$00
	.byte	$31
	.byte	$00
	.byte	$00
	.byte	$08
	.byte	$40
	.byte	$00
	.byte	$08
	.byte	$08
	.byte	$41
	.byte	$00
	.byte	$04
	.byte	$F9
	.byte	$0B
	.byte	$02
	.byte	$F8
	.byte	$00
	.byte	$08
	.byte	$00
	.byte	$80
_animate_playerrunshoot3left_data:
	.byte	$00
	.byte	$F8
	.byte	$1A
	.byte	$00
	.byte	$08
	.byte	$F8
	.byte	$1B
	.byte	$00
	.byte	$00
	.byte	$00
	.byte	$19
	.byte	$00
	.byte	$08
	.byte	$00
	.byte	$35
	.byte	$00
	.byte	$00
	.byte	$08
	.byte	$44
	.byte	$00
	.byte	$08
	.byte	$08
	.byte	$45
	.byte	$00
	.byte	$10
	.byte	$07
	.byte	$46
	.byte	$00
	.byte	$04
	.byte	$FB
	.byte	$0B
	.byte	$02
	.byte	$F8
	.byte	$00
	.byte	$18
	.byte	$00
	.byte	$80
_animate_playerrunshoot1right_data:
	.byte	$08
	.byte	$F8
	.byte	$1A
	.byte	$40
	.byte	$00
	.byte	$F8
	.byte	$1B
	.byte	$40
	.byte	$08
	.byte	$00
	.byte	$19
	.byte	$40
	.byte	$00
	.byte	$00
	.byte	$33
	.byte	$40
	.byte	$08
	.byte	$08
	.byte	$42
	.byte	$40
	.byte	$00
	.byte	$08
	.byte	$43
	.byte	$40
	.byte	$F8
	.byte	$08
	.byte	$46
	.byte	$40
	.byte	$04
	.byte	$FB
	.byte	$0B
	.byte	$42
	.byte	$10
	.byte	$00
	.byte	$18
	.byte	$40
	.byte	$80
_animate_playerrunshoot2right_data:
	.byte	$08
	.byte	$F8
	.byte	$00
	.byte	$40
	.byte	$00
	.byte	$F8
	.byte	$01
	.byte	$40
	.byte	$08
	.byte	$00
	.byte	$09
	.byte	$40
	.byte	$00
	.byte	$00
	.byte	$31
	.byte	$40
	.byte	$08
	.byte	$08
	.byte	$40
	.byte	$40
	.byte	$00
	.byte	$08
	.byte	$41
	.byte	$40
	.byte	$04
	.byte	$F9
	.byte	$0B
	.byte	$42
	.byte	$10
	.byte	$00
	.byte	$08
	.byte	$40
	.byte	$80
_animate_playerrunshoot3right_data:
	.byte	$08
	.byte	$F8
	.byte	$1A
	.byte	$40
	.byte	$00
	.byte	$F8
	.byte	$1B
	.byte	$40
	.byte	$08
	.byte	$00
	.byte	$19
	.byte	$40
	.byte	$00
	.byte	$00
	.byte	$35
	.byte	$40
	.byte	$08
	.byte	$08
	.byte	$44
	.byte	$40
	.byte	$00
	.byte	$08
	.byte	$45
	.byte	$40
	.byte	$F8
	.byte	$07
	.byte	$46
	.byte	$40
	.byte	$04
	.byte	$FB
	.byte	$0B
	.byte	$42
	.byte	$10
	.byte	$00
	.byte	$18
	.byte	$40
	.byte	$80
_animate_playerjumpleft_data:
	.byte	$00
	.byte	$F8
	.byte	$27
	.byte	$00
	.byte	$08
	.byte	$F8
	.byte	$28
	.byte	$00
	.byte	$00
	.byte	$00
	.byte	$37
	.byte	$00
	.byte	$08
	.byte	$00
	.byte	$38
	.byte	$00
	.byte	$00
	.byte	$08
	.byte	$47
	.byte	$00
	.byte	$08
	.byte	$08
	.byte	$48
	.byte	$00
	.byte	$08
	.byte	$10
	.byte	$58
	.byte	$00
	.byte	$04
	.byte	$F9
	.byte	$0B
	.byte	$02
	.byte	$80
_animate_playerjumpleftshoot_data:
	.byte	$00
	.byte	$F8
	.byte	$00
	.byte	$00
	.byte	$08
	.byte	$F8
	.byte	$28
	.byte	$00
	.byte	$00
	.byte	$00
	.byte	$09
	.byte	$00
	.byte	$08
	.byte	$00
	.byte	$38
	.byte	$00
	.byte	$00
	.byte	$08
	.byte	$47
	.byte	$00
	.byte	$08
	.byte	$08
	.byte	$48
	.byte	$00
	.byte	$08
	.byte	$10
	.byte	$58
	.byte	$00
	.byte	$04
	.byte	$F9
	.byte	$0B
	.byte	$02
	.byte	$F8
	.byte	$00
	.byte	$08
	.byte	$00
	.byte	$80
_animate_playerjumpright_data:
	.byte	$08
	.byte	$F8
	.byte	$27
	.byte	$40
	.byte	$00
	.byte	$F8
	.byte	$28
	.byte	$40
	.byte	$08
	.byte	$00
	.byte	$37
	.byte	$40
	.byte	$00
	.byte	$00
	.byte	$38
	.byte	$40
	.byte	$08
	.byte	$08
	.byte	$47
	.byte	$40
	.byte	$00
	.byte	$08
	.byte	$48
	.byte	$40
	.byte	$00
	.byte	$10
	.byte	$58
	.byte	$40
	.byte	$04
	.byte	$F9
	.byte	$0B
	.byte	$42
	.byte	$80
_animate_playerjumprightshoot_data:
	.byte	$08
	.byte	$F8
	.byte	$00
	.byte	$40
	.byte	$00
	.byte	$F8
	.byte	$28
	.byte	$40
	.byte	$08
	.byte	$00
	.byte	$09
	.byte	$40
	.byte	$00
	.byte	$00
	.byte	$38
	.byte	$40
	.byte	$08
	.byte	$08
	.byte	$47
	.byte	$40
	.byte	$00
	.byte	$08
	.byte	$48
	.byte	$40
	.byte	$00
	.byte	$10
	.byte	$58
	.byte	$40
	.byte	$04
	.byte	$F9
	.byte	$0B
	.byte	$42
	.byte	$10
	.byte	$00
	.byte	$08
	.byte	$40
	.byte	$80
_animate_hootyowl1left_data:
	.byte	$00
	.byte	$00
	.byte	$E7
	.byte	$02
	.byte	$00
	.byte	$08
	.byte	$F7
	.byte	$02
	.byte	$08
	.byte	$00
	.byte	$E8
	.byte	$02
	.byte	$10
	.byte	$00
	.byte	$E9
	.byte	$02
	.byte	$08
	.byte	$08
	.byte	$F8
	.byte	$02
	.byte	$10
	.byte	$08
	.byte	$F9
	.byte	$02
	.byte	$80
_animate_hootyowl2left_data:
	.byte	$00
	.byte	$00
	.byte	$C7
	.byte	$02
	.byte	$00
	.byte	$08
	.byte	$F7
	.byte	$02
	.byte	$08
	.byte	$00
	.byte	$E8
	.byte	$02
	.byte	$10
	.byte	$00
	.byte	$C9
	.byte	$02
	.byte	$08
	.byte	$08
	.byte	$F8
	.byte	$02
	.byte	$10
	.byte	$08
	.byte	$F9
	.byte	$02
	.byte	$80
_animate_hootyowl3left_data:
	.byte	$00
	.byte	$00
	.byte	$A7
	.byte	$02
	.byte	$00
	.byte	$08
	.byte	$B7
	.byte	$02
	.byte	$08
	.byte	$00
	.byte	$E8
	.byte	$02
	.byte	$10
	.byte	$00
	.byte	$A9
	.byte	$02
	.byte	$08
	.byte	$08
	.byte	$F8
	.byte	$02
	.byte	$10
	.byte	$08
	.byte	$B9
	.byte	$02
	.byte	$80
_animate_hootyowl4left_data:
	.byte	$00
	.byte	$00
	.byte	$87
	.byte	$02
	.byte	$08
	.byte	$00
	.byte	$88
	.byte	$02
	.byte	$10
	.byte	$00
	.byte	$89
	.byte	$02
	.byte	$08
	.byte	$08
	.byte	$98
	.byte	$02
	.byte	$00
	.byte	$08
	.byte	$97
	.byte	$02
	.byte	$10
	.byte	$08
	.byte	$99
	.byte	$02
	.byte	$80
_animate_hootyowl5left_data:
	.byte	$00
	.byte	$08
	.byte	$87
	.byte	$82
	.byte	$08
	.byte	$08
	.byte	$88
	.byte	$82
	.byte	$10
	.byte	$08
	.byte	$89
	.byte	$82
	.byte	$08
	.byte	$00
	.byte	$98
	.byte	$82
	.byte	$00
	.byte	$00
	.byte	$97
	.byte	$82
	.byte	$10
	.byte	$00
	.byte	$99
	.byte	$82
	.byte	$80
_animate_hootyowl1right_data:
	.byte	$10
	.byte	$00
	.byte	$E7
	.byte	$42
	.byte	$10
	.byte	$08
	.byte	$F7
	.byte	$42
	.byte	$08
	.byte	$00
	.byte	$E8
	.byte	$42
	.byte	$00
	.byte	$00
	.byte	$E9
	.byte	$42
	.byte	$08
	.byte	$08
	.byte	$F8
	.byte	$42
	.byte	$00
	.byte	$08
	.byte	$F9
	.byte	$42
	.byte	$80
_animate_hootyowl2right_data:
	.byte	$10
	.byte	$00
	.byte	$C7
	.byte	$42
	.byte	$10
	.byte	$08
	.byte	$F7
	.byte	$42
	.byte	$08
	.byte	$00
	.byte	$E8
	.byte	$42
	.byte	$00
	.byte	$00
	.byte	$C9
	.byte	$42
	.byte	$08
	.byte	$08
	.byte	$F8
	.byte	$42
	.byte	$00
	.byte	$08
	.byte	$F9
	.byte	$42
	.byte	$80
_animate_hootyowl3right_data:
	.byte	$10
	.byte	$00
	.byte	$A7
	.byte	$42
	.byte	$10
	.byte	$08
	.byte	$B7
	.byte	$42
	.byte	$08
	.byte	$00
	.byte	$E8
	.byte	$42
	.byte	$00
	.byte	$00
	.byte	$A9
	.byte	$42
	.byte	$08
	.byte	$08
	.byte	$F8
	.byte	$42
	.byte	$00
	.byte	$08
	.byte	$B9
	.byte	$42
	.byte	$80
_animate_hootyowl4right_data:
	.byte	$10
	.byte	$00
	.byte	$87
	.byte	$42
	.byte	$08
	.byte	$00
	.byte	$88
	.byte	$42
	.byte	$00
	.byte	$00
	.byte	$89
	.byte	$42
	.byte	$08
	.byte	$08
	.byte	$98
	.byte	$42
	.byte	$10
	.byte	$08
	.byte	$97
	.byte	$42
	.byte	$00
	.byte	$08
	.byte	$99
	.byte	$42
	.byte	$80
_animate_hootyowl5right_data:
	.byte	$10
	.byte	$08
	.byte	$87
	.byte	$C2
	.byte	$08
	.byte	$08
	.byte	$88
	.byte	$C2
	.byte	$00
	.byte	$08
	.byte	$89
	.byte	$C2
	.byte	$08
	.byte	$00
	.byte	$98
	.byte	$C2
	.byte	$10
	.byte	$00
	.byte	$97
	.byte	$C2
	.byte	$00
	.byte	$00
	.byte	$99
	.byte	$C2
	.byte	$80
_animate_snail1left_data:
	.byte	$00
	.byte	$00
	.byte	$ED
	.byte	$03
	.byte	$00
	.byte	$08
	.byte	$FD
	.byte	$03
	.byte	$08
	.byte	$00
	.byte	$EE
	.byte	$03
	.byte	$08
	.byte	$08
	.byte	$FE
	.byte	$03
	.byte	$10
	.byte	$00
	.byte	$EF
	.byte	$03
	.byte	$10
	.byte	$08
	.byte	$FF
	.byte	$03
	.byte	$80
_animate_snail2left_data:
	.byte	$00
	.byte	$00
	.byte	$CD
	.byte	$03
	.byte	$00
	.byte	$08
	.byte	$DD
	.byte	$03
	.byte	$08
	.byte	$00
	.byte	$EE
	.byte	$03
	.byte	$08
	.byte	$08
	.byte	$FE
	.byte	$03
	.byte	$10
	.byte	$00
	.byte	$EF
	.byte	$03
	.byte	$10
	.byte	$08
	.byte	$DF
	.byte	$03
	.byte	$80
_animate_snail3left_data:
	.byte	$00
	.byte	$00
	.byte	$AD
	.byte	$03
	.byte	$00
	.byte	$08
	.byte	$BD
	.byte	$03
	.byte	$08
	.byte	$00
	.byte	$EE
	.byte	$03
	.byte	$08
	.byte	$08
	.byte	$FE
	.byte	$03
	.byte	$10
	.byte	$00
	.byte	$EF
	.byte	$03
	.byte	$10
	.byte	$08
	.byte	$BF
	.byte	$03
	.byte	$80
_animate_snail1right_data:
	.byte	$10
	.byte	$00
	.byte	$ED
	.byte	$43
	.byte	$10
	.byte	$08
	.byte	$FD
	.byte	$43
	.byte	$08
	.byte	$00
	.byte	$EE
	.byte	$43
	.byte	$08
	.byte	$08
	.byte	$FE
	.byte	$43
	.byte	$00
	.byte	$00
	.byte	$EF
	.byte	$43
	.byte	$00
	.byte	$08
	.byte	$FF
	.byte	$43
	.byte	$80
_animate_snail2right_data:
	.byte	$10
	.byte	$00
	.byte	$CD
	.byte	$43
	.byte	$10
	.byte	$08
	.byte	$DD
	.byte	$43
	.byte	$08
	.byte	$00
	.byte	$EE
	.byte	$43
	.byte	$08
	.byte	$08
	.byte	$FE
	.byte	$43
	.byte	$00
	.byte	$00
	.byte	$EF
	.byte	$43
	.byte	$00
	.byte	$08
	.byte	$DF
	.byte	$43
	.byte	$80
_animate_snail3right_data:
	.byte	$10
	.byte	$00
	.byte	$AD
	.byte	$43
	.byte	$10
	.byte	$08
	.byte	$BD
	.byte	$43
	.byte	$08
	.byte	$00
	.byte	$EE
	.byte	$43
	.byte	$08
	.byte	$08
	.byte	$FE
	.byte	$43
	.byte	$00
	.byte	$00
	.byte	$EF
	.byte	$43
	.byte	$00
	.byte	$08
	.byte	$BF
	.byte	$43
	.byte	$80
_animate_bearstandleft_data:
	.byte	$00
	.byte	$F0
	.byte	$B4
	.byte	$01
	.byte	$08
	.byte	$F0
	.byte	$B5
	.byte	$01
	.byte	$00
	.byte	$F8
	.byte	$C4
	.byte	$01
	.byte	$08
	.byte	$F8
	.byte	$C5
	.byte	$01
	.byte	$00
	.byte	$00
	.byte	$D4
	.byte	$01
	.byte	$08
	.byte	$00
	.byte	$D5
	.byte	$01
	.byte	$00
	.byte	$08
	.byte	$E4
	.byte	$01
	.byte	$08
	.byte	$08
	.byte	$E5
	.byte	$01
	.byte	$03
	.byte	$F2
	.byte	$0B
	.byte	$02
	.byte	$80
_animate_bearstandright_data:
	.byte	$08
	.byte	$F0
	.byte	$B4
	.byte	$41
	.byte	$00
	.byte	$F0
	.byte	$B5
	.byte	$41
	.byte	$08
	.byte	$F8
	.byte	$C4
	.byte	$41
	.byte	$00
	.byte	$F8
	.byte	$C5
	.byte	$41
	.byte	$08
	.byte	$00
	.byte	$D4
	.byte	$41
	.byte	$00
	.byte	$00
	.byte	$D5
	.byte	$41
	.byte	$08
	.byte	$08
	.byte	$E4
	.byte	$41
	.byte	$00
	.byte	$08
	.byte	$E5
	.byte	$41
	.byte	$05
	.byte	$F2
	.byte	$0B
	.byte	$42
	.byte	$80
_animate_bearroarleft_data:
	.byte	$00
	.byte	$F0
	.byte	$94
	.byte	$01
	.byte	$08
	.byte	$F0
	.byte	$B5
	.byte	$01
	.byte	$00
	.byte	$F8
	.byte	$A4
	.byte	$01
	.byte	$08
	.byte	$F8
	.byte	$C5
	.byte	$01
	.byte	$00
	.byte	$00
	.byte	$D4
	.byte	$01
	.byte	$08
	.byte	$00
	.byte	$D5
	.byte	$01
	.byte	$00
	.byte	$08
	.byte	$E4
	.byte	$01
	.byte	$08
	.byte	$08
	.byte	$E5
	.byte	$01
	.byte	$03
	.byte	$F2
	.byte	$0B
	.byte	$02
	.byte	$F8
	.byte	$F4
	.byte	$C3
	.byte	$01
	.byte	$80
_animate_bearroarright_data:
	.byte	$08
	.byte	$F0
	.byte	$94
	.byte	$41
	.byte	$00
	.byte	$F0
	.byte	$B5
	.byte	$41
	.byte	$08
	.byte	$F8
	.byte	$A4
	.byte	$41
	.byte	$00
	.byte	$F8
	.byte	$C5
	.byte	$41
	.byte	$08
	.byte	$00
	.byte	$D4
	.byte	$41
	.byte	$00
	.byte	$00
	.byte	$D5
	.byte	$41
	.byte	$08
	.byte	$08
	.byte	$E4
	.byte	$41
	.byte	$00
	.byte	$08
	.byte	$E5
	.byte	$41
	.byte	$05
	.byte	$F2
	.byte	$0B
	.byte	$42
	.byte	$10
	.byte	$F4
	.byte	$C3
	.byte	$41
	.byte	$80
_animate_beararms_data:
	.byte	$00
	.byte	$F0
	.byte	$A0
	.byte	$01
	.byte	$08
	.byte	$F0
	.byte	$A1
	.byte	$01
	.byte	$00
	.byte	$F8
	.byte	$B0
	.byte	$01
	.byte	$08
	.byte	$F8
	.byte	$B1
	.byte	$01
	.byte	$00
	.byte	$00
	.byte	$C0
	.byte	$01
	.byte	$08
	.byte	$00
	.byte	$C1
	.byte	$01
	.byte	$00
	.byte	$08
	.byte	$E4
	.byte	$01
	.byte	$08
	.byte	$08
	.byte	$E5
	.byte	$01
	.byte	$03
	.byte	$F2
	.byte	$0B
	.byte	$02
	.byte	$10
	.byte	$F8
	.byte	$B2
	.byte	$01
	.byte	$10
	.byte	$F0
	.byte	$A2
	.byte	$01
	.byte	$80
_animate_beararmsright_data:
	.byte	$08
	.byte	$F0
	.byte	$A0
	.byte	$41
	.byte	$00
	.byte	$F0
	.byte	$A1
	.byte	$41
	.byte	$08
	.byte	$F8
	.byte	$B0
	.byte	$41
	.byte	$00
	.byte	$F8
	.byte	$B1
	.byte	$41
	.byte	$08
	.byte	$00
	.byte	$C0
	.byte	$41
	.byte	$00
	.byte	$00
	.byte	$C1
	.byte	$41
	.byte	$08
	.byte	$08
	.byte	$E4
	.byte	$41
	.byte	$00
	.byte	$08
	.byte	$E5
	.byte	$41
	.byte	$05
	.byte	$F2
	.byte	$0B
	.byte	$42
	.byte	$F8
	.byte	$F8
	.byte	$B2
	.byte	$41
	.byte	$F8
	.byte	$F0
	.byte	$A2
	.byte	$41
	.byte	$80
_animate_bearwalk1eft_data:
	.byte	$00
	.byte	$F0
	.byte	$D0
	.byte	$01
	.byte	$08
	.byte	$F0
	.byte	$D1
	.byte	$01
	.byte	$00
	.byte	$F8
	.byte	$E0
	.byte	$01
	.byte	$08
	.byte	$F8
	.byte	$E1
	.byte	$01
	.byte	$00
	.byte	$00
	.byte	$F0
	.byte	$01
	.byte	$08
	.byte	$00
	.byte	$F1
	.byte	$01
	.byte	$08
	.byte	$08
	.byte	$F3
	.byte	$01
	.byte	$00
	.byte	$08
	.byte	$F2
	.byte	$01
	.byte	$10
	.byte	$08
	.byte	$D3
	.byte	$01
	.byte	$03
	.byte	$F4
	.byte	$0B
	.byte	$02
	.byte	$80
_animate_bearwalk2left_data:
	.byte	$00
	.byte	$F0
	.byte	$B4
	.byte	$01
	.byte	$08
	.byte	$F0
	.byte	$B5
	.byte	$01
	.byte	$00
	.byte	$F8
	.byte	$C4
	.byte	$01
	.byte	$08
	.byte	$F8
	.byte	$C5
	.byte	$01
	.byte	$00
	.byte	$00
	.byte	$D2
	.byte	$01
	.byte	$08
	.byte	$00
	.byte	$D5
	.byte	$01
	.byte	$00
	.byte	$08
	.byte	$F4
	.byte	$01
	.byte	$08
	.byte	$08
	.byte	$F5
	.byte	$01
	.byte	$03
	.byte	$F2
	.byte	$0B
	.byte	$02
	.byte	$80
_animate_bearwalk3left_data:
	.byte	$00
	.byte	$F0
	.byte	$D0
	.byte	$01
	.byte	$08
	.byte	$F0
	.byte	$D1
	.byte	$01
	.byte	$00
	.byte	$F8
	.byte	$E0
	.byte	$01
	.byte	$08
	.byte	$F8
	.byte	$E1
	.byte	$01
	.byte	$00
	.byte	$00
	.byte	$E2
	.byte	$01
	.byte	$08
	.byte	$00
	.byte	$E3
	.byte	$01
	.byte	$00
	.byte	$08
	.byte	$F2
	.byte	$01
	.byte	$08
	.byte	$08
	.byte	$F3
	.byte	$01
	.byte	$03
	.byte	$F4
	.byte	$0B
	.byte	$02
	.byte	$10
	.byte	$08
	.byte	$D3
	.byte	$01
	.byte	$80
_animate_bearwalkright_data:
	.byte	$08
	.byte	$F0
	.byte	$D0
	.byte	$41
	.byte	$00
	.byte	$F0
	.byte	$D1
	.byte	$41
	.byte	$08
	.byte	$F8
	.byte	$E0
	.byte	$41
	.byte	$00
	.byte	$F8
	.byte	$E1
	.byte	$41
	.byte	$08
	.byte	$00
	.byte	$F0
	.byte	$41
	.byte	$00
	.byte	$00
	.byte	$F1
	.byte	$41
	.byte	$00
	.byte	$08
	.byte	$F3
	.byte	$41
	.byte	$08
	.byte	$08
	.byte	$F2
	.byte	$41
	.byte	$F8
	.byte	$08
	.byte	$D3
	.byte	$41
	.byte	$05
	.byte	$F4
	.byte	$0B
	.byte	$42
	.byte	$80
_animate_bearwalk2right_data:
	.byte	$08
	.byte	$F0
	.byte	$B4
	.byte	$41
	.byte	$00
	.byte	$F0
	.byte	$B5
	.byte	$41
	.byte	$08
	.byte	$F8
	.byte	$C4
	.byte	$41
	.byte	$00
	.byte	$F8
	.byte	$C5
	.byte	$41
	.byte	$08
	.byte	$00
	.byte	$D2
	.byte	$41
	.byte	$00
	.byte	$00
	.byte	$D5
	.byte	$41
	.byte	$08
	.byte	$08
	.byte	$F4
	.byte	$41
	.byte	$00
	.byte	$08
	.byte	$F5
	.byte	$41
	.byte	$05
	.byte	$F2
	.byte	$0B
	.byte	$42
	.byte	$80
_animate_bearwalk3right_data:
	.byte	$08
	.byte	$F0
	.byte	$D0
	.byte	$41
	.byte	$00
	.byte	$F0
	.byte	$D1
	.byte	$41
	.byte	$08
	.byte	$F8
	.byte	$E0
	.byte	$41
	.byte	$00
	.byte	$F8
	.byte	$E1
	.byte	$41
	.byte	$08
	.byte	$00
	.byte	$E2
	.byte	$41
	.byte	$00
	.byte	$00
	.byte	$E3
	.byte	$41
	.byte	$08
	.byte	$08
	.byte	$F2
	.byte	$41
	.byte	$00
	.byte	$08
	.byte	$F3
	.byte	$41
	.byte	$05
	.byte	$F4
	.byte	$0B
	.byte	$42
	.byte	$F8
	.byte	$08
	.byte	$D3
	.byte	$41
	.byte	$80
_animate_bouldersmall_data:
	.byte	$00
	.byte	$00
	.byte	$C2
	.byte	$01
	.byte	$80
_animate_starburst1_data:
	.byte	$01
	.byte	$F8
	.byte	$59
	.byte	$01
	.byte	$08
	.byte	$F8
	.byte	$59
	.byte	$41
	.byte	$08
	.byte	$FF
	.byte	$59
	.byte	$C1
	.byte	$01
	.byte	$FF
	.byte	$59
	.byte	$81
	.byte	$80
_animate_starburst2_data:
	.byte	$01
	.byte	$F8
	.byte	$5A
	.byte	$01
	.byte	$08
	.byte	$F8
	.byte	$5A
	.byte	$41
	.byte	$08
	.byte	$FF
	.byte	$5A
	.byte	$C1
	.byte	$01
	.byte	$FF
	.byte	$5A
	.byte	$81
	.byte	$80
_animate_starburst3_data:
	.byte	$08
	.byte	$F8
	.byte	$5B
	.byte	$41
	.byte	$08
	.byte	$FF
	.byte	$5B
	.byte	$C1
	.byte	$01
	.byte	$FF
	.byte	$5B
	.byte	$81
	.byte	$01
	.byte	$F8
	.byte	$5B
	.byte	$01
	.byte	$80
_animate_slideleft_data:
	.byte	$F8
	.byte	$05
	.byte	$A6
	.byte	$00
	.byte	$00
	.byte	$05
	.byte	$B6
	.byte	$00
	.byte	$08
	.byte	$04
	.byte	$C6
	.byte	$00
	.byte	$10
	.byte	$05
	.byte	$D6
	.byte	$00
	.byte	$F0
	.byte	$0D
	.byte	$E6
	.byte	$00
	.byte	$F8
	.byte	$0D
	.byte	$F6
	.byte	$00
	.byte	$00
	.byte	$0D
	.byte	$3E
	.byte	$00
	.byte	$08
	.byte	$0C
	.byte	$4E
	.byte	$00
	.byte	$10
	.byte	$0D
	.byte	$4F
	.byte	$00
	.byte	$F9
	.byte	$06
	.byte	$0B
	.byte	$02
	.byte	$80
_animate_slideright_data:
	.byte	$10
	.byte	$05
	.byte	$A6
	.byte	$40
	.byte	$08
	.byte	$05
	.byte	$B6
	.byte	$40
	.byte	$00
	.byte	$04
	.byte	$C6
	.byte	$40
	.byte	$F8
	.byte	$05
	.byte	$D6
	.byte	$40
	.byte	$18
	.byte	$0D
	.byte	$E6
	.byte	$40
	.byte	$10
	.byte	$0D
	.byte	$F6
	.byte	$40
	.byte	$08
	.byte	$0D
	.byte	$3E
	.byte	$40
	.byte	$00
	.byte	$0C
	.byte	$4E
	.byte	$40
	.byte	$F8
	.byte	$0D
	.byte	$4F
	.byte	$40
	.byte	$0F
	.byte	$06
	.byte	$0B
	.byte	$42
	.byte	$80
_animate_scroll_data:
	.byte	$00
	.byte	$F8
	.byte	$5C
	.byte	$01
	.byte	$08
	.byte	$F8
	.byte	$5D
	.byte	$01
	.byte	$00
	.byte	$00
	.byte	$5C
	.byte	$81
	.byte	$08
	.byte	$00
	.byte	$5D
	.byte	$81
	.byte	$80
_shuffle_array:
	.byte	$00
	.byte	$01
	.byte	$02
	.byte	$03
	.byte	$04
	.byte	$05
	.byte	$06
	.byte	$07
	.byte	$08
	.byte	$09
	.byte	$0A
	.byte	$0B
	.byte	$0C
	.byte	$0D
	.byte	$0E
	.byte	$0F
	.byte	$0F
	.byte	$0E
	.byte	$0D
	.byte	$0C
	.byte	$0B
	.byte	$0A
	.byte	$09
	.byte	$08
	.byte	$07
	.byte	$06
	.byte	$05
	.byte	$04
	.byte	$03
	.byte	$02
	.byte	$01
	.byte	$00
	.byte	$00
	.byte	$02
	.byte	$04
	.byte	$06
	.byte	$08
	.byte	$0A
	.byte	$0C
	.byte	$0E
	.byte	$01
	.byte	$03
	.byte	$05
	.byte	$07
	.byte	$09
	.byte	$0B
	.byte	$0D
	.byte	$0F
	.byte	$0F
	.byte	$0D
	.byte	$0B
	.byte	$09
	.byte	$07
	.byte	$05
	.byte	$03
	.byte	$01
	.byte	$0E
	.byte	$0C
	.byte	$0A
	.byte	$08
	.byte	$06
	.byte	$04
	.byte	$02
	.byte	$00
_palette_bg:
	.byte	$21
	.byte	$0F
	.byte	$00
	.byte	$10
	.byte	$21
	.byte	$0F
	.byte	$30
	.byte	$08
	.byte	$21
	.byte	$0F
	.byte	$17
	.byte	$06
	.byte	$21
	.byte	$0F
	.byte	$19
	.byte	$29
_palette_sp:
	.byte	$21
	.byte	$17
	.byte	$24
	.byte	$36
	.byte	$21
	.byte	$05
	.byte	$16
	.byte	$37
	.byte	$21
	.byte	$0F
	.byte	$11
	.byte	$30
	.byte	$21
	.byte	$17
	.byte	$3D
	.byte	$37
_metatile:
	.byte	$7B
	.byte	$7C
	.byte	$8B
	.byte	$8C
	.byte	$00
	.byte	$7D
	.byte	$7E
	.byte	$8D
	.byte	$8E
	.byte	$00
	.byte	$9B
	.byte	$9C
	.byte	$AB
	.byte	$AC
	.byte	$00
	.byte	$9D
	.byte	$9E
	.byte	$AD
	.byte	$AE
	.byte	$00
	.byte	$BE
	.byte	$AF
	.byte	$7B
	.byte	$7C
	.byte	$00
	.byte	$BE
	.byte	$BE
	.byte	$8B
	.byte	$8C
	.byte	$00
	.byte	$BE
	.byte	$BF
	.byte	$8D
	.byte	$8E
	.byte	$00
	.byte	$BE
	.byte	$BE
	.byte	$AD
	.byte	$AE
	.byte	$00
	.byte	$BE
	.byte	$B9
	.byte	$9B
	.byte	$9C
	.byte	$00
	.byte	$BE
	.byte	$BE
	.byte	$9D
	.byte	$9E
	.byte	$00
	.byte	$BE
	.byte	$BB
	.byte	$AB
	.byte	$AC
	.byte	$00
	.byte	$BE
	.byte	$AF
	.byte	$AD
	.byte	$AE
	.byte	$00
	.byte	$BE
	.byte	$BD
	.byte	$7B
	.byte	$7C
	.byte	$00
	.byte	$BE
	.byte	$BD
	.byte	$7D
	.byte	$7E
	.byte	$00
	.byte	$BA
	.byte	$BF
	.byte	$9B
	.byte	$9C
	.byte	$00
	.byte	$BA
	.byte	$B8
	.byte	$9D
	.byte	$9E
	.byte	$00
	.byte	$7B
	.byte	$AE
	.byte	$7C
	.byte	$7B
	.byte	$00
	.byte	$8B
	.byte	$8C
	.byte	$9B
	.byte	$9C
	.byte	$00
	.byte	$8D
	.byte	$8E
	.byte	$9D
	.byte	$9E
	.byte	$00
	.byte	$7B
	.byte	$7C
	.byte	$8B
	.byte	$01
	.byte	$00
	.byte	$AD
	.byte	$8E
	.byte	$AE
	.byte	$01
	.byte	$00
	.byte	$AD
	.byte	$01
	.byte	$01
	.byte	$01
	.byte	$00
	.byte	$7D
	.byte	$7E
	.byte	$01
	.byte	$01
	.byte	$00
	.byte	$9D
	.byte	$9E
	.byte	$01
	.byte	$01
	.byte	$00
	.byte	$AB
	.byte	$AC
	.byte	$01
	.byte	$01
	.byte	$00
	.byte	$01
	.byte	$7B
	.byte	$01
	.byte	$01
	.byte	$00
	.byte	$7B
	.byte	$AD
	.byte	$01
	.byte	$AE
	.byte	$00
	.byte	$7B
	.byte	$7C
	.byte	$01
	.byte	$7B
	.byte	$00
	.byte	$7A
	.byte	$7C
	.byte	$8B
	.byte	$8C
	.byte	$00
	.byte	$00
	.byte	$00
	.byte	$00
	.byte	$7A
	.byte	$00
	.byte	$7B
	.byte	$6A
	.byte	$7C
	.byte	$7B
	.byte	$00
	.byte	$00
	.byte	$00
	.byte	$6A
	.byte	$00
	.byte	$00
	.byte	$75
	.byte	$76
	.byte	$85
	.byte	$86
	.byte	$02
	.byte	$65
	.byte	$66
	.byte	$85
	.byte	$86
	.byte	$02
	.byte	$75
	.byte	$76
	.byte	$95
	.byte	$96
	.byte	$02
	.byte	$74
	.byte	$76
	.byte	$84
	.byte	$86
	.byte	$02
	.byte	$75
	.byte	$77
	.byte	$85
	.byte	$87
	.byte	$02
	.byte	$64
	.byte	$66
	.byte	$84
	.byte	$86
	.byte	$02
	.byte	$65
	.byte	$67
	.byte	$85
	.byte	$87
	.byte	$02
	.byte	$74
	.byte	$76
	.byte	$94
	.byte	$96
	.byte	$02
	.byte	$75
	.byte	$77
	.byte	$95
	.byte	$97
	.byte	$02
	.byte	$DF
	.byte	$DF
	.byte	$DC
	.byte	$CD
	.byte	$03
	.byte	$DF
	.byte	$CE
	.byte	$CE
	.byte	$DB
	.byte	$03
	.byte	$CD
	.byte	$CE
	.byte	$EE
	.byte	$EE
	.byte	$03
	.byte	$DF
	.byte	$CF
	.byte	$DC
	.byte	$CC
	.byte	$03
	.byte	$34
	.byte	$CF
	.byte	$DF
	.byte	$33
	.byte	$03
	.byte	$DF
	.byte	$CF
	.byte	$33
	.byte	$CF
	.byte	$03
	.byte	$CB
	.byte	$CE
	.byte	$EF
	.byte	$EE
	.byte	$03
	.byte	$65
	.byte	$66
	.byte	$95
	.byte	$96
	.byte	$02
	.byte	$64
	.byte	$66
	.byte	$94
	.byte	$96
	.byte	$02
	.byte	$65
	.byte	$67
	.byte	$95
	.byte	$97
	.byte	$02
	.byte	$EB
	.byte	$EB
	.byte	$FB
	.byte	$FC
	.byte	$03
	.byte	$EB
	.byte	$EA
	.byte	$FC
	.byte	$FB
	.byte	$03
	.byte	$FA
	.byte	$EB
	.byte	$FC
	.byte	$FC
	.byte	$03
	.byte	$EB
	.byte	$EC
	.byte	$FB
	.byte	$FC
	.byte	$03
	.byte	$98
	.byte	$99
	.byte	$A8
	.byte	$A9
	.byte	$03
	.byte	$9A
	.byte	$98
	.byte	$AA
	.byte	$A8
	.byte	$03
	.byte	$01
	.byte	$01
	.byte	$9A
	.byte	$98
	.byte	$03
	.byte	$7B
	.byte	$8B
	.byte	$AD
	.byte	$9B
	.byte	$00
	.byte	$8E
	.byte	$7B
	.byte	$9C
	.byte	$AE
	.byte	$00
	.byte	$8B
	.byte	$7C
	.byte	$9B
	.byte	$AD
	.byte	$00
	.byte	$0A
	.byte	$0B
	.byte	$0A
	.byte	$0B
	.byte	$02
	.byte	$0A
	.byte	$0B
	.byte	$0A
	.byte	$0B
	.byte	$02
	.byte	$CA
	.byte	$CA
	.byte	$DA
	.byte	$DA
	.byte	$00
	.byte	$01
	.byte	$01
	.byte	$63
	.byte	$73
	.byte	$03
	.byte	$01
	.byte	$01
	.byte	$01
	.byte	$63
	.byte	$03
	.byte	$01
	.byte	$01
	.byte	$73
	.byte	$01
	.byte	$03
	.byte	$12
	.byte	$13
	.byte	$00
	.byte	$00
	.byte	$00
	.byte	$01
	.byte	$01
	.byte	$12
	.byte	$13
	.byte	$00
	.byte	$EF
	.byte	$9F
	.byte	$01
	.byte	$01
	.byte	$03
	.byte	$EF
	.byte	$EF
	.byte	$EE
	.byte	$EF
	.byte	$03
	.byte	$ED
	.byte	$ED
	.byte	$36
	.byte	$37
	.byte	$03
	.byte	$ED
	.byte	$38
	.byte	$37
	.byte	$00
	.byte	$03
	.byte	$39
	.byte	$ED
	.byte	$00
	.byte	$39
	.byte	$03
	.byte	$02
	.byte	$0D
	.byte	$0E
	.byte	$02
	.byte	$03
	.byte	$01
	.byte	$01
	.byte	$02
	.byte	$02
	.byte	$03
	.byte	$1F
	.byte	$02
	.byte	$02
	.byte	$2F
	.byte	$03
	.byte	$1B
	.byte	$0C
	.byte	$02
	.byte	$01
	.byte	$03
	.byte	$00
	.byte	$00
	.byte	$00
	.byte	$00
	.byte	$00
	.byte	$0F
	.byte	$3F
	.byte	$01
	.byte	$02
	.byte	$03
	.byte	$00
	.byte	$00
	.byte	$00
	.byte	$00
	.byte	$00
	.byte	$01
	.byte	$01
	.byte	$01
	.byte	$01
	.byte	$00
	.byte	$01
	.byte	$01
	.byte	$2A
	.byte	$01
	.byte	$03
	.byte	$1A
	.byte	$01
	.byte	$01
	.byte	$2A
	.byte	$03
	.byte	$1A
	.byte	$01
	.byte	$01
	.byte	$01
	.byte	$03
	.byte	$F2
	.byte	$F2
	.byte	$01
	.byte	$01
	.byte	$02
	.byte	$01
	.byte	$F3
	.byte	$01
	.byte	$01
	.byte	$02
	.byte	$D4
	.byte	$01
	.byte	$01
	.byte	$01
	.byte	$02
	.byte	$00
	.byte	$00
	.byte	$80
	.byte	$81
	.byte	$03
	.byte	$00
	.byte	$00
	.byte	$82
	.byte	$82
	.byte	$03
	.byte	$01
	.byte	$2A
	.byte	$02
	.byte	$02
	.byte	$03
	.byte	$1A
	.byte	$01
	.byte	$02
	.byte	$02
	.byte	$03
	.byte	$03
	.byte	$AA
	.byte	$03
	.byte	$E8
	.byte	$03
	.byte	$A8
	.byte	$A9
	.byte	$68
	.byte	$FC
	.byte	$03
	.byte	$8A
	.byte	$03
	.byte	$F8
	.byte	$03
	.byte	$03
	.byte	$03
	.byte	$03
	.byte	$E9
	.byte	$03
	.byte	$03
	.byte	$08
	.byte	$19
	.byte	$09
	.byte	$18
	.byte	$02
	.byte	$08
	.byte	$19
	.byte	$08
	.byte	$18
	.byte	$02
	.byte	$B1
	.byte	$B2
	.byte	$08
	.byte	$18
	.byte	$02
	.byte	$D4
	.byte	$B0
	.byte	$F3
	.byte	$C0
	.byte	$02
	.byte	$08
	.byte	$19
	.byte	$C1
	.byte	$C2
	.byte	$02
	.byte	$B3
	.byte	$F3
	.byte	$C3
	.byte	$D4
	.byte	$02
	.byte	$00
	.byte	$00
	.byte	$00
	.byte	$F0
	.byte	$02
	.byte	$F1
	.byte	$00
	.byte	$00
	.byte	$00
	.byte	$02
	.byte	$14
	.byte	$04
	.byte	$15
	.byte	$04
	.byte	$02
	.byte	$15
	.byte	$04
	.byte	$15
	.byte	$05
	.byte	$02
	.byte	$E5
	.byte	$E6
	.byte	$14
	.byte	$04
	.byte	$02
	.byte	$D4
	.byte	$E4
	.byte	$F3
	.byte	$F4
	.byte	$02
	.byte	$14
	.byte	$04
	.byte	$F5
	.byte	$F6
	.byte	$02
	.byte	$E7
	.byte	$F3
	.byte	$F7
	.byte	$D4
	.byte	$02
	.byte	$00
	.byte	$E2
	.byte	$00
	.byte	$00
	.byte	$02
	.byte	$E3
	.byte	$00
	.byte	$00
	.byte	$00
	.byte	$02
	.byte	$06
	.byte	$17
	.byte	$06
	.byte	$17
	.byte	$02
	.byte	$07
	.byte	$16
	.byte	$07
	.byte	$17
	.byte	$02
	.byte	$06
	.byte	$17
	.byte	$07
	.byte	$17
	.byte	$02
	.byte	$E0
	.byte	$E1
	.byte	$06
	.byte	$16
	.byte	$02
	.byte	$D4
	.byte	$D0
	.byte	$F2
	.byte	$F2
	.byte	$02
	.byte	$D1
	.byte	$F3
	.byte	$F2
	.byte	$F2
	.byte	$02
	.byte	$00
	.byte	$00
	.byte	$00
	.byte	$D2
	.byte	$02
	.byte	$00
	.byte	$00
	.byte	$D3
	.byte	$00
	.byte	$02
	.byte	$03
	.byte	$03
	.byte	$AA
	.byte	$AA
	.byte	$03
	.byte	$00
	.byte	$00
	.byte	$00
	.byte	$00
	.byte	$00
	.byte	$A9
	.byte	$A9
	.byte	$78
	.byte	$69
	.byte	$03
	.byte	$00
	.byte	$00
	.byte	$89
	.byte	$00
	.byte	$03
	.byte	$8A
	.byte	$00
	.byte	$8A
	.byte	$00
	.byte	$03
	.byte	$8A
	.byte	$00
	.byte	$79
	.byte	$00
	.byte	$03
	.byte	$03
	.byte	$03
	.byte	$03
	.byte	$F9
	.byte	$03
	.byte	$F9
	.byte	$E9
	.byte	$AA
	.byte	$AA
	.byte	$03
	.byte	$90
	.byte	$90
	.byte	$00
	.byte	$00
	.byte	$02
	.byte	$91
	.byte	$92
	.byte	$00
	.byte	$00
	.byte	$02
	.byte	$01
	.byte	$01
	.byte	$92
	.byte	$92
	.byte	$02
	.byte	$92
	.byte	$90
	.byte	$00
	.byte	$00
	.byte	$02
	.byte	$01
	.byte	$01
	.byte	$92
	.byte	$90
	.byte	$02
	.byte	$01
	.byte	$92
	.byte	$90
	.byte	$00
	.byte	$02
	.byte	$7A
	.byte	$32
	.byte	$32
	.byte	$DF
	.byte	$03
	.byte	$CF
	.byte	$89
	.byte	$DF
	.byte	$CF
	.byte	$03
	.byte	$DF
	.byte	$33
	.byte	$DE
	.byte	$DF
	.byte	$03
	.byte	$DD
	.byte	$CF
	.byte	$DF
	.byte	$34
	.byte	$03
	.byte	$00
	.byte	$00
	.byte	$00
	.byte	$00
	.byte	$00
	.byte	$00
	.byte	$00
	.byte	$00
	.byte	$7A
	.byte	$03
	.byte	$AA
	.byte	$A8
	.byte	$68
	.byte	$69
	.byte	$03
	.byte	$AA
	.byte	$A8
	.byte	$68
	.byte	$68
	.byte	$03
	.byte	$00
	.byte	$00
	.byte	$D7
	.byte	$A7
	.byte	$00
	.byte	$D7
	.byte	$A7
	.byte	$01
	.byte	$01
	.byte	$00
	.byte	$DF
	.byte	$CF
	.byte	$DC
	.byte	$DB
	.byte	$03
	.byte	$32
	.byte	$33
	.byte	$DE
	.byte	$DF
	.byte	$03
	.byte	$DF
	.byte	$35
	.byte	$CF
	.byte	$DD
	.byte	$03
	.byte	$32
	.byte	$34
	.byte	$32
	.byte	$33
	.byte	$03
	.byte	$33
	.byte	$35
	.byte	$34
	.byte	$35
	.byte	$03
	.byte	$00
	.byte	$7A
	.byte	$88
	.byte	$DF
	.byte	$03
	.byte	$00
	.byte	$88
	.byte	$88
	.byte	$CF
	.byte	$03
	.byte	$6A
	.byte	$00
	.byte	$CF
	.byte	$6A
	.byte	$03
	.byte	$89
	.byte	$00
	.byte	$A8
	.byte	$89
	.byte	$03
	.byte	$A9
	.byte	$6A
	.byte	$A9
	.byte	$AA
	.byte	$03
	.byte	$01
	.byte	$FF
	.byte	$FF
	.byte	$00
	.byte	$03
	.byte	$FF
	.byte	$01
	.byte	$00
	.byte	$FE
	.byte	$03
	.byte	$EF
	.byte	$EF
	.byte	$FE
	.byte	$FD
	.byte	$03
	.byte	$ED
	.byte	$EE
	.byte	$FE
	.byte	$FF
	.byte	$03
	.byte	$FD
	.byte	$FE
	.byte	$00
	.byte	$00
	.byte	$03
	.byte	$FF
	.byte	$FD
	.byte	$00
	.byte	$00
	.byte	$03
	.byte	$05
	.byte	$03
	.byte	$05
	.byte	$03
	.byte	$03
	.byte	$3F
	.byte	$03
	.byte	$05
	.byte	$03
	.byte	$03
	.byte	$05
	.byte	$03
	.byte	$2F
	.byte	$03
	.byte	$03
	.byte	$01
	.byte	$1F
	.byte	$1F
	.byte	$02
	.byte	$03
	.byte	$0F
	.byte	$02
	.byte	$01
	.byte	$0F
	.byte	$03
	.byte	$02
	.byte	$2F
	.byte	$11
	.byte	$11
	.byte	$03
	.byte	$03
	.byte	$03
	.byte	$11
	.byte	$11
	.byte	$03
	.byte	$03
	.byte	$61
	.byte	$60
	.byte	$03
	.byte	$03
	.byte	$03
	.byte	$62
	.byte	$03
	.byte	$03
	.byte	$03
	.byte	$03
	.byte	$03
	.byte	$61
	.byte	$03
	.byte	$03
	.byte	$60
	.byte	$03
	.byte	$03
	.byte	$03
	.byte	$03
	.byte	$03
	.byte	$03
	.byte	$72
	.byte	$03
	.byte	$03
	.byte	$00
	.byte	$00
	.byte	$00
	.byte	$71
	.byte	$03
	.byte	$00
	.byte	$00
	.byte	$00
	.byte	$70
	.byte	$03
	.byte	$C8
	.byte	$01
	.byte	$01
	.byte	$01
	.byte	$01
	.byte	$C8
	.byte	$C9
	.byte	$01
	.byte	$D9
	.byte	$01
	.byte	$03
	.byte	$03
	.byte	$03
	.byte	$03
	.byte	$03
	.byte	$00
	.byte	$00
	.byte	$00
	.byte	$00
	.byte	$00
	.byte	$00
	.byte	$00
	.byte	$00
	.byte	$00
	.byte	$00
	.byte	$3F
	.byte	$03
	.byte	$02
	.byte	$3F
	.byte	$03
	.byte	$01
	.byte	$01
	.byte	$0D
	.byte	$01
	.byte	$03
	.byte	$03
	.byte	$0E
	.byte	$03
	.byte	$03
	.byte	$03
	.byte	$A1
	.byte	$03
	.byte	$03
	.byte	$03
	.byte	$03
	.byte	$03
	.byte	$03
	.byte	$A2
	.byte	$03
	.byte	$03
	.byte	$A2
	.byte	$03
	.byte	$03
	.byte	$A1
	.byte	$03
	.byte	$A0
	.byte	$03
	.byte	$03
	.byte	$A1
	.byte	$03
	.byte	$83
	.byte	$03
	.byte	$03
	.byte	$83
	.byte	$03
	.byte	$83
	.byte	$93
	.byte	$03
	.byte	$03
	.byte	$03
	.byte	$83
	.byte	$03
	.byte	$03
	.byte	$93
	.byte	$03
	.byte	$03
	.byte	$03
	.byte	$83
	.byte	$03
	.byte	$03
	.byte	$83
	.byte	$03
	.byte	$03
	.byte	$03
	.byte	$03
	.byte	$C9
	.byte	$D9
	.byte	$D8
	.byte	$01
	.byte	$01
	.byte	$B5
	.byte	$B6
	.byte	$C5
	.byte	$C6
	.byte	$02
	.byte	$01
	.byte	$B4
	.byte	$01
	.byte	$C4
	.byte	$02
	.byte	$B7
	.byte	$01
	.byte	$C7
	.byte	$01
	.byte	$02
	.byte	$01
	.byte	$01
	.byte	$A5
	.byte	$A6
	.byte	$02
	.byte	$D5
	.byte	$D6
	.byte	$01
	.byte	$01
	.byte	$02
	.byte	$00
	.byte	$00
	.byte	$6B
	.byte	$6B
	.byte	$00
	.byte	$00
	.byte	$00
	.byte	$00
	.byte	$00
	.byte	$01
	.byte	$10
	.byte	$10
	.byte	$01
	.byte	$01
	.byte	$00
	.byte	$01
	.byte	$9F
	.byte	$01
	.byte	$01
	.byte	$00
	.byte	$C8
	.byte	$C9
	.byte	$D8
	.byte	$D9
	.byte	$01
	.byte	$01
	.byte	$01
	.byte	$D8
	.byte	$D9
	.byte	$01
	.byte	$C8
	.byte	$01
	.byte	$D8
	.byte	$D9
	.byte	$01
	.byte	$01
	.byte	$C9
	.byte	$D8
	.byte	$D9
	.byte	$01
	.byte	$01
	.byte	$01
	.byte	$D8
	.byte	$01
	.byte	$01
	.byte	$01
	.byte	$01
	.byte	$01
	.byte	$D9
	.byte	$01
	.byte	$01
	.byte	$D9
	.byte	$01
	.byte	$01
	.byte	$01
	.byte	$00
	.byte	$5E
	.byte	$6C
	.byte	$03
	.byte	$00
	.byte	$00
	.byte	$00
	.byte	$6B
	.byte	$6C
	.byte	$00
	.byte	$6B
	.byte	$5E
	.byte	$03
	.byte	$6D
	.byte	$00
	.byte	$6B
	.byte	$5E
	.byte	$6D
	.byte	$5D
	.byte	$00
	.byte	$6D
	.byte	$03
	.byte	$03
	.byte	$6D
	.byte	$00
	.byte	$6D
	.byte	$6D
	.byte	$03
	.byte	$03
	.byte	$00
	.byte	$6D
	.byte	$03
	.byte	$03
	.byte	$03
	.byte	$00
	.byte	$6D
	.byte	$40
	.byte	$6D
	.byte	$40
	.byte	$00
	.byte	$40
	.byte	$6E
	.byte	$6F
	.byte	$40
	.byte	$00
	.byte	$6D
	.byte	$14
	.byte	$03
	.byte	$6F
	.byte	$00
	.byte	$40
	.byte	$6E
	.byte	$40
	.byte	$40
	.byte	$00
	.byte	$6E
	.byte	$6E
	.byte	$40
	.byte	$6E
	.byte	$00
	.byte	$00
	.byte	$00
	.byte	$1E
	.byte	$1E
	.byte	$01
	.byte	$00
	.byte	$00
	.byte	$00
	.byte	$1C
	.byte	$01
	.byte	$00
	.byte	$00
	.byte	$1D
	.byte	$00
	.byte	$01
	.byte	$6D
	.byte	$6D
	.byte	$A3
	.byte	$A4
	.byte	$00
	.byte	$5D
	.byte	$5B
	.byte	$40
	.byte	$9F
	.byte	$00
	.byte	$5C
	.byte	$80
	.byte	$9F
	.byte	$01
	.byte	$00
	.byte	$00
	.byte	$00
	.byte	$5B
	.byte	$5C
	.byte	$00
	.byte	$5F
	.byte	$00
	.byte	$9F
	.byte	$5F
	.byte	$00
	.byte	$5B
	.byte	$5C
	.byte	$9F
	.byte	$01
	.byte	$00
	.byte	$6B
	.byte	$6C
	.byte	$01
	.byte	$A3
	.byte	$00
	.byte	$6D
	.byte	$03
	.byte	$A4
	.byte	$03
	.byte	$00
	.byte	$A3
	.byte	$A4
	.byte	$9F
	.byte	$9F
	.byte	$00
	.byte	$03
	.byte	$6D
	.byte	$A4
	.byte	$03
	.byte	$00
	.byte	$9F
	.byte	$9F
	.byte	$9F
	.byte	$9F
	.byte	$00
	.byte	$01
	.byte	$01
	.byte	$9F
	.byte	$9F
	.byte	$00
	.byte	$9F
	.byte	$01
	.byte	$9F
	.byte	$9F
	.byte	$00
	.byte	$6E
	.byte	$9F
	.byte	$6E
	.byte	$8F
	.byte	$00
	.byte	$8F
	.byte	$7F
	.byte	$6E
	.byte	$6E
	.byte	$00
	.byte	$9F
	.byte	$9F
	.byte	$8F
	.byte	$7F
	.byte	$00
	.byte	$7F
	.byte	$9F
	.byte	$6E
	.byte	$8F
	.byte	$00
_metatile_colision_map:
	.byte	$40
	.byte	$40
	.byte	$40
	.byte	$40
	.byte	$40
	.byte	$40
	.byte	$40
	.byte	$40
	.byte	$40
	.byte	$40
	.byte	$40
	.byte	$40
	.byte	$40
	.byte	$40
	.byte	$40
	.byte	$40
	.byte	$40
	.byte	$40
	.byte	$40
	.byte	$40
	.byte	$40
	.byte	$40
	.byte	$40
	.byte	$40
	.byte	$40
	.byte	$40
	.byte	$40
	.byte	$40
	.byte	$40
	.byte	$00
	.byte	$40
	.byte	$40
	.byte	$40
	.byte	$40
	.byte	$40
	.byte	$40
	.byte	$40
	.byte	$40
	.byte	$40
	.byte	$40
	.byte	$40
	.byte	$00
	.byte	$00
	.byte	$00
	.byte	$00
	.byte	$00
	.byte	$00
	.byte	$00
	.byte	$40
	.byte	$40
	.byte	$40
	.byte	$40
	.byte	$40
	.byte	$40
	.byte	$40
	.byte	$40
	.byte	$40
	.byte	$40
	.byte	$40
	.byte	$40
	.byte	$40
	.byte	$01
	.byte	$02
	.byte	$00
	.byte	$00
	.byte	$00
	.byte	$00
	.byte	$00
	.byte	$00
	.byte	$00
	.byte	$00
	.byte	$00
	.byte	$00
	.byte	$00
	.byte	$00
	.byte	$00
	.byte	$00
	.byte	$00
	.byte	$00
	.byte	$00
	.byte	$00
	.byte	$00
	.byte	$00
	.byte	$00
	.byte	$00
	.byte	$00
	.byte	$00
	.byte	$00
	.byte	$00
	.byte	$00
	.byte	$00
	.byte	$00
	.byte	$00
	.byte	$00
	.byte	$00
	.byte	$00
	.byte	$00
	.byte	$00
	.byte	$00
	.byte	$00
	.byte	$00
	.byte	$00
	.byte	$00
	.byte	$00
	.byte	$00
	.byte	$00
	.byte	$00
	.byte	$00
	.byte	$00
	.byte	$00
	.byte	$00
	.byte	$00
	.byte	$00
	.byte	$00
	.byte	$00
	.byte	$00
	.byte	$00
	.byte	$00
	.byte	$00
	.byte	$00
	.byte	$00
	.byte	$00
	.byte	$00
	.byte	$00
	.byte	$00
	.byte	$00
	.byte	$00
	.byte	$00
	.byte	$00
	.byte	$00
	.byte	$00
	.byte	$00
	.byte	$00
	.byte	$00
	.byte	$00
	.byte	$00
	.byte	$00
	.byte	$00
	.byte	$00
	.byte	$00
	.byte	$00
	.byte	$00
	.byte	$00
	.byte	$00
	.byte	$00
	.byte	$00
	.byte	$00
	.byte	$00
	.byte	$00
	.byte	$00
	.byte	$00
	.byte	$00
	.byte	$00
	.byte	$00
	.byte	$00
	.byte	$00
	.byte	$00
	.byte	$00
	.byte	$00
	.byte	$00
	.byte	$00
	.byte	$00
	.byte	$00
	.byte	$00
	.byte	$00
	.byte	$00
	.byte	$00
	.byte	$00
	.byte	$00
	.byte	$00
	.byte	$00
	.byte	$00
	.byte	$00
	.byte	$00
	.byte	$00
	.byte	$00
	.byte	$00
	.byte	$00
	.byte	$00
	.byte	$00
	.byte	$00
	.byte	$00
	.byte	$00
	.byte	$00
	.byte	$00
	.byte	$00
	.byte	$00
	.byte	$00
	.byte	$00
	.byte	$00
	.byte	$00
	.byte	$00
	.byte	$00
	.byte	$00
	.byte	$00
	.byte	$00
	.byte	$00
	.byte	$00
	.byte	$00
	.byte	$00
	.byte	$00
	.byte	$00
	.byte	$00
	.byte	$00
	.byte	$00
	.byte	$00
	.byte	$00
	.byte	$00
	.byte	$00
	.byte	$00
	.byte	$00
	.byte	$00
	.byte	$00
	.byte	$00
	.byte	$00
	.byte	$00
	.byte	$00
	.byte	$00
	.byte	$00
	.byte	$00
	.byte	$00
	.byte	$00
	.byte	$00
	.byte	$00
	.byte	$00
	.byte	$00
	.byte	$00
	.byte	$00
	.byte	$00
	.byte	$00
	.byte	$00
	.byte	$00
	.byte	$00
	.byte	$00
	.byte	$00
	.byte	$00
	.byte	$00
	.byte	$00
	.byte	$00
	.byte	$00
_level0_0:
	.byte	$3C
	.byte	$1E
	.byte	$1F
	.byte	$50
	.byte	$8B
	.byte	$86
	.byte	$2D
	.byte	$87
	.byte	$7B
	.byte	$86
	.byte	$2D
	.byte	$2D
	.byte	$92
	.byte	$94
	.byte	$89
	.byte	$94
	.byte	$00
	.byte	$01
	.byte	$1E
	.byte	$1F
	.byte	$86
	.byte	$93
	.byte	$2D
	.byte	$2D
	.byte	$87
	.byte	$93
	.byte	$2E
	.byte	$93
	.byte	$2D
	.byte	$2D
	.byte	$89
	.byte	$91
	.byte	$02
	.byte	$03
	.byte	$00
	.byte	$1E
	.byte	$93
	.byte	$92
	.byte	$2E
	.byte	$2D
	.byte	$92
	.byte	$91
	.byte	$2E
	.byte	$2E
	.byte	$93
	.byte	$2D
	.byte	$94
	.byte	$2D
	.byte	$00
	.byte	$01
	.byte	$02
	.byte	$02
	.byte	$91
	.byte	$93
	.byte	$2D
	.byte	$2D
	.byte	$2D
	.byte	$91
	.byte	$89
	.byte	$2D
	.byte	$2D
	.byte	$92
	.byte	$94
	.byte	$91
	.byte	$02
	.byte	$03
	.byte	$15
	.byte	$1B
	.byte	$91
	.byte	$2D
	.byte	$2D
	.byte	$2D
	.byte	$89
	.byte	$90
	.byte	$88
	.byte	$2E
	.byte	$2D
	.byte	$2E
	.byte	$88
	.byte	$91
	.byte	$00
	.byte	$15
	.byte	$CC
	.byte	$CD
	.byte	$29
	.byte	$89
	.byte	$2D
	.byte	$88
	.byte	$2A
	.byte	$46
	.byte	$90
	.byte	$2A
	.byte	$2B
	.byte	$2F
	.byte	$90
	.byte	$88
	.byte	$14
	.byte	$CE
	.byte	$BF
	.byte	$9A
	.byte	$49
	.byte	$90
	.byte	$2C
	.byte	$2A
	.byte	$47
	.byte	$73
	.byte	$48
	.byte	$49
	.byte	$6A
	.byte	$9F
	.byte	$49
	.byte	$2B
	.byte	$CA
	.byte	$C9
	.byte	$CD
	.byte	$50
	.byte	$50
	.byte	$49
	.byte	$62
	.byte	$48
	.byte	$50
	.byte	$71
	.byte	$77
	.byte	$50
	.byte	$69
	.byte	$50
	.byte	$50
	.byte	$9F
	.byte	$C9
	.byte	$CB
	.byte	$51
	.byte	$50
	.byte	$50
	.byte	$66
	.byte	$60
	.byte	$67
	.byte	$50
	.byte	$71
	.byte	$50
	.byte	$6E
	.byte	$69
	.byte	$50
	.byte	$50
	.byte	$76
	.byte	$C9
	.byte	$CB
	.byte	$CD
	.byte	$E2
	.byte	$59
	.byte	$59
	.byte	$61
	.byte	$58
	.byte	$59
	.byte	$72
	.byte	$58
	.byte	$59
	.byte	$68
	.byte	$58
	.byte	$59
	.byte	$58
	.byte	$C9
	.byte	$C9
	.byte	$CB
	.byte	$51
	.byte	$54
	.byte	$63
	.byte	$64
	.byte	$65
	.byte	$74
	.byte	$55
	.byte	$75
	.byte	$52
	.byte	$69
	.byte	$54
	.byte	$51
	.byte	$74
	.byte	$0F
	.byte	$04
	.byte	$04
	.byte	$0C
	.byte	$42
	.byte	$51
	.byte	$55
	.byte	$42
	.byte	$54
	.byte	$55
	.byte	$53
	.byte	$6B
	.byte	$6C
	.byte	$6D
	.byte	$53
	.byte	$51
	.byte	$02
	.byte	$3A
	.byte	$3B
	.byte	$00
	.byte	$0F
	.byte	$06
	.byte	$08
	.byte	$0C
	.byte	$51
	.byte	$40
	.byte	$41
	.byte	$56
	.byte	$55
	.byte	$57
	.byte	$56
	.byte	$56
	.byte	$00
	.byte	$3C
	.byte	$10
	.byte	$02
	.byte	$00
	.byte	$03
	.byte	$00
	.byte	$01
	.byte	$0E
	.byte	$07
	.byte	$05
	.byte	$06
	.byte	$07
	.byte	$08
	.byte	$09
	.byte	$0A
	.byte	$37
	.byte	$37
	.byte	$37
	.byte	$38
	.byte	$38
	.byte	$37
	.byte	$37
	.byte	$38
	.byte	$38
	.byte	$37
	.byte	$38
	.byte	$38
	.byte	$37
	.byte	$37
	.byte	$38
	.byte	$37
_level0_1:
	.byte	$2D
	.byte	$2E
	.byte	$89
	.byte	$88
	.byte	$89
	.byte	$2E
	.byte	$2E
	.byte	$89
	.byte	$88
	.byte	$89
	.byte	$2E
	.byte	$2E
	.byte	$89
	.byte	$87
	.byte	$50
	.byte	$50
	.byte	$2D
	.byte	$2E
	.byte	$94
	.byte	$93
	.byte	$93
	.byte	$2D
	.byte	$92
	.byte	$2E
	.byte	$94
	.byte	$2E
	.byte	$2E
	.byte	$2E
	.byte	$2E
	.byte	$2E
	.byte	$50
	.byte	$50
	.byte	$2E
	.byte	$2E
	.byte	$2E
	.byte	$91
	.byte	$2D
	.byte	$2E
	.byte	$2D
	.byte	$2E
	.byte	$92
	.byte	$2D
	.byte	$2E
	.byte	$2E
	.byte	$92
	.byte	$2A
	.byte	$50
	.byte	$50
	.byte	$2D
	.byte	$2E
	.byte	$92
	.byte	$88
	.byte	$94
	.byte	$2D
	.byte	$2E
	.byte	$2E
	.byte	$92
	.byte	$93
	.byte	$2E
	.byte	$2E
	.byte	$94
	.byte	$48
	.byte	$50
	.byte	$50
	.byte	$2D
	.byte	$2D
	.byte	$94
	.byte	$89
	.byte	$88
	.byte	$2D
	.byte	$2D
	.byte	$89
	.byte	$2A
	.byte	$2B
	.byte	$2C
	.byte	$2E
	.byte	$2A
	.byte	$DC
	.byte	$DE
	.byte	$50
	.byte	$90
	.byte	$2B
	.byte	$2C
	.byte	$2A
	.byte	$90
	.byte	$2D
	.byte	$2C
	.byte	$2A
	.byte	$46
	.byte	$62
	.byte	$47
	.byte	$2B
	.byte	$48
	.byte	$50
	.byte	$50
	.byte	$50
	.byte	$46
	.byte	$62
	.byte	$48
	.byte	$49
	.byte	$46
	.byte	$2F
	.byte	$46
	.byte	$46
	.byte	$48
	.byte	$61
	.byte	$67
	.byte	$9F
	.byte	$50
	.byte	$50
	.byte	$50
	.byte	$50
	.byte	$73
	.byte	$61
	.byte	$DC
	.byte	$DE
	.byte	$9F
	.byte	$6A
	.byte	$73
	.byte	$9E
	.byte	$50
	.byte	$61
	.byte	$50
	.byte	$50
	.byte	$50
	.byte	$50
	.byte	$50
	.byte	$50
	.byte	$71
	.byte	$60
	.byte	$50
	.byte	$50
	.byte	$50
	.byte	$69
	.byte	$71
	.byte	$77
	.byte	$50
	.byte	$61
	.byte	$50
	.byte	$50
	.byte	$50
	.byte	$50
	.byte	$50
	.byte	$50
	.byte	$72
	.byte	$60
	.byte	$58
	.byte	$58
	.byte	$59
	.byte	$68
	.byte	$72
	.byte	$58
	.byte	$59
	.byte	$61
	.byte	$58
	.byte	$59
	.byte	$58
	.byte	$58
	.byte	$58
	.byte	$58
	.byte	$63
	.byte	$64
	.byte	$65
	.byte	$54
	.byte	$52
	.byte	$69
	.byte	$72
	.byte	$52
	.byte	$63
	.byte	$64
	.byte	$65
	.byte	$54
	.byte	$55
	.byte	$54
	.byte	$51
	.byte	$53
	.byte	$55
	.byte	$55
	.byte	$52
	.byte	$42
	.byte	$6B
	.byte	$6C
	.byte	$6D
	.byte	$75
	.byte	$56
	.byte	$55
	.byte	$57
	.byte	$52
	.byte	$51
	.byte	$56
	.byte	$51
	.byte	$52
	.byte	$51
	.byte	$54
	.byte	$55
	.byte	$57
	.byte	$56
	.byte	$41
	.byte	$57
	.byte	$51
	.byte	$51
	.byte	$53
	.byte	$41
	.byte	$40
	.byte	$42
	.byte	$0F
	.byte	$04
	.byte	$0C
	.byte	$0B
	.byte	$04
	.byte	$05
	.byte	$06
	.byte	$07
	.byte	$04
	.byte	$08
	.byte	$06
	.byte	$07
	.byte	$04
	.byte	$05
	.byte	$06
	.byte	$0D
	.byte	$00
	.byte	$10
	.byte	$11
	.byte	$37
	.byte	$38
	.byte	$38
	.byte	$37
	.byte	$38
	.byte	$37
	.byte	$37
	.byte	$38
	.byte	$37
	.byte	$38
	.byte	$37
	.byte	$37
	.byte	$37
	.byte	$37
	.byte	$37
	.byte	$38
_level0_2:
	.byte	$50
	.byte	$50
	.byte	$50
	.byte	$50
	.byte	$50
	.byte	$50
	.byte	$50
	.byte	$50
	.byte	$50
	.byte	$50
	.byte	$50
	.byte	$50
	.byte	$50
	.byte	$50
	.byte	$50
	.byte	$50
	.byte	$50
	.byte	$50
	.byte	$50
	.byte	$50
	.byte	$50
	.byte	$50
	.byte	$50
	.byte	$50
	.byte	$50
	.byte	$50
	.byte	$50
	.byte	$50
	.byte	$DD
	.byte	$DC
	.byte	$DC
	.byte	$DC
	.byte	$DD
	.byte	$DC
	.byte	$DC
	.byte	$DE
	.byte	$50
	.byte	$50
	.byte	$50
	.byte	$50
	.byte	$50
	.byte	$50
	.byte	$50
	.byte	$50
	.byte	$50
	.byte	$50
	.byte	$50
	.byte	$50
	.byte	$50
	.byte	$50
	.byte	$50
	.byte	$50
	.byte	$50
	.byte	$50
	.byte	$50
	.byte	$50
	.byte	$50
	.byte	$50
	.byte	$50
	.byte	$50
	.byte	$50
	.byte	$50
	.byte	$50
	.byte	$50
	.byte	$50
	.byte	$50
	.byte	$50
	.byte	$50
	.byte	$50
	.byte	$50
	.byte	$50
	.byte	$50
	.byte	$50
	.byte	$50
	.byte	$50
	.byte	$50
	.byte	$50
	.byte	$50
	.byte	$50
	.byte	$50
	.byte	$50
	.byte	$50
	.byte	$50
	.byte	$50
	.byte	$50
	.byte	$50
	.byte	$DD
	.byte	$DC
	.byte	$DE
	.byte	$50
	.byte	$50
	.byte	$50
	.byte	$50
	.byte	$50
	.byte	$50
	.byte	$50
	.byte	$50
	.byte	$50
	.byte	$50
	.byte	$50
	.byte	$50
	.byte	$50
	.byte	$50
	.byte	$50
	.byte	$50
	.byte	$50
	.byte	$50
	.byte	$50
	.byte	$50
	.byte	$50
	.byte	$50
	.byte	$50
	.byte	$50
	.byte	$50
	.byte	$50
	.byte	$50
	.byte	$50
	.byte	$50
	.byte	$50
	.byte	$50
	.byte	$50
	.byte	$50
	.byte	$50
	.byte	$50
	.byte	$50
	.byte	$50
	.byte	$50
	.byte	$50
	.byte	$50
	.byte	$50
	.byte	$50
	.byte	$50
	.byte	$50
	.byte	$50
	.byte	$50
	.byte	$50
	.byte	$50
	.byte	$50
	.byte	$50
	.byte	$50
	.byte	$50
	.byte	$50
	.byte	$AC
	.byte	$50
	.byte	$50
	.byte	$50
	.byte	$50
	.byte	$AC
	.byte	$50
	.byte	$50
	.byte	$50
	.byte	$50
	.byte	$50
	.byte	$50
	.byte	$AD
	.byte	$50
	.byte	$50
	.byte	$50
	.byte	$35
	.byte	$34
	.byte	$A4
	.byte	$A1
	.byte	$BB
	.byte	$BD
	.byte	$B6
	.byte	$BD
	.byte	$BA
	.byte	$B0
	.byte	$BC
	.byte	$B0
	.byte	$BD
	.byte	$BC
	.byte	$35
	.byte	$36
	.byte	$25
	.byte	$21
	.byte	$51
	.byte	$A0
	.byte	$B8
	.byte	$B0
	.byte	$BC
	.byte	$B0
	.byte	$B8
	.byte	$B0
	.byte	$B7
	.byte	$B9
	.byte	$B0
	.byte	$B8
	.byte	$25
	.byte	$21
	.byte	$20
	.byte	$20
	.byte	$A3
	.byte	$A2
	.byte	$AA
	.byte	$A9
	.byte	$B0
	.byte	$A8
	.byte	$AB
	.byte	$B0
	.byte	$A8
	.byte	$A9
	.byte	$35
	.byte	$36
	.byte	$23
	.byte	$20
	.byte	$20
	.byte	$20
	.byte	$A5
	.byte	$A6
	.byte	$A6
	.byte	$35
	.byte	$34
	.byte	$34
	.byte	$34
	.byte	$33
	.byte	$34
	.byte	$36
	.byte	$25
	.byte	$21
	.byte	$20
	.byte	$20
	.byte	$20
	.byte	$20
	.byte	$51
	.byte	$51
	.byte	$51
	.byte	$38
	.byte	$37
	.byte	$38
	.byte	$37
	.byte	$37
	.byte	$38
	.byte	$38
	.byte	$23
	.byte	$20
	.byte	$20
	.byte	$20
	.byte	$20
	.byte	$20
_level0_3:
	.byte	$50
	.byte	$50
	.byte	$50
	.byte	$50
	.byte	$50
	.byte	$50
	.byte	$50
	.byte	$50
	.byte	$8B
	.byte	$86
	.byte	$89
	.byte	$2D
	.byte	$89
	.byte	$87
	.byte	$7B
	.byte	$50
	.byte	$DE
	.byte	$50
	.byte	$50
	.byte	$50
	.byte	$50
	.byte	$50
	.byte	$50
	.byte	$50
	.byte	$86
	.byte	$89
	.byte	$2E
	.byte	$88
	.byte	$88
	.byte	$89
	.byte	$87
	.byte	$50
	.byte	$50
	.byte	$50
	.byte	$50
	.byte	$50
	.byte	$50
	.byte	$50
	.byte	$DD
	.byte	$DC
	.byte	$89
	.byte	$93
	.byte	$88
	.byte	$2D
	.byte	$91
	.byte	$2E
	.byte	$94
	.byte	$50
	.byte	$50
	.byte	$50
	.byte	$50
	.byte	$50
	.byte	$50
	.byte	$50
	.byte	$50
	.byte	$50
	.byte	$91
	.byte	$89
	.byte	$2E
	.byte	$2D
	.byte	$92
	.byte	$2E
	.byte	$89
	.byte	$50
	.byte	$50
	.byte	$50
	.byte	$50
	.byte	$50
	.byte	$50
	.byte	$50
	.byte	$50
	.byte	$50
	.byte	$2C
	.byte	$88
	.byte	$91
	.byte	$2E
	.byte	$88
	.byte	$89
	.byte	$2A
	.byte	$50
	.byte	$50
	.byte	$DD
	.byte	$DC
	.byte	$DC
	.byte	$DE
	.byte	$50
	.byte	$50
	.byte	$50
	.byte	$49
	.byte	$2C
	.byte	$90
	.byte	$2B
	.byte	$90
	.byte	$2A
	.byte	$48
	.byte	$50
	.byte	$50
	.byte	$50
	.byte	$50
	.byte	$50
	.byte	$50
	.byte	$50
	.byte	$50
	.byte	$50
	.byte	$50
	.byte	$9F
	.byte	$49
	.byte	$6A
	.byte	$47
	.byte	$48
	.byte	$50
	.byte	$50
	.byte	$50
	.byte	$50
	.byte	$50
	.byte	$50
	.byte	$50
	.byte	$50
	.byte	$50
	.byte	$50
	.byte	$50
	.byte	$50
	.byte	$6E
	.byte	$69
	.byte	$50
	.byte	$50
	.byte	$50
	.byte	$50
	.byte	$50
	.byte	$AD
	.byte	$50
	.byte	$50
	.byte	$50
	.byte	$50
	.byte	$50
	.byte	$50
	.byte	$50
	.byte	$50
	.byte	$50
	.byte	$68
	.byte	$50
	.byte	$50
	.byte	$50
	.byte	$50
	.byte	$33
	.byte	$36
	.byte	$50
	.byte	$50
	.byte	$50
	.byte	$50
	.byte	$AC
	.byte	$50
	.byte	$50
	.byte	$50
	.byte	$50
	.byte	$69
	.byte	$50
	.byte	$50
	.byte	$50
	.byte	$50
	.byte	$21
	.byte	$26
	.byte	$35
	.byte	$36
	.byte	$BC
	.byte	$B0
	.byte	$BD
	.byte	$BC
	.byte	$B0
	.byte	$4D
	.byte	$6B
	.byte	$6C
	.byte	$6D
	.byte	$53
	.byte	$4F
	.byte	$BE
	.byte	$20
	.byte	$20
	.byte	$21
	.byte	$26
	.byte	$BD
	.byte	$B8
	.byte	$B0
	.byte	$B7
	.byte	$B6
	.byte	$4A
	.byte	$4B
	.byte	$5A
	.byte	$4B
	.byte	$5B
	.byte	$4C
	.byte	$B6
	.byte	$20
	.byte	$20
	.byte	$20
	.byte	$24
	.byte	$35
	.byte	$34
	.byte	$36
	.byte	$B0
	.byte	$A8
	.byte	$B0
	.byte	$B0
	.byte	$B9
	.byte	$B0
	.byte	$A8
	.byte	$AB
	.byte	$A8
	.byte	$20
	.byte	$20
	.byte	$20
	.byte	$20
	.byte	$21
	.byte	$21
	.byte	$26
	.byte	$35
	.byte	$33
	.byte	$34
	.byte	$33
	.byte	$34
	.byte	$33
	.byte	$33
	.byte	$33
	.byte	$36
	.byte	$20
	.byte	$20
	.byte	$20
	.byte	$20
	.byte	$20
	.byte	$20
	.byte	$24
	.byte	$38
	.byte	$37
	.byte	$38
	.byte	$37
	.byte	$37
	.byte	$37
	.byte	$37
	.byte	$37
	.byte	$38
_level0_4:
	.byte	$50
	.byte	$50
	.byte	$50
	.byte	$50
	.byte	$50
	.byte	$50
	.byte	$50
	.byte	$50
	.byte	$50
	.byte	$50
	.byte	$50
	.byte	$50
	.byte	$50
	.byte	$50
	.byte	$50
	.byte	$50
	.byte	$50
	.byte	$50
	.byte	$50
	.byte	$50
	.byte	$50
	.byte	$50
	.byte	$50
	.byte	$50
	.byte	$50
	.byte	$50
	.byte	$50
	.byte	$50
	.byte	$DD
	.byte	$DC
	.byte	$DC
	.byte	$DE
	.byte	$50
	.byte	$50
	.byte	$50
	.byte	$50
	.byte	$50
	.byte	$50
	.byte	$50
	.byte	$50
	.byte	$50
	.byte	$50
	.byte	$50
	.byte	$50
	.byte	$50
	.byte	$50
	.byte	$50
	.byte	$50
	.byte	$50
	.byte	$DD
	.byte	$DC
	.byte	$DC
	.byte	$DE
	.byte	$50
	.byte	$50
	.byte	$50
	.byte	$50
	.byte	$50
	.byte	$50
	.byte	$50
	.byte	$50
	.byte	$50
	.byte	$50
	.byte	$50
	.byte	$50
	.byte	$50
	.byte	$50
	.byte	$50
	.byte	$50
	.byte	$50
	.byte	$50
	.byte	$50
	.byte	$50
	.byte	$50
	.byte	$50
	.byte	$50
	.byte	$50
	.byte	$50
	.byte	$50
	.byte	$50
	.byte	$50
	.byte	$50
	.byte	$50
	.byte	$50
	.byte	$50
	.byte	$50
	.byte	$50
	.byte	$50
	.byte	$50
	.byte	$50
	.byte	$50
	.byte	$50
	.byte	$50
	.byte	$50
	.byte	$50
	.byte	$50
	.byte	$50
	.byte	$50
	.byte	$50
	.byte	$50
	.byte	$50
	.byte	$50
	.byte	$50
	.byte	$50
	.byte	$DD
	.byte	$DC
	.byte	$DE
	.byte	$50
	.byte	$50
	.byte	$50
	.byte	$50
	.byte	$50
	.byte	$50
	.byte	$50
	.byte	$50
	.byte	$50
	.byte	$50
	.byte	$50
	.byte	$50
	.byte	$50
	.byte	$50
	.byte	$50
	.byte	$50
	.byte	$50
	.byte	$50
	.byte	$50
	.byte	$50
	.byte	$D1
	.byte	$50
	.byte	$50
	.byte	$50
	.byte	$50
	.byte	$50
	.byte	$50
	.byte	$50
	.byte	$50
	.byte	$50
	.byte	$50
	.byte	$50
	.byte	$50
	.byte	$50
	.byte	$D1
	.byte	$D2
	.byte	$D6
	.byte	$50
	.byte	$50
	.byte	$AC
	.byte	$50
	.byte	$50
	.byte	$50
	.byte	$50
	.byte	$50
	.byte	$50
	.byte	$50
	.byte	$AD
	.byte	$50
	.byte	$D0
	.byte	$D5
	.byte	$D4
	.byte	$D4
	.byte	$B0
	.byte	$B6
	.byte	$B0
	.byte	$BA
	.byte	$B0
	.byte	$BB
	.byte	$7E
	.byte	$78
	.byte	$5F
	.byte	$BA
	.byte	$B0
	.byte	$BA
	.byte	$BD
	.byte	$BE
	.byte	$BA
	.byte	$B0
	.byte	$B8
	.byte	$B0
	.byte	$B9
	.byte	$B0
	.byte	$B7
	.byte	$BC
	.byte	$5C
	.byte	$5D
	.byte	$5E
	.byte	$B6
	.byte	$B7
	.byte	$A9
	.byte	$AB
	.byte	$B7
	.byte	$0E
	.byte	$0D
	.byte	$B0
	.byte	$B9
	.byte	$B0
	.byte	$AA
	.byte	$B0
	.byte	$B7
	.byte	$B0
	.byte	$A8
	.byte	$B7
	.byte	$B0
	.byte	$A9
	.byte	$B0
	.byte	$0E
	.byte	$0D
	.byte	$00
	.byte	$3C
	.byte	$A6
	.byte	$A6
	.byte	$A6
	.byte	$0E
	.byte	$07
	.byte	$08
	.byte	$09
	.byte	$04
	.byte	$05
	.byte	$06
	.byte	$07
	.byte	$0C
	.byte	$3A
	.byte	$3B
	.byte	$02
	.byte	$01
	.byte	$51
	.byte	$51
	.byte	$51
	.byte	$38
	.byte	$37
	.byte	$37
	.byte	$38
	.byte	$38
	.byte	$38
	.byte	$38
	.byte	$37
	.byte	$38
	.byte	$38
	.byte	$37
	.byte	$37
	.byte	$38
_level0_5:
	.byte	$50
	.byte	$50
	.byte	$50
	.byte	$50
	.byte	$50
	.byte	$50
	.byte	$50
	.byte	$DD
	.byte	$DC
	.byte	$DC
	.byte	$DC
	.byte	$DE
	.byte	$50
	.byte	$50
	.byte	$50
	.byte	$50
	.byte	$50
	.byte	$50
	.byte	$50
	.byte	$50
	.byte	$50
	.byte	$50
	.byte	$50
	.byte	$50
	.byte	$50
	.byte	$50
	.byte	$50
	.byte	$50
	.byte	$50
	.byte	$50
	.byte	$50
	.byte	$DD
	.byte	$50
	.byte	$50
	.byte	$50
	.byte	$50
	.byte	$50
	.byte	$50
	.byte	$50
	.byte	$50
	.byte	$50
	.byte	$50
	.byte	$50
	.byte	$50
	.byte	$50
	.byte	$50
	.byte	$50
	.byte	$50
	.byte	$50
	.byte	$50
	.byte	$50
	.byte	$50
	.byte	$50
	.byte	$50
	.byte	$50
	.byte	$50
	.byte	$50
	.byte	$50
	.byte	$DD
	.byte	$DC
	.byte	$DE
	.byte	$50
	.byte	$50
	.byte	$50
	.byte	$50
	.byte	$50
	.byte	$50
	.byte	$50
	.byte	$50
	.byte	$50
	.byte	$50
	.byte	$50
	.byte	$50
	.byte	$50
	.byte	$50
	.byte	$50
	.byte	$50
	.byte	$50
	.byte	$D1
	.byte	$D3
	.byte	$50
	.byte	$50
	.byte	$C5
	.byte	$D1
	.byte	$D3
	.byte	$E0
	.byte	$E1
	.byte	$E2
	.byte	$50
	.byte	$50
	.byte	$50
	.byte	$50
	.byte	$D1
	.byte	$D2
	.byte	$D5
	.byte	$0E
	.byte	$50
	.byte	$D0
	.byte	$D4
	.byte	$D6
	.byte	$D7
	.byte	$EC
	.byte	$EB
	.byte	$EA
	.byte	$E3
	.byte	$50
	.byte	$50
	.byte	$D0
	.byte	$D5
	.byte	$D4
	.byte	$D4
	.byte	$00
	.byte	$D2
	.byte	$D4
	.byte	$D4
	.byte	$D4
	.byte	$D9
	.byte	$DA
	.byte	$EE
	.byte	$E9
	.byte	$E9
	.byte	$E4
	.byte	$E5
	.byte	$E6
	.byte	$D4
	.byte	$0F
	.byte	$0C
	.byte	$02
	.byte	$D6
	.byte	$D4
	.byte	$D6
	.byte	$D6
	.byte	$D4
	.byte	$D8
	.byte	$DA
	.byte	$EF
	.byte	$E9
	.byte	$E9
	.byte	$EB
	.byte	$EA
	.byte	$E7
	.byte	$3C
	.byte	$12
	.byte	$3A
	.byte	$0E
	.byte	$07
	.byte	$04
	.byte	$06
	.byte	$04
	.byte	$0C
	.byte	$D8
	.byte	$DB
	.byte	$EE
	.byte	$0E
	.byte	$0C
	.byte	$E9
	.byte	$EB
	.byte	$12
	.byte	$01
	.byte	$12
	.byte	$00
	.byte	$3C
	.byte	$12
	.byte	$02
	.byte	$10
	.byte	$01
	.byte	$BC
	.byte	$B0
	.byte	$BD
	.byte	$00
	.byte	$01
	.byte	$BB
	.byte	$BD
	.byte	$10
	.byte	$03
	.byte	$3C
	.byte	$02
	.byte	$3A
	.byte	$3B
	.byte	$10
	.byte	$12
	.byte	$11
	.byte	$B9
	.byte	$B0
	.byte	$B9
	.byte	$02
	.byte	$03
	.byte	$B8
	.byte	$BC
	.byte	$3A
	.byte	$3B
	.byte	$3C
	.byte	$00
	.byte	$01
	.byte	$3C
	.byte	$3A
	.byte	$3B
	.byte	$01
	.byte	$A9
	.byte	$B6
	.byte	$A9
	.byte	$00
	.byte	$01
	.byte	$B0
	.byte	$A7
	.byte	$00
	.byte	$3C
	.byte	$00
	.byte	$02
	.byte	$03
	.byte	$10
	.byte	$3C
	.byte	$10
	.byte	$03
	.byte	$A6
	.byte	$A6
	.byte	$A6
	.byte	$02
	.byte	$03
	.byte	$A6
	.byte	$A6
	.byte	$02
	.byte	$01
	.byte	$02
	.byte	$38
	.byte	$37
	.byte	$37
	.byte	$38
	.byte	$37
	.byte	$38
	.byte	$51
	.byte	$51
	.byte	$51
	.byte	$38
	.byte	$38
	.byte	$51
	.byte	$51
	.byte	$38
	.byte	$38
	.byte	$37
_level0_6:
	.byte	$50
	.byte	$50
	.byte	$50
	.byte	$50
	.byte	$50
	.byte	$50
	.byte	$50
	.byte	$50
	.byte	$DD
	.byte	$DC
	.byte	$DC
	.byte	$DC
	.byte	$DE
	.byte	$50
	.byte	$50
	.byte	$50
	.byte	$DC
	.byte	$DC
	.byte	$DC
	.byte	$DE
	.byte	$50
	.byte	$50
	.byte	$50
	.byte	$50
	.byte	$50
	.byte	$50
	.byte	$50
	.byte	$50
	.byte	$50
	.byte	$50
	.byte	$50
	.byte	$50
	.byte	$50
	.byte	$50
	.byte	$50
	.byte	$50
	.byte	$50
	.byte	$50
	.byte	$50
	.byte	$50
	.byte	$50
	.byte	$50
	.byte	$50
	.byte	$50
	.byte	$50
	.byte	$50
	.byte	$50
	.byte	$DD
	.byte	$50
	.byte	$50
	.byte	$50
	.byte	$50
	.byte	$50
	.byte	$50
	.byte	$50
	.byte	$50
	.byte	$50
	.byte	$50
	.byte	$50
	.byte	$50
	.byte	$50
	.byte	$50
	.byte	$50
	.byte	$50
	.byte	$E3
	.byte	$AC
	.byte	$50
	.byte	$50
	.byte	$50
	.byte	$50
	.byte	$50
	.byte	$DD
	.byte	$DC
	.byte	$DC
	.byte	$DE
	.byte	$50
	.byte	$50
	.byte	$50
	.byte	$50
	.byte	$50
	.byte	$0A
	.byte	$06
	.byte	$0C
	.byte	$50
	.byte	$50
	.byte	$50
	.byte	$50
	.byte	$50
	.byte	$50
	.byte	$50
	.byte	$50
	.byte	$50
	.byte	$50
	.byte	$D1
	.byte	$D3
	.byte	$E0
	.byte	$01
	.byte	$02
	.byte	$03
	.byte	$E4
	.byte	$E2
	.byte	$50
	.byte	$AC
	.byte	$50
	.byte	$50
	.byte	$50
	.byte	$50
	.byte	$C5
	.byte	$D0
	.byte	$D4
	.byte	$D9
	.byte	$EC
	.byte	$02
	.byte	$00
	.byte	$01
	.byte	$0E
	.byte	$08
	.byte	$06
	.byte	$0D
	.byte	$50
	.byte	$50
	.byte	$D1
	.byte	$D2
	.byte	$D4
	.byte	$D6
	.byte	$D4
	.byte	$D5
	.byte	$DB
	.byte	$3B
	.byte	$02
	.byte	$03
	.byte	$00
	.byte	$01
	.byte	$02
	.byte	$11
	.byte	$E4
	.byte	$E5
	.byte	$E8
	.byte	$D6
	.byte	$D6
	.byte	$D4
	.byte	$D6
	.byte	$D4
	.byte	$D8
	.byte	$12
	.byte	$3C
	.byte	$01
	.byte	$02
	.byte	$03
	.byte	$00
	.byte	$3C
	.byte	$E9
	.byte	$EB
	.byte	$EB
	.byte	$E7
	.byte	$DF
	.byte	$D6
	.byte	$D4
	.byte	$D6
	.byte	$D9
	.byte	$01
	.byte	$3A
	.byte	$3B
	.byte	$00
	.byte	$3C
	.byte	$02
	.byte	$01
	.byte	$0E
	.byte	$0A
	.byte	$0C
	.byte	$B9
	.byte	$BA
	.byte	$BA
	.byte	$B0
	.byte	$BC
	.byte	$B0
	.byte	$03
	.byte	$00
	.byte	$00
	.byte	$02
	.byte	$10
	.byte	$01
	.byte	$02
	.byte	$3A
	.byte	$3B
	.byte	$3C
	.byte	$B8
	.byte	$B0
	.byte	$B8
	.byte	$AB
	.byte	$B9
	.byte	$BA
	.byte	$01
	.byte	$02
	.byte	$03
	.byte	$3C
	.byte	$3C
	.byte	$03
	.byte	$00
	.byte	$3C
	.byte	$10
	.byte	$10
	.byte	$A9
	.byte	$AB
	.byte	$A7
	.byte	$B8
	.byte	$B0
	.byte	$AA
	.byte	$03
	.byte	$01
	.byte	$00
	.byte	$01
	.byte	$3A
	.byte	$3B
	.byte	$02
	.byte	$10
	.byte	$3C
	.byte	$12
	.byte	$A6
	.byte	$A6
	.byte	$A6
	.byte	$A6
	.byte	$0E
	.byte	$09
	.byte	$37
	.byte	$38
	.byte	$38
	.byte	$37
	.byte	$38
	.byte	$38
	.byte	$37
	.byte	$37
	.byte	$38
	.byte	$37
	.byte	$51
	.byte	$51
	.byte	$51
	.byte	$51
	.byte	$10
	.byte	$00
_level0_7:
	.byte	$50
	.byte	$50
	.byte	$50
	.byte	$50
	.byte	$50
	.byte	$43
	.byte	$44
	.byte	$19
	.byte	$18
	.byte	$10
	.byte	$3D
	.byte	$00
	.byte	$3C
	.byte	$02
	.byte	$03
	.byte	$02
	.byte	$50
	.byte	$50
	.byte	$50
	.byte	$50
	.byte	$50
	.byte	$50
	.byte	$50
	.byte	$9B
	.byte	$44
	.byte	$19
	.byte	$3D
	.byte	$02
	.byte	$10
	.byte	$10
	.byte	$01
	.byte	$00
	.byte	$DC
	.byte	$DC
	.byte	$DE
	.byte	$50
	.byte	$50
	.byte	$50
	.byte	$50
	.byte	$50
	.byte	$50
	.byte	$9F
	.byte	$3D
	.byte	$00
	.byte	$3A
	.byte	$3B
	.byte	$03
	.byte	$02
	.byte	$50
	.byte	$50
	.byte	$50
	.byte	$50
	.byte	$50
	.byte	$50
	.byte	$50
	.byte	$50
	.byte	$50
	.byte	$50
	.byte	$3D
	.byte	$02
	.byte	$3C
	.byte	$00
	.byte	$01
	.byte	$00
	.byte	$50
	.byte	$50
	.byte	$50
	.byte	$50
	.byte	$50
	.byte	$50
	.byte	$50
	.byte	$AD
	.byte	$50
	.byte	$50
	.byte	$3D
	.byte	$00
	.byte	$10
	.byte	$03
	.byte	$02
	.byte	$02
	.byte	$E1
	.byte	$E2
	.byte	$50
	.byte	$50
	.byte	$50
	.byte	$50
	.byte	$3E
	.byte	$0E
	.byte	$05
	.byte	$0A
	.byte	$0D
	.byte	$02
	.byte	$01
	.byte	$00
	.byte	$3A
	.byte	$3B
	.byte	$E9
	.byte	$E9
	.byte	$E3
	.byte	$50
	.byte	$50
	.byte	$50
	.byte	$3D
	.byte	$3C
	.byte	$03
	.byte	$00
	.byte	$01
	.byte	$10
	.byte	$12
	.byte	$02
	.byte	$3C
	.byte	$00
	.byte	$ED
	.byte	$EF
	.byte	$EB
	.byte	$E3
	.byte	$50
	.byte	$50
	.byte	$3D
	.byte	$00
	.byte	$01
	.byte	$02
	.byte	$03
	.byte	$00
	.byte	$01
	.byte	$11
	.byte	$10
	.byte	$02
	.byte	$DB
	.byte	$DB
	.byte	$E9
	.byte	$EB
	.byte	$E3
	.byte	$AC
	.byte	$3D
	.byte	$02
	.byte	$03
	.byte	$3C
	.byte	$01
	.byte	$02
	.byte	$03
	.byte	$3A
	.byte	$3B
	.byte	$00
	.byte	$DA
	.byte	$DB
	.byte	$EF
	.byte	$EB
	.byte	$0F
	.byte	$07
	.byte	$0D
	.byte	$00
	.byte	$01
	.byte	$10
	.byte	$02
	.byte	$00
	.byte	$01
	.byte	$3C
	.byte	$01
	.byte	$02
	.byte	$BC
	.byte	$B0
	.byte	$BD
	.byte	$BC
	.byte	$3C
	.byte	$10
	.byte	$10
	.byte	$02
	.byte	$03
	.byte	$3C
	.byte	$10
	.byte	$02
	.byte	$03
	.byte	$00
	.byte	$02
	.byte	$25
	.byte	$B9
	.byte	$0F
	.byte	$08
	.byte	$0C
	.byte	$00
	.byte	$12
	.byte	$3C
	.byte	$00
	.byte	$01
	.byte	$10
	.byte	$00
	.byte	$3C
	.byte	$01
	.byte	$02
	.byte	$25
	.byte	$20
	.byte	$A9
	.byte	$00
	.byte	$03
	.byte	$00
	.byte	$02
	.byte	$10
	.byte	$3C
	.byte	$02
	.byte	$03
	.byte	$00
	.byte	$02
	.byte	$10
	.byte	$02
	.byte	$25
	.byte	$20
	.byte	$20
	.byte	$0D
	.byte	$02
	.byte	$01
	.byte	$02
	.byte	$11
	.byte	$3C
	.byte	$10
	.byte	$00
	.byte	$10
	.byte	$02
	.byte	$25
	.byte	$21
	.byte	$21
	.byte	$20
	.byte	$20
	.byte	$20
	.byte	$01
	.byte	$10
	.byte	$01
	.byte	$3A
	.byte	$3B
	.byte	$10
	.byte	$01
	.byte	$02
	.byte	$25
	.byte	$21
	.byte	$20
	.byte	$20
	.byte	$20
	.byte	$20
	.byte	$20
	.byte	$20
_level1_0:
	.byte	$50
	.byte	$50
	.byte	$50
	.byte	$3D
	.byte	$3C
	.byte	$10
	.byte	$01
	.byte	$10
	.byte	$12
	.byte	$15
	.byte	$16
	.byte	$12
	.byte	$02
	.byte	$10
	.byte	$3A
	.byte	$3B
	.byte	$50
	.byte	$50
	.byte	$50
	.byte	$3D
	.byte	$44
	.byte	$18
	.byte	$17
	.byte	$51
	.byte	$CE
	.byte	$CA
	.byte	$CA
	.byte	$51
	.byte	$51
	.byte	$1B
	.byte	$3C
	.byte	$11
	.byte	$50
	.byte	$50
	.byte	$50
	.byte	$3D
	.byte	$50
	.byte	$9E
	.byte	$9B
	.byte	$CF
	.byte	$C9
	.byte	$C9
	.byte	$C9
	.byte	$CB
	.byte	$CB
	.byte	$51
	.byte	$00
	.byte	$01
	.byte	$50
	.byte	$50
	.byte	$50
	.byte	$3D
	.byte	$DD
	.byte	$DC
	.byte	$DE
	.byte	$43
	.byte	$CF
	.byte	$CF
	.byte	$C9
	.byte	$C9
	.byte	$C9
	.byte	$CB
	.byte	$02
	.byte	$03
	.byte	$50
	.byte	$50
	.byte	$50
	.byte	$50
	.byte	$50
	.byte	$50
	.byte	$50
	.byte	$50
	.byte	$9B
	.byte	$CF
	.byte	$C9
	.byte	$C9
	.byte	$C9
	.byte	$BF
	.byte	$3C
	.byte	$01
	.byte	$50
	.byte	$50
	.byte	$50
	.byte	$50
	.byte	$50
	.byte	$50
	.byte	$58
	.byte	$8E
	.byte	$8F
	.byte	$CE
	.byte	$C9
	.byte	$C9
	.byte	$0E
	.byte	$0C
	.byte	$10
	.byte	$03
	.byte	$50
	.byte	$50
	.byte	$58
	.byte	$58
	.byte	$8E
	.byte	$8F
	.byte	$CA
	.byte	$CE
	.byte	$CC
	.byte	$C9
	.byte	$C9
	.byte	$C9
	.byte	$CB
	.byte	$CA
	.byte	$3A
	.byte	$3B
	.byte	$1D
	.byte	$8F
	.byte	$51
	.byte	$51
	.byte	$CE
	.byte	$0E
	.byte	$04
	.byte	$04
	.byte	$07
	.byte	$0C
	.byte	$C9
	.byte	$C9
	.byte	$C9
	.byte	$C9
	.byte	$13
	.byte	$01
	.byte	$1C
	.byte	$51
	.byte	$CA
	.byte	$CC
	.byte	$C9
	.byte	$CB
	.byte	$CA
	.byte	$CA
	.byte	$CA
	.byte	$CC
	.byte	$C9
	.byte	$C9
	.byte	$C9
	.byte	$C9
	.byte	$10
	.byte	$03
	.byte	$01
	.byte	$CC
	.byte	$C9
	.byte	$C9
	.byte	$C9
	.byte	$C9
	.byte	$C9
	.byte	$C9
	.byte	$C9
	.byte	$C9
	.byte	$C9
	.byte	$C9
	.byte	$C9
	.byte	$BF
	.byte	$3C
	.byte	$01
	.byte	$01
	.byte	$0E
	.byte	$0D
	.byte	$C9
	.byte	$C9
	.byte	$C9
	.byte	$C9
	.byte	$C9
	.byte	$C9
	.byte	$C9
	.byte	$C9
	.byte	$C9
	.byte	$AE
	.byte	$51
	.byte	$10
	.byte	$03
	.byte	$1A
	.byte	$12
	.byte	$11
	.byte	$C9
	.byte	$C9
	.byte	$C9
	.byte	$C9
	.byte	$C9
	.byte	$C9
	.byte	$C9
	.byte	$C9
	.byte	$BF
	.byte	$51
	.byte	$51
	.byte	$00
	.byte	$01
	.byte	$44
	.byte	$18
	.byte	$1A
	.byte	$0F
	.byte	$05
	.byte	$07
	.byte	$08
	.byte	$05
	.byte	$07
	.byte	$07
	.byte	$3E
	.byte	$05
	.byte	$08
	.byte	$0D
	.byte	$02
	.byte	$03
	.byte	$50
	.byte	$9B
	.byte	$84
	.byte	$1A
	.byte	$02
	.byte	$3C
	.byte	$11
	.byte	$02
	.byte	$10
	.byte	$11
	.byte	$3D
	.byte	$03
	.byte	$3C
	.byte	$10
	.byte	$00
	.byte	$01
	.byte	$50
	.byte	$50
	.byte	$50
	.byte	$9B
	.byte	$44
	.byte	$1B
	.byte	$11
	.byte	$10
	.byte	$3A
	.byte	$3B
	.byte	$3D
	.byte	$10
	.byte	$11
	.byte	$3C
	.byte	$02
	.byte	$03
_level2_0:
	.byte	$50
	.byte	$50
	.byte	$50
	.byte	$50
	.byte	$50
	.byte	$50
	.byte	$50
	.byte	$50
	.byte	$50
	.byte	$50
	.byte	$50
	.byte	$50
	.byte	$50
	.byte	$50
	.byte	$50
	.byte	$50
	.byte	$50
	.byte	$DD
	.byte	$DC
	.byte	$DC
	.byte	$DC
	.byte	$DE
	.byte	$50
	.byte	$50
	.byte	$50
	.byte	$DD
	.byte	$DC
	.byte	$DC
	.byte	$DE
	.byte	$50
	.byte	$50
	.byte	$50
	.byte	$50
	.byte	$50
	.byte	$50
	.byte	$50
	.byte	$50
	.byte	$50
	.byte	$50
	.byte	$50
	.byte	$50
	.byte	$50
	.byte	$50
	.byte	$50
	.byte	$50
	.byte	$50
	.byte	$50
	.byte	$50
	.byte	$50
	.byte	$50
	.byte	$50
	.byte	$50
	.byte	$50
	.byte	$50
	.byte	$DD
	.byte	$DC
	.byte	$DC
	.byte	$DE
	.byte	$50
	.byte	$50
	.byte	$50
	.byte	$50
	.byte	$50
	.byte	$50
	.byte	$DC
	.byte	$DC
	.byte	$DE
	.byte	$50
	.byte	$50
	.byte	$50
	.byte	$50
	.byte	$50
	.byte	$50
	.byte	$50
	.byte	$50
	.byte	$50
	.byte	$50
	.byte	$DD
	.byte	$DC
	.byte	$DC
	.byte	$50
	.byte	$50
	.byte	$50
	.byte	$50
	.byte	$50
	.byte	$50
	.byte	$50
	.byte	$50
	.byte	$50
	.byte	$50
	.byte	$50
	.byte	$50
	.byte	$50
	.byte	$50
	.byte	$50
	.byte	$50
	.byte	$50
	.byte	$50
	.byte	$50
	.byte	$50
	.byte	$50
	.byte	$50
	.byte	$50
	.byte	$50
	.byte	$50
	.byte	$50
	.byte	$50
	.byte	$50
	.byte	$50
	.byte	$50
	.byte	$50
	.byte	$50
	.byte	$50
	.byte	$50
	.byte	$50
	.byte	$50
	.byte	$50
	.byte	$50
	.byte	$50
	.byte	$50
	.byte	$50
	.byte	$50
	.byte	$50
	.byte	$50
	.byte	$50
	.byte	$50
	.byte	$50
	.byte	$50
	.byte	$DE
	.byte	$50
	.byte	$50
	.byte	$50
	.byte	$50
	.byte	$50
	.byte	$50
	.byte	$50
	.byte	$50
	.byte	$50
	.byte	$50
	.byte	$50
	.byte	$50
	.byte	$50
	.byte	$50
	.byte	$50
	.byte	$50
	.byte	$50
	.byte	$50
	.byte	$50
	.byte	$50
	.byte	$50
	.byte	$50
	.byte	$50
	.byte	$AC
	.byte	$50
	.byte	$50
	.byte	$50
	.byte	$50
	.byte	$50
	.byte	$50
	.byte	$50
	.byte	$50
	.byte	$50
	.byte	$50
	.byte	$50
	.byte	$50
	.byte	$50
	.byte	$50
	.byte	$0E
	.byte	$0B
	.byte	$06
	.byte	$07
	.byte	$08
	.byte	$0D
	.byte	$50
	.byte	$50
	.byte	$50
	.byte	$50
	.byte	$50
	.byte	$AC
	.byte	$50
	.byte	$50
	.byte	$58
	.byte	$59
	.byte	$3A
	.byte	$3B
	.byte	$03
	.byte	$10
	.byte	$3C
	.byte	$10
	.byte	$AD
	.byte	$8E
	.byte	$8F
	.byte	$50
	.byte	$50
	.byte	$0E
	.byte	$3E
	.byte	$04
	.byte	$04
	.byte	$0C
	.byte	$10
	.byte	$3C
	.byte	$10
	.byte	$11
	.byte	$10
	.byte	$10
	.byte	$0E
	.byte	$09
	.byte	$0C
	.byte	$50
	.byte	$50
	.byte	$43
	.byte	$3D
	.byte	$3B
	.byte	$01
	.byte	$3C
	.byte	$11
	.byte	$10
	.byte	$10
	.byte	$10
	.byte	$03
	.byte	$01
	.byte	$3C
	.byte	$10
	.byte	$03
	.byte	$50
	.byte	$50
	.byte	$50
	.byte	$3D
	.byte	$3C
	.byte	$03
	.byte	$3A
	.byte	$3B
	.byte	$10
	.byte	$10
	.byte	$3C
	.byte	$3C
	.byte	$03
	.byte	$10
	.byte	$00
	.byte	$01
_level2_1:
	.byte	$DD
	.byte	$DC
	.byte	$DC
	.byte	$DE
	.byte	$50
	.byte	$50
	.byte	$50
	.byte	$50
	.byte	$50
	.byte	$50
	.byte	$50
	.byte	$DD
	.byte	$DC
	.byte	$DC
	.byte	$DE
	.byte	$50
	.byte	$50
	.byte	$50
	.byte	$50
	.byte	$50
	.byte	$50
	.byte	$50
	.byte	$50
	.byte	$50
	.byte	$50
	.byte	$50
	.byte	$50
	.byte	$50
	.byte	$50
	.byte	$50
	.byte	$50
	.byte	$50
	.byte	$50
	.byte	$50
	.byte	$50
	.byte	$50
	.byte	$50
	.byte	$50
	.byte	$DD
	.byte	$DC
	.byte	$DC
	.byte	$DC
	.byte	$DE
	.byte	$50
	.byte	$50
	.byte	$50
	.byte	$50
	.byte	$50
	.byte	$50
	.byte	$50
	.byte	$50
	.byte	$50
	.byte	$50
	.byte	$50
	.byte	$50
	.byte	$50
	.byte	$50
	.byte	$50
	.byte	$50
	.byte	$50
	.byte	$50
	.byte	$50
	.byte	$50
	.byte	$50
	.byte	$DE
	.byte	$50
	.byte	$50
	.byte	$50
	.byte	$50
	.byte	$50
	.byte	$50
	.byte	$50
	.byte	$50
	.byte	$50
	.byte	$50
	.byte	$50
	.byte	$50
	.byte	$50
	.byte	$50
	.byte	$50
	.byte	$50
	.byte	$50
	.byte	$50
	.byte	$50
	.byte	$50
	.byte	$50
	.byte	$50
	.byte	$50
	.byte	$50
	.byte	$50
	.byte	$50
	.byte	$50
	.byte	$DD
	.byte	$DC
	.byte	$DE
	.byte	$50
	.byte	$50
	.byte	$DD
	.byte	$DC
	.byte	$DC
	.byte	$DC
	.byte	$DC
	.byte	$DE
	.byte	$50
	.byte	$50
	.byte	$50
	.byte	$50
	.byte	$50
	.byte	$50
	.byte	$50
	.byte	$50
	.byte	$50
	.byte	$50
	.byte	$50
	.byte	$50
	.byte	$50
	.byte	$50
	.byte	$50
	.byte	$50
	.byte	$50
	.byte	$50
	.byte	$50
	.byte	$50
	.byte	$50
	.byte	$50
	.byte	$50
	.byte	$50
	.byte	$50
	.byte	$50
	.byte	$50
	.byte	$50
	.byte	$50
	.byte	$50
	.byte	$50
	.byte	$50
	.byte	$50
	.byte	$50
	.byte	$50
	.byte	$50
	.byte	$50
	.byte	$50
	.byte	$50
	.byte	$50
	.byte	$50
	.byte	$50
	.byte	$50
	.byte	$50
	.byte	$50
	.byte	$50
	.byte	$50
	.byte	$50
	.byte	$50
	.byte	$50
	.byte	$AC
	.byte	$50
	.byte	$50
	.byte	$50
	.byte	$50
	.byte	$50
	.byte	$58
	.byte	$8E
	.byte	$E2
	.byte	$50
	.byte	$50
	.byte	$AC
	.byte	$50
	.byte	$58
	.byte	$58
	.byte	$8E
	.byte	$0E
	.byte	$0D
	.byte	$E2
	.byte	$58
	.byte	$0F
	.byte	$0C
	.byte	$51
	.byte	$CE
	.byte	$CD
	.byte	$0E
	.byte	$0B
	.byte	$05
	.byte	$0D
	.byte	$CE
	.byte	$CD
	.byte	$51
	.byte	$11
	.byte	$10
	.byte	$CD
	.byte	$51
	.byte	$3C
	.byte	$12
	.byte	$CB
	.byte	$C9
	.byte	$C9
	.byte	$3A
	.byte	$3B
	.byte	$14
	.byte	$CC
	.byte	$C9
	.byte	$C9
	.byte	$CC
	.byte	$CB
	.byte	$CC
	.byte	$C9
	.byte	$CC
	.byte	$CB
	.byte	$CC
	.byte	$C9
	.byte	$AF
	.byte	$C9
	.byte	$CB
	.byte	$CA
	.byte	$CC
	.byte	$C9
	.byte	$C9
	.byte	$C9
	.byte	$C9
	.byte	$C9
	.byte	$C9
	.byte	$C9
	.byte	$C9
	.byte	$C9
	.byte	$C9
	.byte	$BF
	.byte	$3F
	.byte	$3F
	.byte	$3F
	.byte	$3F
	.byte	$3F
	.byte	$3F
	.byte	$3F
	.byte	$3F
	.byte	$3F
	.byte	$3F
	.byte	$3F
	.byte	$3F
	.byte	$3F
	.byte	$3F
	.byte	$3F
	.byte	$3F
_level2_2:
	.byte	$50
	.byte	$50
	.byte	$50
	.byte	$50
	.byte	$50
	.byte	$50
	.byte	$50
	.byte	$50
	.byte	$50
	.byte	$50
	.byte	$50
	.byte	$50
	.byte	$50
	.byte	$50
	.byte	$DD
	.byte	$DC
	.byte	$50
	.byte	$50
	.byte	$50
	.byte	$50
	.byte	$50
	.byte	$50
	.byte	$DD
	.byte	$DC
	.byte	$DE
	.byte	$50
	.byte	$50
	.byte	$50
	.byte	$50
	.byte	$50
	.byte	$50
	.byte	$50
	.byte	$50
	.byte	$50
	.byte	$50
	.byte	$50
	.byte	$50
	.byte	$50
	.byte	$50
	.byte	$50
	.byte	$50
	.byte	$50
	.byte	$50
	.byte	$50
	.byte	$50
	.byte	$50
	.byte	$50
	.byte	$50
	.byte	$50
	.byte	$50
	.byte	$50
	.byte	$50
	.byte	$50
	.byte	$50
	.byte	$50
	.byte	$50
	.byte	$50
	.byte	$50
	.byte	$50
	.byte	$DD
	.byte	$DC
	.byte	$DC
	.byte	$DC
	.byte	$DE
	.byte	$50
	.byte	$50
	.byte	$DD
	.byte	$DC
	.byte	$DC
	.byte	$DE
	.byte	$50
	.byte	$50
	.byte	$50
	.byte	$50
	.byte	$50
	.byte	$50
	.byte	$50
	.byte	$50
	.byte	$50
	.byte	$50
	.byte	$50
	.byte	$50
	.byte	$50
	.byte	$50
	.byte	$50
	.byte	$50
	.byte	$95
	.byte	$99
	.byte	$7B
	.byte	$50
	.byte	$50
	.byte	$50
	.byte	$50
	.byte	$50
	.byte	$50
	.byte	$50
	.byte	$50
	.byte	$50
	.byte	$50
	.byte	$50
	.byte	$AC
	.byte	$50
	.byte	$7A
	.byte	$8D
	.byte	$7D
	.byte	$50
	.byte	$50
	.byte	$50
	.byte	$50
	.byte	$50
	.byte	$50
	.byte	$50
	.byte	$50
	.byte	$50
	.byte	$50
	.byte	$0E
	.byte	$06
	.byte	$07
	.byte	$08
	.byte	$09
	.byte	$0D
	.byte	$50
	.byte	$50
	.byte	$50
	.byte	$50
	.byte	$50
	.byte	$50
	.byte	$50
	.byte	$50
	.byte	$50
	.byte	$8E
	.byte	$10
	.byte	$02
	.byte	$00
	.byte	$01
	.byte	$3C
	.byte	$11
	.byte	$50
	.byte	$50
	.byte	$50
	.byte	$50
	.byte	$50
	.byte	$50
	.byte	$50
	.byte	$8E
	.byte	$0E
	.byte	$0C
	.byte	$10
	.byte	$3C
	.byte	$02
	.byte	$01
	.byte	$00
	.byte	$01
	.byte	$E2
	.byte	$50
	.byte	$50
	.byte	$50
	.byte	$AC
	.byte	$50
	.byte	$50
	.byte	$51
	.byte	$CE
	.byte	$CD
	.byte	$1A
	.byte	$10
	.byte	$10
	.byte	$03
	.byte	$00
	.byte	$10
	.byte	$C8
	.byte	$E3
	.byte	$8E
	.byte	$0E
	.byte	$05
	.byte	$08
	.byte	$0C
	.byte	$C9
	.byte	$C9
	.byte	$C9
	.byte	$CD
	.byte	$03
	.byte	$3A
	.byte	$3B
	.byte	$02
	.byte	$3C
	.byte	$CB
	.byte	$CD
	.byte	$C8
	.byte	$11
	.byte	$02
	.byte	$10
	.byte	$12
	.byte	$C9
	.byte	$C9
	.byte	$C9
	.byte	$C9
	.byte	$01
	.byte	$10
	.byte	$3C
	.byte	$00
	.byte	$01
	.byte	$C9
	.byte	$C9
	.byte	$C9
	.byte	$CB
	.byte	$CA
	.byte	$CA
	.byte	$CA
	.byte	$CF
	.byte	$0E
	.byte	$05
	.byte	$0C
	.byte	$03
	.byte	$00
	.byte	$01
	.byte	$02
	.byte	$03
	.byte	$CF
	.byte	$C9
	.byte	$C9
	.byte	$C9
	.byte	$C9
	.byte	$C9
	.byte	$C9
	.byte	$3F
	.byte	$10
	.byte	$03
	.byte	$00
	.byte	$01
	.byte	$02
	.byte	$3A
	.byte	$3B
	.byte	$01
	.byte	$3F
	.byte	$3F
	.byte	$3F
	.byte	$3F
	.byte	$3F
	.byte	$3F
	.byte	$3F
_level2_3:
	.byte	$DC
	.byte	$DE
	.byte	$50
	.byte	$50
	.byte	$50
	.byte	$50
	.byte	$50
	.byte	$50
	.byte	$50
	.byte	$50
	.byte	$50
	.byte	$50
	.byte	$DD
	.byte	$DC
	.byte	$DC
	.byte	$DC
	.byte	$50
	.byte	$50
	.byte	$50
	.byte	$50
	.byte	$50
	.byte	$50
	.byte	$50
	.byte	$50
	.byte	$50
	.byte	$50
	.byte	$50
	.byte	$50
	.byte	$50
	.byte	$50
	.byte	$50
	.byte	$50
	.byte	$50
	.byte	$50
	.byte	$50
	.byte	$DD
	.byte	$DC
	.byte	$DC
	.byte	$DC
	.byte	$DE
	.byte	$50
	.byte	$50
	.byte	$50
	.byte	$50
	.byte	$50
	.byte	$50
	.byte	$50
	.byte	$50
	.byte	$50
	.byte	$50
	.byte	$50
	.byte	$50
	.byte	$50
	.byte	$50
	.byte	$50
	.byte	$50
	.byte	$50
	.byte	$50
	.byte	$50
	.byte	$50
	.byte	$50
	.byte	$50
	.byte	$DD
	.byte	$DC
	.byte	$50
	.byte	$50
	.byte	$50
	.byte	$50
	.byte	$50
	.byte	$50
	.byte	$50
	.byte	$50
	.byte	$50
	.byte	$50
	.byte	$50
	.byte	$50
	.byte	$50
	.byte	$50
	.byte	$50
	.byte	$50
	.byte	$50
	.byte	$50
	.byte	$50
	.byte	$50
	.byte	$50
	.byte	$50
	.byte	$50
	.byte	$DD
	.byte	$DC
	.byte	$DC
	.byte	$DC
	.byte	$DE
	.byte	$50
	.byte	$50
	.byte	$50
	.byte	$50
	.byte	$50
	.byte	$DD
	.byte	$DC
	.byte	$DE
	.byte	$50
	.byte	$50
	.byte	$50
	.byte	$50
	.byte	$50
	.byte	$50
	.byte	$50
	.byte	$50
	.byte	$50
	.byte	$50
	.byte	$50
	.byte	$50
	.byte	$50
	.byte	$50
	.byte	$50
	.byte	$50
	.byte	$50
	.byte	$50
	.byte	$50
	.byte	$50
	.byte	$50
	.byte	$50
	.byte	$50
	.byte	$50
	.byte	$50
	.byte	$50
	.byte	$50
	.byte	$50
	.byte	$50
	.byte	$50
	.byte	$50
	.byte	$50
	.byte	$50
	.byte	$50
	.byte	$50
	.byte	$50
	.byte	$50
	.byte	$50
	.byte	$50
	.byte	$50
	.byte	$50
	.byte	$50
	.byte	$50
	.byte	$50
	.byte	$50
	.byte	$50
	.byte	$50
	.byte	$50
	.byte	$50
	.byte	$50
	.byte	$50
	.byte	$50
	.byte	$50
	.byte	$50
	.byte	$50
	.byte	$DD
	.byte	$DC
	.byte	$DC
	.byte	$DE
	.byte	$50
	.byte	$50
	.byte	$50
	.byte	$50
	.byte	$50
	.byte	$50
	.byte	$50
	.byte	$50
	.byte	$50
	.byte	$50
	.byte	$50
	.byte	$50
	.byte	$50
	.byte	$50
	.byte	$50
	.byte	$50
	.byte	$50
	.byte	$E1
	.byte	$E2
	.byte	$58
	.byte	$50
	.byte	$50
	.byte	$50
	.byte	$50
	.byte	$50
	.byte	$50
	.byte	$50
	.byte	$50
	.byte	$50
	.byte	$50
	.byte	$50
	.byte	$50
	.byte	$50
	.byte	$CD
	.byte	$C8
	.byte	$C8
	.byte	$E4
	.byte	$E2
	.byte	$AC
	.byte	$AD
	.byte	$50
	.byte	$50
	.byte	$50
	.byte	$AC
	.byte	$50
	.byte	$50
	.byte	$50
	.byte	$50
	.byte	$50
	.byte	$C9
	.byte	$CB
	.byte	$CD
	.byte	$0F
	.byte	$06
	.byte	$07
	.byte	$06
	.byte	$08
	.byte	$07
	.byte	$05
	.byte	$08
	.byte	$3E
	.byte	$50
	.byte	$50
	.byte	$50
	.byte	$50
	.byte	$3F
	.byte	$3F
	.byte	$3F
	.byte	$10
	.byte	$03
	.byte	$10
	.byte	$03
	.byte	$3A
	.byte	$3B
	.byte	$02
	.byte	$10
	.byte	$3D
	.byte	$50
	.byte	$50
	.byte	$50
	.byte	$50
_level3_0:
	.byte	$10
	.byte	$3C
	.byte	$01
	.byte	$00
	.byte	$01
	.byte	$3C
	.byte	$10
	.byte	$00
	.byte	$01
	.byte	$00
	.byte	$01
	.byte	$3D
	.byte	$E3
	.byte	$50
	.byte	$50
	.byte	$50
	.byte	$3A
	.byte	$3B
	.byte	$03
	.byte	$02
	.byte	$03
	.byte	$3A
	.byte	$3B
	.byte	$02
	.byte	$03
	.byte	$02
	.byte	$03
	.byte	$3D
	.byte	$C8
	.byte	$E4
	.byte	$E2
	.byte	$50
	.byte	$00
	.byte	$12
	.byte	$00
	.byte	$12
	.byte	$3C
	.byte	$12
	.byte	$11
	.byte	$01
	.byte	$10
	.byte	$00
	.byte	$01
	.byte	$3D
	.byte	$CB
	.byte	$C8
	.byte	$C8
	.byte	$E4
	.byte	$00
	.byte	$01
	.byte	$13
	.byte	$16
	.byte	$15
	.byte	$CA
	.byte	$CA
	.byte	$51
	.byte	$1B
	.byte	$02
	.byte	$14
	.byte	$3D
	.byte	$C9
	.byte	$CC
	.byte	$0E
	.byte	$0D
	.byte	$02
	.byte	$03
	.byte	$15
	.byte	$CC
	.byte	$C9
	.byte	$C9
	.byte	$C9
	.byte	$C9
	.byte	$CB
	.byte	$CD
	.byte	$CE
	.byte	$C9
	.byte	$C9
	.byte	$C9
	.byte	$3A
	.byte	$3B
	.byte	$00
	.byte	$11
	.byte	$CC
	.byte	$C9
	.byte	$BF
	.byte	$C3
	.byte	$AF
	.byte	$C9
	.byte	$C9
	.byte	$C9
	.byte	$C9
	.byte	$C9
	.byte	$C9
	.byte	$C9
	.byte	$10
	.byte	$12
	.byte	$02
	.byte	$10
	.byte	$C9
	.byte	$C9
	.byte	$C1
	.byte	$C0
	.byte	$C2
	.byte	$C9
	.byte	$C9
	.byte	$C9
	.byte	$C9
	.byte	$C9
	.byte	$C9
	.byte	$C9
	.byte	$00
	.byte	$01
	.byte	$00
	.byte	$01
	.byte	$C9
	.byte	$C9
	.byte	$CB
	.byte	$C4
	.byte	$CC
	.byte	$C9
	.byte	$C9
	.byte	$C9
	.byte	$BF
	.byte	$C9
	.byte	$0E
	.byte	$0C
	.byte	$02
	.byte	$03
	.byte	$02
	.byte	$03
	.byte	$C9
	.byte	$C9
	.byte	$C9
	.byte	$C9
	.byte	$C9
	.byte	$C9
	.byte	$C9
	.byte	$BF
	.byte	$51
	.byte	$51
	.byte	$3A
	.byte	$3B
	.byte	$01
	.byte	$10
	.byte	$3C
	.byte	$01
	.byte	$C9
	.byte	$3E
	.byte	$0E
	.byte	$06
	.byte	$06
	.byte	$07
	.byte	$08
	.byte	$09
	.byte	$0A
	.byte	$0D
	.byte	$10
	.byte	$01
	.byte	$02
	.byte	$01
	.byte	$10
	.byte	$03
	.byte	$C9
	.byte	$3D
	.byte	$10
	.byte	$03
	.byte	$02
	.byte	$3C
	.byte	$01
	.byte	$3C
	.byte	$10
	.byte	$3A
	.byte	$3B
	.byte	$03
	.byte	$00
	.byte	$03
	.byte	$01
	.byte	$14
	.byte	$C9
	.byte	$3D
	.byte	$CD
	.byte	$CA
	.byte	$19
	.byte	$16
	.byte	$17
	.byte	$11
	.byte	$10
	.byte	$12
	.byte	$11
	.byte	$01
	.byte	$17
	.byte	$19
	.byte	$03
	.byte	$15
	.byte	$C9
	.byte	$3D
	.byte	$C9
	.byte	$C9
	.byte	$CB
	.byte	$C9
	.byte	$CD
	.byte	$51
	.byte	$1A
	.byte	$14
	.byte	$51
	.byte	$51
	.byte	$CC
	.byte	$CB
	.byte	$10
	.byte	$CC
	.byte	$C9
	.byte	$3D
	.byte	$C9
	.byte	$C9
	.byte	$C9
	.byte	$C9
	.byte	$C9
	.byte	$CB
	.byte	$CD
	.byte	$CE
	.byte	$C9
	.byte	$C9
	.byte	$C9
	.byte	$C9
	.byte	$3C
	.byte	$C9
	.byte	$C9
	.byte	$3D
	.byte	$C9
	.byte	$C9
	.byte	$C9
	.byte	$C9
	.byte	$C9
	.byte	$C9
	.byte	$C9
	.byte	$C9
	.byte	$C9
	.byte	$C9
	.byte	$C9
	.byte	$C9
_level4_0:
	.byte	$3C
	.byte	$C9
	.byte	$C9
	.byte	$3D
	.byte	$C9
	.byte	$C9
	.byte	$C9
	.byte	$C9
	.byte	$CB
	.byte	$51
	.byte	$19
	.byte	$10
	.byte	$00
	.byte	$01
	.byte	$10
	.byte	$12
	.byte	$10
	.byte	$C9
	.byte	$C9
	.byte	$3D
	.byte	$C9
	.byte	$C9
	.byte	$C9
	.byte	$C9
	.byte	$C9
	.byte	$CB
	.byte	$CD
	.byte	$19
	.byte	$02
	.byte	$03
	.byte	$11
	.byte	$10
	.byte	$01
	.byte	$AF
	.byte	$AE
	.byte	$3D
	.byte	$C9
	.byte	$C9
	.byte	$C9
	.byte	$C9
	.byte	$C9
	.byte	$C9
	.byte	$C9
	.byte	$CD
	.byte	$16
	.byte	$10
	.byte	$10
	.byte	$3A
	.byte	$02
	.byte	$0F
	.byte	$0D
	.byte	$3D
	.byte	$C9
	.byte	$C9
	.byte	$C9
	.byte	$C9
	.byte	$C9
	.byte	$C9
	.byte	$C9
	.byte	$C9
	.byte	$CD
	.byte	$19
	.byte	$18
	.byte	$10
	.byte	$12
	.byte	$10
	.byte	$3C
	.byte	$3D
	.byte	$AF
	.byte	$C9
	.byte	$C9
	.byte	$C9
	.byte	$C9
	.byte	$C9
	.byte	$C9
	.byte	$C9
	.byte	$C9
	.byte	$CB
	.byte	$51
	.byte	$1A
	.byte	$00
	.byte	$01
	.byte	$11
	.byte	$3D
	.byte	$51
	.byte	$AE
	.byte	$AF
	.byte	$C9
	.byte	$C9
	.byte	$C9
	.byte	$C9
	.byte	$C9
	.byte	$C9
	.byte	$C9
	.byte	$CB
	.byte	$CD
	.byte	$02
	.byte	$03
	.byte	$00
	.byte	$0E
	.byte	$0B
	.byte	$06
	.byte	$05
	.byte	$0D
	.byte	$C9
	.byte	$C9
	.byte	$C9
	.byte	$C9
	.byte	$C9
	.byte	$C9
	.byte	$C9
	.byte	$C9
	.byte	$00
	.byte	$01
	.byte	$02
	.byte	$03
	.byte	$10
	.byte	$02
	.byte	$02
	.byte	$10
	.byte	$C9
	.byte	$C9
	.byte	$BF
	.byte	$51
	.byte	$AE
	.byte	$AF
	.byte	$C9
	.byte	$C9
	.byte	$02
	.byte	$03
	.byte	$00
	.byte	$01
	.byte	$00
	.byte	$10
	.byte	$10
	.byte	$11
	.byte	$C9
	.byte	$BF
	.byte	$51
	.byte	$51
	.byte	$51
	.byte	$51
	.byte	$AF
	.byte	$C9
	.byte	$00
	.byte	$01
	.byte	$02
	.byte	$03
	.byte	$02
	.byte	$00
	.byte	$01
	.byte	$01
	.byte	$0E
	.byte	$07
	.byte	$08
	.byte	$09
	.byte	$0A
	.byte	$0B
	.byte	$0C
	.byte	$C9
	.byte	$26
	.byte	$03
	.byte	$00
	.byte	$01
	.byte	$10
	.byte	$02
	.byte	$03
	.byte	$02
	.byte	$3A
	.byte	$3B
	.byte	$01
	.byte	$00
	.byte	$12
	.byte	$01
	.byte	$11
	.byte	$C9
	.byte	$20
	.byte	$26
	.byte	$02
	.byte	$03
	.byte	$12
	.byte	$10
	.byte	$00
	.byte	$3A
	.byte	$3B
	.byte	$10
	.byte	$03
	.byte	$02
	.byte	$10
	.byte	$03
	.byte	$3C
	.byte	$C9
	.byte	$20
	.byte	$20
	.byte	$21
	.byte	$26
	.byte	$10
	.byte	$11
	.byte	$10
	.byte	$12
	.byte	$11
	.byte	$10
	.byte	$11
	.byte	$01
	.byte	$10
	.byte	$3C
	.byte	$01
	.byte	$CF
	.byte	$20
	.byte	$20
	.byte	$20
	.byte	$20
	.byte	$21
	.byte	$26
	.byte	$11
	.byte	$10
	.byte	$00
	.byte	$01
	.byte	$10
	.byte	$10
	.byte	$00
	.byte	$01
	.byte	$10
	.byte	$0E
	.byte	$20
	.byte	$20
	.byte	$20
	.byte	$20
	.byte	$20
	.byte	$20
	.byte	$21
	.byte	$21
	.byte	$26
	.byte	$3A
	.byte	$3B
	.byte	$01
	.byte	$02
	.byte	$03
	.byte	$00
	.byte	$01
_level4_1:
	.byte	$10
	.byte	$11
	.byte	$1E
	.byte	$50
	.byte	$50
	.byte	$50
	.byte	$50
	.byte	$50
	.byte	$50
	.byte	$50
	.byte	$50
	.byte	$50
	.byte	$50
	.byte	$50
	.byte	$50
	.byte	$50
	.byte	$3C
	.byte	$00
	.byte	$01
	.byte	$1F
	.byte	$50
	.byte	$50
	.byte	$50
	.byte	$50
	.byte	$50
	.byte	$50
	.byte	$50
	.byte	$50
	.byte	$50
	.byte	$50
	.byte	$50
	.byte	$50
	.byte	$3B
	.byte	$02
	.byte	$03
	.byte	$1E
	.byte	$50
	.byte	$50
	.byte	$DD
	.byte	$DC
	.byte	$DC
	.byte	$DE
	.byte	$50
	.byte	$50
	.byte	$50
	.byte	$50
	.byte	$50
	.byte	$50
	.byte	$00
	.byte	$01
	.byte	$00
	.byte	$01
	.byte	$1F
	.byte	$50
	.byte	$50
	.byte	$50
	.byte	$50
	.byte	$50
	.byte	$50
	.byte	$50
	.byte	$50
	.byte	$50
	.byte	$50
	.byte	$50
	.byte	$02
	.byte	$03
	.byte	$02
	.byte	$03
	.byte	$1E
	.byte	$1F
	.byte	$50
	.byte	$50
	.byte	$50
	.byte	$50
	.byte	$50
	.byte	$DD
	.byte	$DC
	.byte	$DE
	.byte	$50
	.byte	$50
	.byte	$1A
	.byte	$10
	.byte	$10
	.byte	$00
	.byte	$01
	.byte	$1E
	.byte	$50
	.byte	$50
	.byte	$50
	.byte	$50
	.byte	$50
	.byte	$50
	.byte	$C5
	.byte	$D1
	.byte	$D3
	.byte	$E1
	.byte	$CD
	.byte	$51
	.byte	$1A
	.byte	$02
	.byte	$03
	.byte	$11
	.byte	$50
	.byte	$50
	.byte	$50
	.byte	$50
	.byte	$50
	.byte	$D0
	.byte	$D5
	.byte	$D4
	.byte	$D7
	.byte	$ED
	.byte	$C9
	.byte	$CB
	.byte	$51
	.byte	$1A
	.byte	$11
	.byte	$14
	.byte	$E3
	.byte	$50
	.byte	$50
	.byte	$D1
	.byte	$D2
	.byte	$D5
	.byte	$D6
	.byte	$D4
	.byte	$D9
	.byte	$DB
	.byte	$C9
	.byte	$C9
	.byte	$C9
	.byte	$CD
	.byte	$CA
	.byte	$CD
	.byte	$C8
	.byte	$E4
	.byte	$E5
	.byte	$D4
	.byte	$D4
	.byte	$D6
	.byte	$D6
	.byte	$D6
	.byte	$D4
	.byte	$DA
	.byte	$C9
	.byte	$C9
	.byte	$C9
	.byte	$C9
	.byte	$CB
	.byte	$CD
	.byte	$CF
	.byte	$C8
	.byte	$C8
	.byte	$E7
	.byte	$DF
	.byte	$D6
	.byte	$D6
	.byte	$D6
	.byte	$D6
	.byte	$D8
	.byte	$C9
	.byte	$C9
	.byte	$C9
	.byte	$C9
	.byte	$C9
	.byte	$C9
	.byte	$CA
	.byte	$CD
	.byte	$AE
	.byte	$C8
	.byte	$EB
	.byte	$A4
	.byte	$B3
	.byte	$BC
	.byte	$B0
	.byte	$BC
	.byte	$C9
	.byte	$C9
	.byte	$C9
	.byte	$C9
	.byte	$C9
	.byte	$BF
	.byte	$C9
	.byte	$C9
	.byte	$CB
	.byte	$51
	.byte	$CD
	.byte	$C8
	.byte	$A4
	.byte	$A1
	.byte	$BE
	.byte	$7E
	.byte	$C9
	.byte	$C9
	.byte	$C9
	.byte	$BF
	.byte	$51
	.byte	$51
	.byte	$AF
	.byte	$C9
	.byte	$C9
	.byte	$CB
	.byte	$CD
	.byte	$CD
	.byte	$A3
	.byte	$A2
	.byte	$A8
	.byte	$5C
	.byte	$05
	.byte	$04
	.byte	$0A
	.byte	$0B
	.byte	$07
	.byte	$05
	.byte	$04
	.byte	$05
	.byte	$07
	.byte	$09
	.byte	$05
	.byte	$0D
	.byte	$35
	.byte	$33
	.byte	$33
	.byte	$34
	.byte	$02
	.byte	$3C
	.byte	$02
	.byte	$01
	.byte	$10
	.byte	$02
	.byte	$00
	.byte	$02
	.byte	$10
	.byte	$00
	.byte	$12
	.byte	$37
	.byte	$37
	.byte	$37
	.byte	$37
	.byte	$37
_level4_2:
	.byte	$50
	.byte	$50
	.byte	$50
	.byte	$50
	.byte	$50
	.byte	$50
	.byte	$50
	.byte	$50
	.byte	$50
	.byte	$50
	.byte	$50
	.byte	$50
	.byte	$50
	.byte	$50
	.byte	$50
	.byte	$86
	.byte	$DD
	.byte	$DC
	.byte	$DE
	.byte	$50
	.byte	$50
	.byte	$50
	.byte	$50
	.byte	$50
	.byte	$50
	.byte	$50
	.byte	$50
	.byte	$50
	.byte	$50
	.byte	$50
	.byte	$86
	.byte	$93
	.byte	$50
	.byte	$50
	.byte	$50
	.byte	$50
	.byte	$50
	.byte	$50
	.byte	$50
	.byte	$50
	.byte	$50
	.byte	$50
	.byte	$DD
	.byte	$DC
	.byte	$DC
	.byte	$DE
	.byte	$91
	.byte	$94
	.byte	$50
	.byte	$50
	.byte	$50
	.byte	$50
	.byte	$50
	.byte	$DD
	.byte	$DC
	.byte	$DC
	.byte	$DC
	.byte	$DE
	.byte	$50
	.byte	$50
	.byte	$50
	.byte	$50
	.byte	$91
	.byte	$89
	.byte	$50
	.byte	$50
	.byte	$50
	.byte	$50
	.byte	$50
	.byte	$50
	.byte	$50
	.byte	$50
	.byte	$50
	.byte	$50
	.byte	$50
	.byte	$50
	.byte	$50
	.byte	$50
	.byte	$91
	.byte	$92
	.byte	$E2
	.byte	$50
	.byte	$50
	.byte	$DD
	.byte	$DC
	.byte	$DE
	.byte	$50
	.byte	$50
	.byte	$50
	.byte	$50
	.byte	$50
	.byte	$50
	.byte	$50
	.byte	$50
	.byte	$2C
	.byte	$93
	.byte	$EB
	.byte	$E3
	.byte	$50
	.byte	$50
	.byte	$50
	.byte	$50
	.byte	$50
	.byte	$50
	.byte	$50
	.byte	$50
	.byte	$50
	.byte	$50
	.byte	$50
	.byte	$50
	.byte	$49
	.byte	$29
	.byte	$EF
	.byte	$EB
	.byte	$E3
	.byte	$50
	.byte	$50
	.byte	$D1
	.byte	$D3
	.byte	$E3
	.byte	$50
	.byte	$50
	.byte	$50
	.byte	$50
	.byte	$50
	.byte	$50
	.byte	$50
	.byte	$49
	.byte	$DB
	.byte	$ED
	.byte	$EB
	.byte	$E4
	.byte	$E5
	.byte	$D5
	.byte	$D9
	.byte	$EF
	.byte	$E3
	.byte	$D1
	.byte	$D3
	.byte	$E4
	.byte	$E2
	.byte	$50
	.byte	$50
	.byte	$66
	.byte	$DB
	.byte	$DB
	.byte	$EF
	.byte	$E9
	.byte	$EB
	.byte	$E7
	.byte	$DF
	.byte	$D8
	.byte	$EC
	.byte	$E7
	.byte	$DF
	.byte	$EF
	.byte	$EE
	.byte	$E3
	.byte	$50
	.byte	$58
	.byte	$BD
	.byte	$B8
	.byte	$B7
	.byte	$BD
	.byte	$BC
	.byte	$BC
	.byte	$7E
	.byte	$78
	.byte	$5F
	.byte	$BD
	.byte	$B0
	.byte	$BC
	.byte	$BC
	.byte	$A8
	.byte	$4D
	.byte	$63
	.byte	$7F
	.byte	$5F
	.byte	$B7
	.byte	$B0
	.byte	$B7
	.byte	$B0
	.byte	$5C
	.byte	$8C
	.byte	$5E
	.byte	$B7
	.byte	$B6
	.byte	$B6
	.byte	$B0
	.byte	$AB
	.byte	$4A
	.byte	$B4
	.byte	$8C
	.byte	$5E
	.byte	$AB
	.byte	$A8
	.byte	$B0
	.byte	$B8
	.byte	$A8
	.byte	$B0
	.byte	$A9
	.byte	$B0
	.byte	$A8
	.byte	$B0
	.byte	$AA
	.byte	$B7
	.byte	$B5
	.byte	$4A
	.byte	$34
	.byte	$33
	.byte	$33
	.byte	$34
	.byte	$34
	.byte	$34
	.byte	$34
	.byte	$34
	.byte	$34
	.byte	$34
	.byte	$34
	.byte	$33
	.byte	$34
	.byte	$33
	.byte	$33
	.byte	$34
	.byte	$37
	.byte	$37
	.byte	$37
	.byte	$37
	.byte	$37
	.byte	$37
	.byte	$37
	.byte	$37
	.byte	$37
	.byte	$37
	.byte	$37
	.byte	$37
	.byte	$37
	.byte	$37
	.byte	$37
	.byte	$37
_level4_3:
	.byte	$88
	.byte	$89
	.byte	$94
	.byte	$2D
	.byte	$89
	.byte	$7B
	.byte	$50
	.byte	$50
	.byte	$1D
	.byte	$1C
	.byte	$10
	.byte	$11
	.byte	$10
	.byte	$11
	.byte	$10
	.byte	$3A
	.byte	$89
	.byte	$2E
	.byte	$88
	.byte	$93
	.byte	$94
	.byte	$87
	.byte	$50
	.byte	$1D
	.byte	$1C
	.byte	$12
	.byte	$3A
	.byte	$3B
	.byte	$01
	.byte	$10
	.byte	$11
	.byte	$10
	.byte	$2D
	.byte	$93
	.byte	$89
	.byte	$2E
	.byte	$2D
	.byte	$89
	.byte	$50
	.byte	$1C
	.byte	$02
	.byte	$11
	.byte	$10
	.byte	$10
	.byte	$03
	.byte	$00
	.byte	$01
	.byte	$10
	.byte	$93
	.byte	$88
	.byte	$2D
	.byte	$92
	.byte	$2E
	.byte	$92
	.byte	$1D
	.byte	$02
	.byte	$10
	.byte	$00
	.byte	$01
	.byte	$10
	.byte	$10
	.byte	$02
	.byte	$03
	.byte	$10
	.byte	$89
	.byte	$2E
	.byte	$93
	.byte	$89
	.byte	$89
	.byte	$92
	.byte	$1C
	.byte	$10
	.byte	$10
	.byte	$02
	.byte	$03
	.byte	$00
	.byte	$01
	.byte	$10
	.byte	$10
	.byte	$3C
	.byte	$89
	.byte	$2A
	.byte	$2B
	.byte	$2C
	.byte	$90
	.byte	$2A
	.byte	$02
	.byte	$00
	.byte	$01
	.byte	$3A
	.byte	$3B
	.byte	$02
	.byte	$03
	.byte	$11
	.byte	$10
	.byte	$10
	.byte	$2F
	.byte	$46
	.byte	$6A
	.byte	$46
	.byte	$90
	.byte	$48
	.byte	$10
	.byte	$02
	.byte	$03
	.byte	$12
	.byte	$11
	.byte	$10
	.byte	$10
	.byte	$10
	.byte	$14
	.byte	$51
	.byte	$62
	.byte	$47
	.byte	$68
	.byte	$73
	.byte	$48
	.byte	$50
	.byte	$1B
	.byte	$3A
	.byte	$3B
	.byte	$3A
	.byte	$3B
	.byte	$10
	.byte	$13
	.byte	$16
	.byte	$CE
	.byte	$C9
	.byte	$61
	.byte	$67
	.byte	$68
	.byte	$70
	.byte	$77
	.byte	$50
	.byte	$9B
	.byte	$18
	.byte	$10
	.byte	$16
	.byte	$10
	.byte	$14
	.byte	$51
	.byte	$CC
	.byte	$C9
	.byte	$C9
	.byte	$61
	.byte	$58
	.byte	$68
	.byte	$70
	.byte	$58
	.byte	$58
	.byte	$58
	.byte	$C8
	.byte	$CD
	.byte	$CD
	.byte	$CD
	.byte	$CF
	.byte	$CC
	.byte	$C9
	.byte	$BF
	.byte	$C3
	.byte	$64
	.byte	$65
	.byte	$68
	.byte	$55
	.byte	$75
	.byte	$51
	.byte	$53
	.byte	$CD
	.byte	$CD
	.byte	$CF
	.byte	$CA
	.byte	$CE
	.byte	$CE
	.byte	$C9
	.byte	$C1
	.byte	$C0
	.byte	$55
	.byte	$6B
	.byte	$6C
	.byte	$6D
	.byte	$57
	.byte	$51
	.byte	$C8
	.byte	$AE
	.byte	$CF
	.byte	$CD
	.byte	$CD
	.byte	$CC
	.byte	$C9
	.byte	$C9
	.byte	$CB
	.byte	$C4
	.byte	$B4
	.byte	$55
	.byte	$51
	.byte	$53
	.byte	$57
	.byte	$57
	.byte	$53
	.byte	$C8
	.byte	$EA
	.byte	$C8
	.byte	$CB
	.byte	$C9
	.byte	$C9
	.byte	$C9
	.byte	$C9
	.byte	$C9
	.byte	$33
	.byte	$36
	.byte	$0E
	.byte	$04
	.byte	$07
	.byte	$06
	.byte	$07
	.byte	$08
	.byte	$09
	.byte	$0A
	.byte	$0B
	.byte	$04
	.byte	$09
	.byte	$06
	.byte	$07
	.byte	$08
	.byte	$37
	.byte	$37
	.byte	$37
	.byte	$10
	.byte	$10
	.byte	$03
	.byte	$12
	.byte	$10
	.byte	$12
	.byte	$10
	.byte	$11
	.byte	$12
	.byte	$10
	.byte	$03
	.byte	$10
	.byte	$11
_level4_4:
	.byte	$3B
	.byte	$00
	.byte	$3A
	.byte	$3B
	.byte	$01
	.byte	$00
	.byte	$01
	.byte	$10
	.byte	$00
	.byte	$01
	.byte	$10
	.byte	$00
	.byte	$3D
	.byte	$00
	.byte	$3A
	.byte	$3B
	.byte	$11
	.byte	$02
	.byte	$10
	.byte	$13
	.byte	$03
	.byte	$02
	.byte	$03
	.byte	$18
	.byte	$02
	.byte	$03
	.byte	$10
	.byte	$02
	.byte	$3D
	.byte	$02
	.byte	$3C
	.byte	$03
	.byte	$3C
	.byte	$01
	.byte	$14
	.byte	$51
	.byte	$19
	.byte	$51
	.byte	$51
	.byte	$CA
	.byte	$51
	.byte	$51
	.byte	$16
	.byte	$1A
	.byte	$3D
	.byte	$14
	.byte	$00
	.byte	$01
	.byte	$10
	.byte	$10
	.byte	$51
	.byte	$CC
	.byte	$C9
	.byte	$C9
	.byte	$BF
	.byte	$C3
	.byte	$AF
	.byte	$C9
	.byte	$C9
	.byte	$CD
	.byte	$3D
	.byte	$CD
	.byte	$1B
	.byte	$10
	.byte	$10
	.byte	$51
	.byte	$CC
	.byte	$C9
	.byte	$C9
	.byte	$C9
	.byte	$C1
	.byte	$C0
	.byte	$C2
	.byte	$C9
	.byte	$C9
	.byte	$C9
	.byte	$3D
	.byte	$C9
	.byte	$CD
	.byte	$01
	.byte	$18
	.byte	$CE
	.byte	$C9
	.byte	$C9
	.byte	$C9
	.byte	$C9
	.byte	$CB
	.byte	$C4
	.byte	$CC
	.byte	$C9
	.byte	$C9
	.byte	$C9
	.byte	$3D
	.byte	$C9
	.byte	$C9
	.byte	$03
	.byte	$CC
	.byte	$C9
	.byte	$BF
	.byte	$51
	.byte	$CF
	.byte	$C9
	.byte	$C9
	.byte	$C9
	.byte	$C9
	.byte	$C9
	.byte	$C9
	.byte	$C9
	.byte	$3D
	.byte	$C9
	.byte	$12
	.byte	$01
	.byte	$C9
	.byte	$C9
	.byte	$0E
	.byte	$07
	.byte	$08
	.byte	$06
	.byte	$0D
	.byte	$C9
	.byte	$C9
	.byte	$3E
	.byte	$0E
	.byte	$09
	.byte	$04
	.byte	$0D
	.byte	$10
	.byte	$01
	.byte	$C9
	.byte	$C9
	.byte	$CB
	.byte	$CA
	.byte	$CA
	.byte	$CA
	.byte	$CC
	.byte	$C9
	.byte	$C9
	.byte	$3D
	.byte	$12
	.byte	$1B
	.byte	$10
	.byte	$02
	.byte	$00
	.byte	$03
	.byte	$AF
	.byte	$C9
	.byte	$C9
	.byte	$C9
	.byte	$C9
	.byte	$C9
	.byte	$C9
	.byte	$C9
	.byte	$C9
	.byte	$3D
	.byte	$CB
	.byte	$51
	.byte	$1A
	.byte	$01
	.byte	$00
	.byte	$25
	.byte	$C2
	.byte	$C9
	.byte	$C9
	.byte	$C9
	.byte	$C9
	.byte	$C9
	.byte	$C9
	.byte	$C9
	.byte	$C9
	.byte	$3D
	.byte	$C9
	.byte	$CB
	.byte	$51
	.byte	$1A
	.byte	$25
	.byte	$20
	.byte	$CC
	.byte	$C9
	.byte	$C9
	.byte	$C9
	.byte	$C9
	.byte	$C9
	.byte	$C9
	.byte	$C9
	.byte	$C9
	.byte	$3D
	.byte	$C9
	.byte	$C9
	.byte	$CB
	.byte	$12
	.byte	$23
	.byte	$20
	.byte	$C9
	.byte	$C9
	.byte	$C9
	.byte	$C9
	.byte	$C9
	.byte	$C9
	.byte	$C9
	.byte	$C9
	.byte	$C9
	.byte	$3D
	.byte	$C9
	.byte	$C9
	.byte	$3C
	.byte	$25
	.byte	$20
	.byte	$20
	.byte	$09
	.byte	$05
	.byte	$09
	.byte	$07
	.byte	$04
	.byte	$04
	.byte	$06
	.byte	$08
	.byte	$04
	.byte	$07
	.byte	$07
	.byte	$0D
	.byte	$25
	.byte	$20
	.byte	$20
	.byte	$20
	.byte	$10
	.byte	$03
	.byte	$12
	.byte	$10
	.byte	$11
	.byte	$12
	.byte	$03
	.byte	$10
	.byte	$11
	.byte	$10
	.byte	$3C
	.byte	$25
	.byte	$20
	.byte	$20
	.byte	$20
	.byte	$20
_level5_0:
	.byte	$10
	.byte	$11
	.byte	$10
	.byte	$3D
	.byte	$10
	.byte	$10
	.byte	$3A
	.byte	$3B
	.byte	$10
	.byte	$10
	.byte	$14
	.byte	$19
	.byte	$10
	.byte	$01
	.byte	$10
	.byte	$12
	.byte	$10
	.byte	$10
	.byte	$13
	.byte	$3D
	.byte	$19
	.byte	$16
	.byte	$15
	.byte	$19
	.byte	$18
	.byte	$51
	.byte	$51
	.byte	$51
	.byte	$16
	.byte	$02
	.byte	$10
	.byte	$10
	.byte	$10
	.byte	$15
	.byte	$CE
	.byte	$3D
	.byte	$CC
	.byte	$CB
	.byte	$CC
	.byte	$CB
	.byte	$51
	.byte	$CC
	.byte	$CB
	.byte	$CD
	.byte	$51
	.byte	$51
	.byte	$01
	.byte	$3C
	.byte	$00
	.byte	$CC
	.byte	$C9
	.byte	$3D
	.byte	$C9
	.byte	$C9
	.byte	$C9
	.byte	$C9
	.byte	$C9
	.byte	$C9
	.byte	$C9
	.byte	$C9
	.byte	$C9
	.byte	$CB
	.byte	$02
	.byte	$10
	.byte	$03
	.byte	$AF
	.byte	$C9
	.byte	$3D
	.byte	$C9
	.byte	$C9
	.byte	$C9
	.byte	$C9
	.byte	$C9
	.byte	$C9
	.byte	$C9
	.byte	$C9
	.byte	$C9
	.byte	$C9
	.byte	$10
	.byte	$11
	.byte	$11
	.byte	$51
	.byte	$AF
	.byte	$C9
	.byte	$C9
	.byte	$C9
	.byte	$C9
	.byte	$C9
	.byte	$C9
	.byte	$C9
	.byte	$C9
	.byte	$C9
	.byte	$C9
	.byte	$C9
	.byte	$3C
	.byte	$10
	.byte	$10
	.byte	$0F
	.byte	$07
	.byte	$04
	.byte	$0A
	.byte	$0B
	.byte	$0C
	.byte	$C9
	.byte	$C9
	.byte	$C9
	.byte	$C9
	.byte	$BF
	.byte	$AF
	.byte	$C9
	.byte	$10
	.byte	$01
	.byte	$10
	.byte	$01
	.byte	$51
	.byte	$CA
	.byte	$CA
	.byte	$CA
	.byte	$CC
	.byte	$C9
	.byte	$C9
	.byte	$BF
	.byte	$AE
	.byte	$51
	.byte	$51
	.byte	$AF
	.byte	$3C
	.byte	$02
	.byte	$3C
	.byte	$03
	.byte	$CC
	.byte	$C9
	.byte	$C9
	.byte	$C9
	.byte	$C9
	.byte	$C9
	.byte	$C9
	.byte	$0E
	.byte	$08
	.byte	$09
	.byte	$0A
	.byte	$0C
	.byte	$3A
	.byte	$3B
	.byte	$10
	.byte	$10
	.byte	$C9
	.byte	$C9
	.byte	$C9
	.byte	$C9
	.byte	$C9
	.byte	$C9
	.byte	$C9
	.byte	$CB
	.byte	$CA
	.byte	$CA
	.byte	$CD
	.byte	$51
	.byte	$11
	.byte	$10
	.byte	$3A
	.byte	$14
	.byte	$C9
	.byte	$C9
	.byte	$0E
	.byte	$07
	.byte	$0A
	.byte	$0C
	.byte	$C9
	.byte	$C9
	.byte	$C9
	.byte	$C9
	.byte	$C9
	.byte	$CD
	.byte	$1A
	.byte	$10
	.byte	$10
	.byte	$15
	.byte	$CF
	.byte	$C9
	.byte	$CB
	.byte	$CA
	.byte	$CA
	.byte	$CC
	.byte	$C9
	.byte	$C9
	.byte	$C9
	.byte	$C9
	.byte	$C9
	.byte	$C9
	.byte	$CD
	.byte	$11
	.byte	$10
	.byte	$51
	.byte	$51
	.byte	$CF
	.byte	$AF
	.byte	$C9
	.byte	$C9
	.byte	$C9
	.byte	$C9
	.byte	$C9
	.byte	$C9
	.byte	$C9
	.byte	$C9
	.byte	$C9
	.byte	$C9
	.byte	$10
	.byte	$3C
	.byte	$0F
	.byte	$07
	.byte	$06
	.byte	$06
	.byte	$07
	.byte	$08
	.byte	$09
	.byte	$0A
	.byte	$0B
	.byte	$06
	.byte	$07
	.byte	$3E
	.byte	$04
	.byte	$0D
	.byte	$10
	.byte	$10
	.byte	$10
	.byte	$3A
	.byte	$3B
	.byte	$10
	.byte	$11
	.byte	$10
	.byte	$10
	.byte	$10
	.byte	$12
	.byte	$03
	.byte	$10
	.byte	$3D
	.byte	$10
	.byte	$3C
	.byte	$12
_level6_0:
	.byte	$02
	.byte	$00
	.byte	$3C
	.byte	$03
	.byte	$02
	.byte	$3A
	.byte	$3B
	.byte	$03
	.byte	$02
	.byte	$3C
	.byte	$10
	.byte	$02
	.byte	$03
	.byte	$3C
	.byte	$10
	.byte	$02
	.byte	$00
	.byte	$02
	.byte	$10
	.byte	$3A
	.byte	$3B
	.byte	$3C
	.byte	$11
	.byte	$03
	.byte	$14
	.byte	$18
	.byte	$19
	.byte	$16
	.byte	$10
	.byte	$03
	.byte	$3C
	.byte	$13
	.byte	$02
	.byte	$1B
	.byte	$3B
	.byte	$11
	.byte	$14
	.byte	$16
	.byte	$51
	.byte	$51
	.byte	$51
	.byte	$CA
	.byte	$CD
	.byte	$51
	.byte	$51
	.byte	$1B
	.byte	$10
	.byte	$11
	.byte	$10
	.byte	$10
	.byte	$14
	.byte	$51
	.byte	$CE
	.byte	$CA
	.byte	$C9
	.byte	$C9
	.byte	$C9
	.byte	$C9
	.byte	$C9
	.byte	$CA
	.byte	$51
	.byte	$51
	.byte	$10
	.byte	$10
	.byte	$11
	.byte	$00
	.byte	$CE
	.byte	$C9
	.byte	$C9
	.byte	$C9
	.byte	$C9
	.byte	$C9
	.byte	$C9
	.byte	$C9
	.byte	$C9
	.byte	$C9
	.byte	$CB
	.byte	$51
	.byte	$3C
	.byte	$10
	.byte	$12
	.byte	$02
	.byte	$BF
	.byte	$C3
	.byte	$AF
	.byte	$C9
	.byte	$C9
	.byte	$C9
	.byte	$C9
	.byte	$C9
	.byte	$C9
	.byte	$C9
	.byte	$C9
	.byte	$CB
	.byte	$10
	.byte	$00
	.byte	$3C
	.byte	$10
	.byte	$C1
	.byte	$C0
	.byte	$C2
	.byte	$C9
	.byte	$C9
	.byte	$C9
	.byte	$C9
	.byte	$C9
	.byte	$C9
	.byte	$C9
	.byte	$C9
	.byte	$C9
	.byte	$01
	.byte	$02
	.byte	$10
	.byte	$10
	.byte	$CB
	.byte	$C4
	.byte	$CC
	.byte	$C9
	.byte	$C9
	.byte	$C9
	.byte	$C9
	.byte	$C9
	.byte	$C9
	.byte	$C9
	.byte	$C9
	.byte	$C9
	.byte	$02
	.byte	$3C
	.byte	$3A
	.byte	$3B
	.byte	$0E
	.byte	$08
	.byte	$0C
	.byte	$C9
	.byte	$C9
	.byte	$C9
	.byte	$C9
	.byte	$C9
	.byte	$C9
	.byte	$C9
	.byte	$C9
	.byte	$C9
	.byte	$1A
	.byte	$10
	.byte	$10
	.byte	$3C
	.byte	$14
	.byte	$16
	.byte	$CC
	.byte	$C9
	.byte	$C9
	.byte	$C9
	.byte	$C9
	.byte	$C9
	.byte	$C9
	.byte	$C9
	.byte	$C9
	.byte	$C9
	.byte	$CB
	.byte	$CA
	.byte	$3B
	.byte	$00
	.byte	$CE
	.byte	$C9
	.byte	$C9
	.byte	$C9
	.byte	$C9
	.byte	$C9
	.byte	$C9
	.byte	$C9
	.byte	$C9
	.byte	$C9
	.byte	$C9
	.byte	$C9
	.byte	$C9
	.byte	$C9
	.byte	$12
	.byte	$02
	.byte	$C9
	.byte	$C9
	.byte	$C9
	.byte	$C9
	.byte	$C9
	.byte	$C9
	.byte	$C9
	.byte	$C9
	.byte	$C9
	.byte	$C9
	.byte	$C9
	.byte	$C9
	.byte	$C9
	.byte	$C9
	.byte	$11
	.byte	$00
	.byte	$C9
	.byte	$C9
	.byte	$C9
	.byte	$BF
	.byte	$AE
	.byte	$51
	.byte	$AF
	.byte	$C9
	.byte	$C9
	.byte	$C9
	.byte	$C9
	.byte	$C9
	.byte	$C9
	.byte	$C9
	.byte	$10
	.byte	$02
	.byte	$0E
	.byte	$3E
	.byte	$04
	.byte	$09
	.byte	$0A
	.byte	$07
	.byte	$04
	.byte	$05
	.byte	$04
	.byte	$07
	.byte	$04
	.byte	$08
	.byte	$05
	.byte	$04
	.byte	$3C
	.byte	$00
	.byte	$10
	.byte	$3D
	.byte	$3C
	.byte	$10
	.byte	$01
	.byte	$11
	.byte	$01
	.byte	$02
	.byte	$3C
	.byte	$10
	.byte	$10
	.byte	$3A
	.byte	$02
	.byte	$10
_level6_1:
	.byte	$3C
	.byte	$10
	.byte	$03
	.byte	$10
	.byte	$10
	.byte	$10
	.byte	$11
	.byte	$10
	.byte	$3A
	.byte	$3B
	.byte	$10
	.byte	$02
	.byte	$01
	.byte	$10
	.byte	$10
	.byte	$03
	.byte	$10
	.byte	$10
	.byte	$11
	.byte	$10
	.byte	$12
	.byte	$3C
	.byte	$17
	.byte	$17
	.byte	$10
	.byte	$14
	.byte	$51
	.byte	$1B
	.byte	$10
	.byte	$3C
	.byte	$13
	.byte	$3A
	.byte	$3C
	.byte	$10
	.byte	$10
	.byte	$14
	.byte	$51
	.byte	$CE
	.byte	$CA
	.byte	$CA
	.byte	$51
	.byte	$51
	.byte	$CA
	.byte	$51
	.byte	$51
	.byte	$1B
	.byte	$10
	.byte	$10
	.byte	$10
	.byte	$10
	.byte	$13
	.byte	$CE
	.byte	$C9
	.byte	$C9
	.byte	$C9
	.byte	$C9
	.byte	$C9
	.byte	$C9
	.byte	$C9
	.byte	$CB
	.byte	$51
	.byte	$51
	.byte	$11
	.byte	$10
	.byte	$10
	.byte	$3C
	.byte	$51
	.byte	$BF
	.byte	$C3
	.byte	$AF
	.byte	$C9
	.byte	$C9
	.byte	$C9
	.byte	$C9
	.byte	$BF
	.byte	$C3
	.byte	$AF
	.byte	$CD
	.byte	$10
	.byte	$11
	.byte	$10
	.byte	$11
	.byte	$CC
	.byte	$C1
	.byte	$C0
	.byte	$C2
	.byte	$C9
	.byte	$C9
	.byte	$C9
	.byte	$C9
	.byte	$C1
	.byte	$C0
	.byte	$C2
	.byte	$C9
	.byte	$10
	.byte	$10
	.byte	$00
	.byte	$10
	.byte	$C9
	.byte	$CB
	.byte	$C4
	.byte	$CC
	.byte	$C9
	.byte	$C9
	.byte	$C9
	.byte	$C9
	.byte	$CB
	.byte	$C4
	.byte	$CC
	.byte	$C9
	.byte	$10
	.byte	$3A
	.byte	$03
	.byte	$10
	.byte	$C9
	.byte	$C9
	.byte	$C9
	.byte	$C9
	.byte	$C9
	.byte	$C9
	.byte	$C9
	.byte	$C9
	.byte	$C9
	.byte	$C9
	.byte	$C9
	.byte	$C9
	.byte	$3A
	.byte	$3B
	.byte	$10
	.byte	$14
	.byte	$C9
	.byte	$C9
	.byte	$C9
	.byte	$C9
	.byte	$C9
	.byte	$C9
	.byte	$C9
	.byte	$C9
	.byte	$C9
	.byte	$C9
	.byte	$C9
	.byte	$C9
	.byte	$11
	.byte	$3C
	.byte	$CA
	.byte	$CC
	.byte	$C9
	.byte	$C9
	.byte	$C9
	.byte	$C9
	.byte	$C9
	.byte	$C9
	.byte	$C9
	.byte	$C9
	.byte	$C9
	.byte	$C9
	.byte	$C9
	.byte	$C9
	.byte	$10
	.byte	$10
	.byte	$C9
	.byte	$C9
	.byte	$BF
	.byte	$51
	.byte	$AF
	.byte	$AF
	.byte	$C9
	.byte	$C9
	.byte	$C9
	.byte	$C9
	.byte	$C9
	.byte	$C9
	.byte	$C9
	.byte	$C9
	.byte	$3C
	.byte	$11
	.byte	$C9
	.byte	$BF
	.byte	$51
	.byte	$51
	.byte	$51
	.byte	$51
	.byte	$CF
	.byte	$C9
	.byte	$C9
	.byte	$C9
	.byte	$C9
	.byte	$C9
	.byte	$C9
	.byte	$C9
	.byte	$3C
	.byte	$10
	.byte	$C9
	.byte	$CD
	.byte	$51
	.byte	$51
	.byte	$51
	.byte	$51
	.byte	$51
	.byte	$AF
	.byte	$C9
	.byte	$C9
	.byte	$C9
	.byte	$C9
	.byte	$C9
	.byte	$C9
	.byte	$10
	.byte	$11
	.byte	$07
	.byte	$09
	.byte	$04
	.byte	$04
	.byte	$0A
	.byte	$09
	.byte	$04
	.byte	$06
	.byte	$04
	.byte	$07
	.byte	$04
	.byte	$07
	.byte	$04
	.byte	$0C
	.byte	$3C
	.byte	$3A
	.byte	$3C
	.byte	$10
	.byte	$12
	.byte	$01
	.byte	$10
	.byte	$10
	.byte	$11
	.byte	$03
	.byte	$13
	.byte	$10
	.byte	$3A
	.byte	$3B
	.byte	$3C
	.byte	$10
	.byte	$01
	.byte	$11
_level7_0:
	.byte	$3C
	.byte	$10
	.byte	$03
	.byte	$10
	.byte	$10
	.byte	$10
	.byte	$11
	.byte	$10
	.byte	$3A
	.byte	$3B
	.byte	$10
	.byte	$02
	.byte	$01
	.byte	$10
	.byte	$10
	.byte	$03
	.byte	$10
	.byte	$10
	.byte	$11
	.byte	$10
	.byte	$12
	.byte	$3C
	.byte	$17
	.byte	$17
	.byte	$10
	.byte	$14
	.byte	$51
	.byte	$1B
	.byte	$10
	.byte	$3C
	.byte	$13
	.byte	$3A
	.byte	$3C
	.byte	$10
	.byte	$10
	.byte	$14
	.byte	$51
	.byte	$CE
	.byte	$CA
	.byte	$CA
	.byte	$51
	.byte	$51
	.byte	$CA
	.byte	$51
	.byte	$51
	.byte	$1B
	.byte	$10
	.byte	$10
	.byte	$10
	.byte	$10
	.byte	$13
	.byte	$CE
	.byte	$C9
	.byte	$C9
	.byte	$C9
	.byte	$C9
	.byte	$C9
	.byte	$C9
	.byte	$C9
	.byte	$CB
	.byte	$51
	.byte	$51
	.byte	$11
	.byte	$10
	.byte	$10
	.byte	$3C
	.byte	$51
	.byte	$BF
	.byte	$C3
	.byte	$AF
	.byte	$C9
	.byte	$C9
	.byte	$C9
	.byte	$C9
	.byte	$BF
	.byte	$C3
	.byte	$AF
	.byte	$CD
	.byte	$10
	.byte	$11
	.byte	$10
	.byte	$11
	.byte	$CC
	.byte	$C1
	.byte	$C0
	.byte	$C2
	.byte	$C9
	.byte	$C9
	.byte	$C9
	.byte	$C9
	.byte	$C1
	.byte	$C0
	.byte	$C2
	.byte	$C9
	.byte	$10
	.byte	$10
	.byte	$00
	.byte	$10
	.byte	$C9
	.byte	$CB
	.byte	$C4
	.byte	$CC
	.byte	$C9
	.byte	$C9
	.byte	$C9
	.byte	$C9
	.byte	$CB
	.byte	$C4
	.byte	$CC
	.byte	$C9
	.byte	$10
	.byte	$3A
	.byte	$03
	.byte	$10
	.byte	$C9
	.byte	$C9
	.byte	$C9
	.byte	$C9
	.byte	$C9
	.byte	$C9
	.byte	$C9
	.byte	$C9
	.byte	$C9
	.byte	$C9
	.byte	$C9
	.byte	$C9
	.byte	$3A
	.byte	$3B
	.byte	$10
	.byte	$14
	.byte	$C9
	.byte	$C9
	.byte	$C9
	.byte	$C9
	.byte	$C9
	.byte	$C9
	.byte	$C9
	.byte	$C9
	.byte	$C9
	.byte	$C9
	.byte	$C9
	.byte	$C9
	.byte	$11
	.byte	$3C
	.byte	$10
	.byte	$CC
	.byte	$C9
	.byte	$BF
	.byte	$C9
	.byte	$C9
	.byte	$C9
	.byte	$C9
	.byte	$C9
	.byte	$C9
	.byte	$C9
	.byte	$C9
	.byte	$C9
	.byte	$C9
	.byte	$10
	.byte	$10
	.byte	$10
	.byte	$BF
	.byte	$51
	.byte	$51
	.byte	$AF
	.byte	$AF
	.byte	$C9
	.byte	$C9
	.byte	$C9
	.byte	$C9
	.byte	$C9
	.byte	$C9
	.byte	$C9
	.byte	$C9
	.byte	$3C
	.byte	$11
	.byte	$3C
	.byte	$AE
	.byte	$51
	.byte	$51
	.byte	$51
	.byte	$51
	.byte	$CF
	.byte	$C9
	.byte	$C9
	.byte	$C9
	.byte	$C9
	.byte	$C9
	.byte	$C9
	.byte	$C9
	.byte	$3C
	.byte	$10
	.byte	$10
	.byte	$CD
	.byte	$51
	.byte	$51
	.byte	$51
	.byte	$51
	.byte	$51
	.byte	$AF
	.byte	$C9
	.byte	$C9
	.byte	$C9
	.byte	$C9
	.byte	$C9
	.byte	$C9
	.byte	$10
	.byte	$11
	.byte	$10
	.byte	$0F
	.byte	$04
	.byte	$04
	.byte	$0A
	.byte	$09
	.byte	$04
	.byte	$06
	.byte	$04
	.byte	$07
	.byte	$04
	.byte	$07
	.byte	$04
	.byte	$0C
	.byte	$3C
	.byte	$3A
	.byte	$3C
	.byte	$10
	.byte	$12
	.byte	$01
	.byte	$10
	.byte	$10
	.byte	$11
	.byte	$03
	.byte	$13
	.byte	$10
	.byte	$3A
	.byte	$3B
	.byte	$3C
	.byte	$10
	.byte	$01
	.byte	$11
_stage1_levels_list:
	.addr	_level0_0
	.addr	_level0_1
	.addr	_level0_2
	.addr	_level0_3
	.addr	_level0_4
	.addr	_level0_5
	.addr	_level0_6
	.addr	_level0_7
	.addr	_level1_0
	.addr	_level2_0
	.addr	_level2_1
	.addr	_level2_2
	.addr	_level2_3
	.addr	_level3_0
	.addr	_level4_0
	.addr	_level4_1
	.addr	_level4_2
	.addr	_level4_3
	.addr	_level4_4
	.addr	_level5_0
	.addr	_level6_0
	.addr	_level6_1
	.addr	_level7_0
_level_max_rooms:
	.byte	$08
	.byte	$01
	.byte	$04
	.byte	$01
	.byte	$05
	.byte	$01
	.byte	$02
	.byte	$01
_level_offsets:
	.byte	$00
	.byte	$08
	.byte	$09
	.byte	$0D
	.byte	$0E
	.byte	$13
	.byte	$14
	.byte	$16
_starting_x_place:
	.byte	$1E
	.byte	$3C
	.byte	$28
	.byte	$C8
	.byte	$3C
	.byte	$B4
	.byte	$28
	.byte	$B4
_starting_y_place:
	.byte	$A0
	.byte	$B4
	.byte	$B4
	.byte	$64
	.byte	$50
	.byte	$BE
	.byte	$BE
	.byte	$B4
_level_0_enemies:
	.byte	$C0
	.byte	$00
	.byte	$E0
	.byte	$00
	.byte	$30
	.byte	$01
	.byte	$90
	.byte	$01
	.byte	$B0
	.byte	$01
	.byte	$E0
	.byte	$00
	.byte	$80
	.byte	$03
	.byte	$00
	.byte	$00
	.byte	$30
	.byte	$03
	.byte	$90
	.byte	$01
	.byte	$80
	.byte	$05
	.byte	$A0
	.byte	$00
	.byte	$90
	.byte	$06
	.byte	$80
	.byte	$00
	.byte	$40
	.byte	$07
	.byte	$90
	.byte	$00
	.byte	$FF
_level_1_enemies:
	.byte	$60
	.byte	$00
	.byte	$80
	.byte	$00
	.byte	$10
	.byte	$00
	.byte	$C0
	.byte	$01
	.byte	$FF
_level_2_enemies:
	.byte	$90
	.byte	$00
	.byte	$80
	.byte	$00
	.byte	$A0
	.byte	$01
	.byte	$40
	.byte	$00
	.byte	$60
	.byte	$02
	.byte	$60
	.byte	$00
	.byte	$90
	.byte	$02
	.byte	$E0
	.byte	$00
	.byte	$C0
	.byte	$03
	.byte	$60
	.byte	$00
	.byte	$FF
_level_3_enemies:
	.byte	$20
	.byte	$00
	.byte	$70
	.byte	$01
	.byte	$80
	.byte	$00
	.byte	$80
	.byte	$00
	.byte	$FF
_level_4_enemies:
	.byte	$00
	.byte	$00
	.byte	$A0
	.byte	$01
	.byte	$80
	.byte	$00
	.byte	$E0
	.byte	$00
	.byte	$30
	.byte	$00
	.byte	$E0
	.byte	$01
	.byte	$C0
	.byte	$01
	.byte	$B0
	.byte	$00
	.byte	$20
	.byte	$04
	.byte	$40
	.byte	$01
	.byte	$60
	.byte	$04
	.byte	$C0
	.byte	$00
	.byte	$FF
_level_5_enemies:
	.byte	$90
	.byte	$00
	.byte	$50
	.byte	$00
	.byte	$70
	.byte	$00
	.byte	$C0
	.byte	$00
	.byte	$50
	.byte	$00
	.byte	$20
	.byte	$00
	.byte	$10
	.byte	$00
	.byte	$80
	.byte	$01
	.byte	$FF
_level_6_enemies:
	.byte	$10
	.byte	$00
	.byte	$60
	.byte	$01
	.byte	$BE
	.byte	$00
	.byte	$C8
	.byte	$00
	.byte	$FF
_level_7_enemies:
	.byte	$C1
	.byte	$00
	.byte	$28
	.byte	$02
	.byte	$FF
_Enemy_list:
	.addr	_level_0_enemies
	.addr	_level_1_enemies
	.addr	_level_2_enemies
	.addr	_level_3_enemies
	.addr	_level_4_enemies
	.addr	_level_5_enemies
	.addr	_level_6_enemies
	.addr	_level_7_enemies
_level_0_entities:
	.byte	$A0
	.byte	$00
	.byte	$14
	.byte	$0C
	.byte	$E6
	.byte	$02
	.byte	$00
	.byte	$02
	.byte	$E6
	.byte	$02
	.byte	$40
	.byte	$02
	.byte	$E6
	.byte	$04
	.byte	$00
	.byte	$02
	.byte	$E6
	.byte	$04
	.byte	$40
	.byte	$02
	.byte	$E6
	.byte	$05
	.byte	$60
	.byte	$02
	.byte	$E6
	.byte	$05
	.byte	$B0
	.byte	$02
	.byte	$E6
	.byte	$06
	.byte	$A0
	.byte	$02
	.byte	$00
	.byte	$07
	.byte	$A0
	.byte	$00
	.byte	$FF
_level_1_entities:
	.byte	$E6
	.byte	$00
	.byte	$A0
	.byte	$03
	.byte	$00
	.byte	$00
	.byte	$30
	.byte	$00
	.byte	$48
	.byte	$00
	.byte	$CC
	.byte	$09
	.byte	$FF
_level_2_entities:
	.byte	$E6
	.byte	$00
	.byte	$30
	.byte	$03
	.byte	$E6
	.byte	$00
	.byte	$00
	.byte	$04
	.byte	$E6
	.byte	$01
	.byte	$00
	.byte	$06
	.byte	$E6
	.byte	$01
	.byte	$40
	.byte	$06
	.byte	$E6
	.byte	$01
	.byte	$80
	.byte	$06
	.byte	$E6
	.byte	$01
	.byte	$C0
	.byte	$06
	.byte	$E6
	.byte	$02
	.byte	$00
	.byte	$06
	.byte	$C8
	.byte	$02
	.byte	$20
	.byte	$08
	.byte	$E6
	.byte	$02
	.byte	$90
	.byte	$06
	.byte	$E6
	.byte	$02
	.byte	$D0
	.byte	$06
	.byte	$E6
	.byte	$03
	.byte	$10
	.byte	$06
	.byte	$E6
	.byte	$03
	.byte	$B0
	.byte	$00
	.byte	$E6
	.byte	$03
	.byte	$C0
	.byte	$00
	.byte	$E6
	.byte	$03
	.byte	$DA
	.byte	$00
	.byte	$E6
	.byte	$03
	.byte	$EA
	.byte	$00
	.byte	$FF
_level_3_entities:
	.byte	$00
	.byte	$00
	.byte	$B0
	.byte	$03
	.byte	$E6
	.byte	$00
	.byte	$30
	.byte	$00
	.byte	$E6
	.byte	$00
	.byte	$00
	.byte	$05
	.byte	$FF
_level_4_entities:
	.byte	$00
	.byte	$00
	.byte	$30
	.byte	$03
	.byte	$00
	.byte	$04
	.byte	$C0
	.byte	$00
	.byte	$FF
_level_5_entities:
	.byte	$E6
	.byte	$00
	.byte	$C0
	.byte	$03
	.byte	$E6
	.byte	$00
	.byte	$00
	.byte	$04
	.byte	$00
	.byte	$00
	.byte	$30
	.byte	$00
	.byte	$FF
_level_6_entities:
	.byte	$E6
	.byte	$00
	.byte	$30
	.byte	$03
	.byte	$BE
	.byte	$01
	.byte	$C8
	.byte	$0C
	.byte	$FF
_entity_list:
	.addr	_level_0_entities
	.addr	_level_1_entities
	.addr	_level_2_entities
	.addr	_level_3_entities
	.addr	_level_4_entities
	.addr	_level_5_entities
	.addr	_level_6_entities
_titletiled_0:
	.byte	$50
	.byte	$50
	.byte	$50
	.byte	$50
	.byte	$50
	.byte	$50
	.byte	$50
	.byte	$50
	.byte	$50
	.byte	$50
	.byte	$50
	.byte	$DD
	.byte	$DC
	.byte	$DC
	.byte	$DE
	.byte	$50
	.byte	$DC
	.byte	$DE
	.byte	$95
	.byte	$91
	.byte	$97
	.byte	$50
	.byte	$DD
	.byte	$DC
	.byte	$DE
	.byte	$50
	.byte	$50
	.byte	$50
	.byte	$50
	.byte	$50
	.byte	$50
	.byte	$50
	.byte	$50
	.byte	$96
	.byte	$91
	.byte	$2D
	.byte	$89
	.byte	$97
	.byte	$C6
	.byte	$C6
	.byte	$C6
	.byte	$C6
	.byte	$C6
	.byte	$C6
	.byte	$C6
	.byte	$C6
	.byte	$C6
	.byte	$C6
	.byte	$50
	.byte	$91
	.byte	$89
	.byte	$94
	.byte	$89
	.byte	$94
	.byte	$C6
	.byte	$C6
	.byte	$C6
	.byte	$C6
	.byte	$C6
	.byte	$C6
	.byte	$C6
	.byte	$C6
	.byte	$C6
	.byte	$C6
	.byte	$50
	.byte	$2C
	.byte	$91
	.byte	$89
	.byte	$94
	.byte	$2A
	.byte	$C6
	.byte	$C6
	.byte	$C6
	.byte	$C6
	.byte	$C6
	.byte	$C6
	.byte	$C6
	.byte	$C6
	.byte	$C6
	.byte	$C6
	.byte	$50
	.byte	$49
	.byte	$2C
	.byte	$90
	.byte	$90
	.byte	$48
	.byte	$C6
	.byte	$C6
	.byte	$C6
	.byte	$C6
	.byte	$C6
	.byte	$C6
	.byte	$C6
	.byte	$C6
	.byte	$C6
	.byte	$C6
	.byte	$50
	.byte	$50
	.byte	$49
	.byte	$6A
	.byte	$48
	.byte	$50
	.byte	$50
	.byte	$D1
	.byte	$D3
	.byte	$E0
	.byte	$E1
	.byte	$E2
	.byte	$50
	.byte	$50
	.byte	$D1
	.byte	$D3
	.byte	$D1
	.byte	$D2
	.byte	$E4
	.byte	$68
	.byte	$58
	.byte	$59
	.byte	$D0
	.byte	$D4
	.byte	$D9
	.byte	$EC
	.byte	$EE
	.byte	$E9
	.byte	$E3
	.byte	$D0
	.byte	$D4
	.byte	$D9
	.byte	$BE
	.byte	$BE
	.byte	$BD
	.byte	$69
	.byte	$BD
	.byte	$BC
	.byte	$B0
	.byte	$BD
	.byte	$B0
	.byte	$BC
	.byte	$BD
	.byte	$BC
	.byte	$B0
	.byte	$BD
	.byte	$BE
	.byte	$BD
	.byte	$B0
	.byte	$B8
	.byte	$B0
	.byte	$68
	.byte	$B0
	.byte	$BE
	.byte	$BC
	.byte	$B0
	.byte	$BE
	.byte	$B6
	.byte	$7E
	.byte	$7F
	.byte	$5F
	.byte	$B9
	.byte	$B0
	.byte	$BC
	.byte	$BC
	.byte	$4D
	.byte	$6B
	.byte	$6C
	.byte	$6D
	.byte	$4F
	.byte	$B0
	.byte	$A7
	.byte	$B0
	.byte	$B8
	.byte	$5C
	.byte	$5D
	.byte	$5E
	.byte	$A8
	.byte	$A9
	.byte	$AA
	.byte	$B0
	.byte	$4A
	.byte	$4B
	.byte	$4B
	.byte	$4B
	.byte	$4C
	.byte	$B6
	.byte	$B7
	.byte	$B8
	.byte	$AB
	.byte	$A7
	.byte	$B0
	.byte	$A8
	.byte	$A9
	.byte	$B0
	.byte	$A9
	.byte	$B6
	.byte	$B7
	.byte	$B0
	.byte	$B0
	.byte	$B8
	.byte	$B0
	.byte	$B6
	.byte	$B0
	.byte	$B0
	.byte	$A9
	.byte	$B0
	.byte	$AA
	.byte	$B0
	.byte	$B7
	.byte	$B0
	.byte	$B9
	.byte	$A7
	.byte	$A8
	.byte	$AB
	.byte	$AA
	.byte	$B0
	.byte	$A7
	.byte	$A8
	.byte	$B0
	.byte	$B0
	.byte	$B0
	.byte	$AA
	.byte	$B0
	.byte	$A9
	.byte	$B0
	.byte	$B9
	.byte	$B0
	.byte	$B0
	.byte	$B6
	.byte	$B7
	.byte	$B0
	.byte	$B0
	.byte	$B0
	.byte	$B0
	.byte	$A9
	.byte	$B7
	.byte	$B0
	.byte	$B0
	.byte	$A9
	.byte	$AA
	.byte	$B0
	.byte	$B0
	.byte	$AB
_gameovertiled_0:
	.byte	$3A
	.byte	$3B
	.byte	$02
	.byte	$14
	.byte	$03
	.byte	$10
	.byte	$14
	.byte	$10
	.byte	$3C
	.byte	$10
	.byte	$01
	.byte	$10
	.byte	$10
	.byte	$01
	.byte	$02
	.byte	$03
	.byte	$00
	.byte	$01
	.byte	$10
	.byte	$10
	.byte	$01
	.byte	$14
	.byte	$51
	.byte	$1A
	.byte	$03
	.byte	$12
	.byte	$03
	.byte	$1A
	.byte	$00
	.byte	$10
	.byte	$3A
	.byte	$3B
	.byte	$02
	.byte	$03
	.byte	$14
	.byte	$51
	.byte	$17
	.byte	$CE
	.byte	$C9
	.byte	$CD
	.byte	$51
	.byte	$51
	.byte	$51
	.byte	$CD
	.byte	$19
	.byte	$18
	.byte	$10
	.byte	$10
	.byte	$14
	.byte	$51
	.byte	$51
	.byte	$CC
	.byte	$CA
	.byte	$C9
	.byte	$C9
	.byte	$C9
	.byte	$C9
	.byte	$C9
	.byte	$C9
	.byte	$C9
	.byte	$C9
	.byte	$CD
	.byte	$19
	.byte	$1B
	.byte	$51
	.byte	$CC
	.byte	$C9
	.byte	$C9
	.byte	$C9
	.byte	$C9
	.byte	$C9
	.byte	$C9
	.byte	$C9
	.byte	$C9
	.byte	$C9
	.byte	$C9
	.byte	$C9
	.byte	$C9
	.byte	$CB
	.byte	$51
	.byte	$CC
	.byte	$C9
	.byte	$C9
	.byte	$C9
	.byte	$C9
	.byte	$C9
	.byte	$C9
	.byte	$C9
	.byte	$C9
	.byte	$C9
	.byte	$C9
	.byte	$C9
	.byte	$C9
	.byte	$C9
	.byte	$C9
	.byte	$CB
	.byte	$C9
	.byte	$C9
	.byte	$BF
	.byte	$C3
	.byte	$AF
	.byte	$C9
	.byte	$C9
	.byte	$C9
	.byte	$C9
	.byte	$C9
	.byte	$C9
	.byte	$BF
	.byte	$C3
	.byte	$AF
	.byte	$C9
	.byte	$C9
	.byte	$C9
	.byte	$C9
	.byte	$C1
	.byte	$C0
	.byte	$C2
	.byte	$C9
	.byte	$C9
	.byte	$C9
	.byte	$C9
	.byte	$C9
	.byte	$C9
	.byte	$C1
	.byte	$C0
	.byte	$C2
	.byte	$C9
	.byte	$C9
	.byte	$C9
	.byte	$C9
	.byte	$CB
	.byte	$C4
	.byte	$CC
	.byte	$C9
	.byte	$C9
	.byte	$C9
	.byte	$C9
	.byte	$C9
	.byte	$C9
	.byte	$CB
	.byte	$C4
	.byte	$CC
	.byte	$C9
	.byte	$C9
	.byte	$C9
	.byte	$C9
	.byte	$C9
	.byte	$C9
	.byte	$C9
	.byte	$C9
	.byte	$C9
	.byte	$C9
	.byte	$C9
	.byte	$C9
	.byte	$C9
	.byte	$C9
	.byte	$C9
	.byte	$C9
	.byte	$C9
	.byte	$C9
	.byte	$C9
	.byte	$C9
	.byte	$C9
	.byte	$C9
	.byte	$C9
	.byte	$C9
	.byte	$BF
	.byte	$BF
	.byte	$51
	.byte	$AF
	.byte	$AF
	.byte	$C9
	.byte	$C9
	.byte	$C9
	.byte	$C9
	.byte	$C9
	.byte	$C9
	.byte	$C9
	.byte	$C9
	.byte	$C9
	.byte	$BF
	.byte	$51
	.byte	$51
	.byte	$51
	.byte	$51
	.byte	$51
	.byte	$CF
	.byte	$AF
	.byte	$C9
	.byte	$C9
	.byte	$C9
	.byte	$C9
	.byte	$C9
	.byte	$C9
	.byte	$C9
	.byte	$BF
	.byte	$51
	.byte	$51
	.byte	$51
	.byte	$51
	.byte	$51
	.byte	$51
	.byte	$51
	.byte	$CF
	.byte	$C9
	.byte	$C9
	.byte	$C9
	.byte	$C9
	.byte	$04
	.byte	$05
	.byte	$07
	.byte	$07
	.byte	$08
	.byte	$09
	.byte	$06
	.byte	$04
	.byte	$06
	.byte	$06
	.byte	$07
	.byte	$08
	.byte	$09
	.byte	$0A
	.byte	$0B
	.byte	$04
	.byte	$00
	.byte	$02
	.byte	$3A
	.byte	$3B
	.byte	$10
	.byte	$00
	.byte	$01
	.byte	$00
	.byte	$03
	.byte	$02
	.byte	$10
	.byte	$00
	.byte	$3C
	.byte	$01
	.byte	$3A
	.byte	$3B
_palette_gameover:
	.byte	$0F
	.byte	$0F
	.byte	$00
	.byte	$10
	.byte	$0F
	.byte	$0F
	.byte	$30
	.byte	$08
	.byte	$0F
	.byte	$0F
	.byte	$17
	.byte	$06
	.byte	$0F
	.byte	$0F
	.byte	$19
	.byte	$29
_palette_victory:
	.byte	$21
	.byte	$0F
	.byte	$00
	.byte	$10
	.byte	$21
	.byte	$21
	.byte	$30
	.byte	$21
	.byte	$21
	.byte	$30
	.byte	$21
	.byte	$30
	.byte	$21
	.byte	$0F
	.byte	$0F
	.byte	$29
_victory:
	.byte	$02
	.byte	$01
	.byte	$02
	.byte	$06
	.byte	$EF
	.byte	$EF
	.byte	$ED
	.byte	$39
	.byte	$EF
	.byte	$C1
	.byte	$C1
	.byte	$01
	.byte	$02
	.byte	$02
	.byte	$B0
	.byte	$01
	.byte	$01
	.byte	$B0
	.byte	$01
	.byte	$02
	.byte	$03
	.byte	$C0
	.byte	$01
	.byte	$02
	.byte	$09
	.byte	$C3
	.byte	$01
	.byte	$C0
	.byte	$C1
	.byte	$EF
	.byte	$38
	.byte	$00
	.byte	$39
	.byte	$36
	.byte	$36
	.byte	$37
	.byte	$36
	.byte	$EF
	.byte	$6D
	.byte	$C1
	.byte	$C1
	.byte	$B0
	.byte	$6D
	.byte	$EF
	.byte	$5D
	.byte	$36
	.byte	$39
	.byte	$EF
	.byte	$C0
	.byte	$01
	.byte	$C3
	.byte	$01
	.byte	$01
	.byte	$C1
	.byte	$01
	.byte	$02
	.byte	$02
	.byte	$C1
	.byte	$C1
	.byte	$EF
	.byte	$5D
	.byte	$00
	.byte	$02
	.byte	$07
	.byte	$39
	.byte	$37
	.byte	$37
	.byte	$39
	.byte	$5D
	.byte	$5D
	.byte	$38
	.byte	$00
	.byte	$02
	.byte	$02
	.byte	$36
	.byte	$EF
	.byte	$01
	.byte	$C0
	.byte	$01
	.byte	$02
	.byte	$02
	.byte	$C1
	.byte	$9F
	.byte	$EE
	.byte	$38
	.byte	$FF
	.byte	$FF
	.byte	$00
	.byte	$02
	.byte	$13
	.byte	$39
	.byte	$EE
	.byte	$B0
	.byte	$B0
	.byte	$01
	.byte	$9F
	.byte	$5D
	.byte	$39
	.byte	$38
	.byte	$00
	.byte	$02
	.byte	$17
	.byte	$39
	.byte	$ED
	.byte	$C0
	.byte	$01
	.byte	$38
	.byte	$00
	.byte	$02
	.byte	$1B
	.byte	$39
	.byte	$EE
	.byte	$C0
	.byte	$00
	.byte	$02
	.byte	$1D
	.byte	$39
	.byte	$5D
	.byte	$00
	.byte	$02
	.byte	$2B
	.byte	$59
	.byte	$4F
	.byte	$55
	.byte	$00
	.byte	$57
	.byte	$49
	.byte	$4E
	.byte	$21
	.byte	$00
	.byte	$02
	.byte	$30
	.byte	$59
	.byte	$4F
	.byte	$55
	.byte	$52
	.byte	$00
	.byte	$53
	.byte	$4B
	.byte	$49
	.byte	$4C
	.byte	$4C
	.byte	$53
	.byte	$00
	.byte	$41
	.byte	$52
	.byte	$45
	.byte	$00
	.byte	$44
	.byte	$49
	.byte	$56
	.byte	$49
	.byte	$4E
	.byte	$45
	.byte	$00
	.byte	$02
	.byte	$6A
	.byte	$42
	.byte	$55
	.byte	$59
	.byte	$00
	.byte	$54
	.byte	$48
	.byte	$45
	.byte	$00
	.byte	$46
	.byte	$55
	.byte	$4C
	.byte	$4C
	.byte	$00
	.byte	$56
	.byte	$45
	.byte	$52
	.byte	$53
	.byte	$49
	.byte	$4F
	.byte	$4E
	.byte	$00
	.byte	$02
	.byte	$30
	.byte	$4E
	.byte	$45
	.byte	$58
	.byte	$54
	.byte	$00
	.byte	$59
	.byte	$45
	.byte	$41
	.byte	$52
	.byte	$00
	.byte	$02
	.byte	$55
	.byte	$50
	.byte	$52
	.byte	$45
	.byte	$53
	.byte	$45
	.byte	$4E
	.byte	$54
	.byte	$45
	.byte	$44
	.byte	$00
	.byte	$42
	.byte	$59
	.byte	$00
	.byte	$02
	.byte	$33
	.byte	$41
	.byte	$4C
	.byte	$41
	.byte	$4E
	.byte	$00
	.byte	$26
	.byte	$00
	.byte	$42
	.byte	$52
	.byte	$49
	.byte	$41
	.byte	$4E
	.byte	$00
	.byte	$02
	.byte	$07
	.byte	$5E
	.byte	$5F
	.byte	$6F
	.byte	$82
	.byte	$00
	.byte	$02
	.byte	$1A
	.byte	$6C
	.byte	$6D
	.byte	$B1
	.byte	$6D
	.byte	$6D
	.byte	$6F
	.byte	$00
	.byte	$02
	.byte	$17
	.byte	$6B
	.byte	$6D
	.byte	$6D
	.byte	$01
	.byte	$EF
	.byte	$01
	.byte	$EE
	.byte	$6D
	.byte	$6F
	.byte	$00
	.byte	$02
	.byte	$15
	.byte	$6C
	.byte	$6D
	.byte	$01
	.byte	$C1
	.byte	$C0
	.byte	$01
	.byte	$01
	.byte	$C1
	.byte	$01
	.byte	$6D
	.byte	$5F
	.byte	$00
	.byte	$02
	.byte	$09
	.byte	$81
	.byte	$80
	.byte	$82
	.byte	$00
	.byte	$02
	.byte	$06
	.byte	$6C
	.byte	$C3
	.byte	$EF
	.byte	$C3
	.byte	$01
	.byte	$02
	.byte	$04
	.byte	$C0
	.byte	$01
	.byte	$6D
	.byte	$6F
	.byte	$82
	.byte	$02
	.byte	$02
	.byte	$00
	.byte	$02
	.byte	$03
	.byte	$82
	.byte	$6C
	.byte	$6D
	.byte	$EF
	.byte	$6D
	.byte	$5F
	.byte	$00
	.byte	$02
	.byte	$03
	.byte	$81
	.byte	$6C
	.byte	$6D
	.byte	$6D
	.byte	$01
	.byte	$01
	.byte	$B2
	.byte	$01
	.byte	$02
	.byte	$04
	.byte	$C1
	.byte	$EE
	.byte	$EE
	.byte	$ED
	.byte	$EE
	.byte	$ED
	.byte	$5F
	.byte	$82
	.byte	$82
	.byte	$6B
	.byte	$ED
	.byte	$6D
	.byte	$C1
	.byte	$01
	.byte	$01
	.byte	$EF
	.byte	$6F
	.byte	$80
	.byte	$81
	.byte	$5E
	.byte	$ED
	.byte	$6D
	.byte	$01
	.byte	$C1
	.byte	$01
	.byte	$02
	.byte	$09
	.byte	$6D
	.byte	$01
	.byte	$01
	.byte	$EF
	.byte	$02
	.byte	$02
	.byte	$6D
	.byte	$01
	.byte	$02
	.byte	$02
	.byte	$C1
	.byte	$EF
	.byte	$01
	.byte	$C1
	.byte	$01
	.byte	$EF
	.byte	$EF
	.byte	$01
	.byte	$02
	.byte	$0D
	.byte	$C1
	.byte	$01
	.byte	$02
	.byte	$02
	.byte	$C1
	.byte	$01
	.byte	$02
	.byte	$04
	.byte	$C1
	.byte	$01
	.byte	$02
	.byte	$07
	.byte	$C1
	.byte	$01
	.byte	$02
	.byte	$07
	.byte	$AA
	.byte	$AA
	.byte	$0A
	.byte	$0A
	.byte	$AA
	.byte	$AA
	.byte	$8A
	.byte	$AA
	.byte	$2A
	.byte	$00
	.byte	$02
	.byte	$05
	.byte	$8A
	.byte	$00
	.byte	$F0
	.byte	$FE
	.byte	$FF
	.byte	$FF
	.byte	$F5
	.byte	$F1
	.byte	$10
	.byte	$00
	.byte	$C0
	.byte	$F0
	.byte	$02
	.byte	$04
	.byte	$00
	.byte	$00
	.byte	$40
	.byte	$FC
	.byte	$FF
	.byte	$FF
	.byte	$F0
	.byte	$00
	.byte	$00
	.byte	$A0
	.byte	$00
	.byte	$0F
	.byte	$02
	.byte	$02
	.byte	$03
	.byte	$80
	.byte	$A8
	.byte	$AA
	.byte	$A2
	.byte	$A0
	.byte	$A8
	.byte	$A2
	.byte	$A0
	.byte	$AA
	.byte	$AA
	.byte	$0A
	.byte	$02
	.byte	$06
	.byte	$0A
	.byte	$02
	.byte	$00
S0009:
	.byte	$44,$4F,$55,$42,$4C,$45,$20,$4A,$55,$4D,$50,$20,$26,$20,$50,$4F
	.byte	$57,$45,$52,$20,$53,$48,$4F,$54,$00
S0008:
	.byte	$47,$4F,$44,$20,$48,$41,$53,$20,$42,$4C,$45,$53,$53,$45,$44,$20
	.byte	$59,$4F,$55,$20,$57,$49,$54,$48,$00
S0007:
	.byte	$46,$4F,$52,$20,$44,$45,$46,$45,$41,$54,$49,$4E,$47,$20,$54,$48
	.byte	$45,$20,$42,$45,$41,$52,$00
S0004:
	.byte	$42,$52,$49,$41,$4E,$20,$26,$20,$41,$4C,$41,$4E,$20,$47,$41,$4D
	.byte	$45,$53,$00
S000A:
	.byte	$4E,$4F,$57,$20,$52,$45,$54,$55,$52,$4E,$20,$48,$4F,$4D,$45,$00
S0006:
	.byte	$50,$52,$45,$53,$53,$20,$53,$54,$41,$52,$54,$00
S0003:
	.byte	$43,$4F,$52,$47,$53,$20,$44,$45,$4D,$4F,$00
S0005:
	.byte	$47,$41,$4D,$45,$20,$4F,$56,$45,$52,$00

.segment	"BSS"

.segment	"ZEROPAGE"
_debug:
	.res	1,$00
_pad1:
	.res	1,$00
_pad1_new:
	.res	1,$00
_pad1_state:
	.res	1,$00
_short_jump_count:
	.res	1,$00
_map_loaded:
	.res	1,$00
_collision:
	.res	1,$00
_player_in_air:
	.res	1,$00
_player_is_sliding:
	.res	1,$00
_player_is_running:
	.res	1,$00
_player_on_ladder:
	.res	1,$00
_player_on_ladder_pose:
	.res	1,$00
_player_on_ladder_top:
	.res	1,$00
_player_in_hitstun:
	.res	1,$00
_player_running:
	.res	1,$00
_collision_L:
	.res	1,$00
_collision_R:
	.res	1,$00
_collision_U:
	.res	1,$00
_collision_D:
	.res	1,$00
_coordinates:
	.res	1,$00
_falling_down:
	.res	1,$00
_nametable_to_load:
	.res	1,$00
_temp1:
	.res	1,$00
_temp2:
	.res	1,$00
_temp3:
	.res	1,$00
_temp4:
	.res	1,$00
_multi_jump:
	.res	1,$00
_temp5:
	.res	2,$00
_temp6:
	.res	2,$00
_tempint:
	.res	2,$00
_tempint2:
	.res	2,$00
_temp_playerlocation:
	.res	2,$00
_level:
	.res	1,$00
_offset:
	.res	1,$00
_level_up:
	.res	1,$00
_level_down:
	.res	1,$00
_eject_L:
	.res	1,$00
_eject_R:
	.res	1,$00
_eject_D:
	.res	1,$00
_eject_U:
	.res	1,$00
_hit_direction:
	.res	1,$00
_sprite_frame_counter:
	.res	1,$00
_frame_counter:
	.res	1,$00
_frame_counter2:
	.res	1,$00
_address:
	.res	2,$00
_x:
	.res	1,$00
_y:
	.res	1,$00
_nt:
	.res	1,$00
_index:
	.res	1,$00
_index2:
	.res	1,$00
_map:
	.res	1,$00
_scroll_x:
	.res	2,$00
_scroll_y:
	.res	2,$00
_scroll_count:
	.res	1,$00
_pseudo_scroll_x:
	.res	2,$00
_song:
	.res	1,$00
_game_mode:
	.res	1,$00
_multi_jump_max:
	.res	1,$00
_pointer:
	.res	2,$00
_l_scroll_frames:
	.res	1,$00
_r_scroll_frames:
	.res	1,$00
_old_x:
	.res	2,$00
_old_y:
	.res	2,$00
_bright:
	.res	1,$00
_bright_count:
	.res	1,$00
_temp:
	.res	1,$00
_temp_x:
	.res	1,$00
_temp_y:
	.res	1,$00
_temp_room:
	.res	1,$00
_player_shooting:
	.res	1,$00
_death:
	.res	1,$00
_death_flag:
	.res	1,$00
_invul_frames:
	.res	1,$00
_projectile_cooldown:
	.res	1,$00
_projectile_count:
	.res	1,$00
_projectile_index:
	.res	1,$00
_projectile_big:
	.res	1,$00
.segment	"BSS"
_c_map:
	.res	240,$00
_c_map2:
	.res	240,$00
_Generic:
	.res	4,$00
_Generic2:
	.res	4,$00
_max_rooms:
	.res	1,$00
_max_scroll:
	.res	2,$00
_enemy_x:
	.res	16,$00
_enemy_y:
	.res	16,$00
_enemy_active:
	.res	16,$00
_enemy_mode:
	.res	16,$00
_enemy_invul:
	.res	16,$00
_enemy_health:
	.res	16,$00
_enemy_room:
	.res	16,$00
_enemy_actual_x:
	.res	16,$00
_enemy_type:
	.res	16,$00
_enemy_dir:
	.res	16,$00
_enemy_anim:
	.res	32,$00
_enemy_frames:
	.res	16,$00
_entity_x:
	.res	16,$00
_entity_y:
	.res	16,$00
_entity_active:
	.res	16,$00
_entity_room:
	.res	16,$00
_entity_actual_x:
	.res	16,$00
_entity_type:
	.res	16,$00
_entity_frames:
	.res	16,$00

; ---------------------------------------------------------------
; void __near__ load_room (void)
; ---------------------------------------------------------------

.segment	"CODE"

.proc	_load_room: near

.segment	"CODE"

;
; ppu_off();
;
	jsr     _ppu_off
;
; offset = level_offsets[level];
;
	ldy     _level
	lda     _level_offsets,y
	sta     _offset
;
; offset += room_to_load;
;
	lda     _room_to_load
	clc
	adc     _offset
	sta     _offset
;
; set_data_pointer(stage1_levels_list[offset]);
;
	ldx     #$00
	lda     _offset
	asl     a
	bcc     L002C
	inx
	clc
L002C:	adc     #<(_stage1_levels_list)
	sta     ptr1
	txa
	adc     #>(_stage1_levels_list)
	sta     ptr1+1
	ldy     #$01
	lda     (ptr1),y
	tax
	dey
	lda     (ptr1),y
	jsr     _set_data_pointer
;
; set_mt_pointer(metatile);
;
	lda     #<(_metatile)
	ldx     #>(_metatile)
	jsr     _set_mt_pointer
;
; for (y = 0;; y += 0x20)
;
	lda     #$00
L0028:	sta     _y
;
; for (x = 0;; x += 0x20)
;
	lda     #$00
L0027:	sta     _x
;
; address = get_ppu_addr(nametable_to_load, x, y);
;
	jsr     decsp2
	lda     _nametable_to_load
	ldy     #$01
	sta     (sp),y
	lda     _x
	dey
	sta     (sp),y
	lda     _y
	jsr     _get_ppu_addr
	sta     _address
	stx     _address+1
;
; index = (y & 0xf0) + (x >> 4);
;
	lda     _y
	and     #$F0
	sta     ptr1
	lda     _x
	lsr     a
	lsr     a
	lsr     a
	lsr     a
	clc
	adc     ptr1
	sta     _index
;
; buffer_4_mt(address, index); // ppu_address, index to the data
;
	lda     _address
	ldx     _address+1
	jsr     pushax
	lda     _index
	jsr     _buffer_4_mt
;
; flush_vram_update2();
;
	jsr     _flush_vram_update2
;
; if (x == 0xe0)
;
	ldx     #$00
	lda     _x
	cmp     #$E0
;
; break;
;
	beq     L002F
;
; for (x = 0;; x += 0x20)
;
	lda     #$20
	clc
	adc     _x
	jmp     L0027
;
; if (y == 0xe0)
;
L002F:	lda     _y
	cmp     #$E0
;
; break;
;
	beq     L0030
;
; for (y = 0;; y += 0x20)
;
	lda     #$20
	clc
	adc     _y
	jmp     L0028
;
; set_data_pointer(stage1_levels_list[offset + 1]);
;
L0030:	lda     _offset
	clc
	adc     #$01
	bcc     L000D
	inx
L000D:	stx     tmp1
	asl     a
	rol     tmp1
	clc
	adc     #<(_stage1_levels_list)
	sta     ptr1
	lda     tmp1
	adc     #>(_stage1_levels_list)
	sta     ptr1+1
	ldy     #$01
	lda     (ptr1),y
	tax
	dey
	lda     (ptr1),y
	jsr     _set_data_pointer
;
; for (y = 0;; y += 0x20)
;
	lda     #$00
L0029:	sta     _y
;
; x = 0;
;
	lda     #$00
	sta     _x
;
; temp1 = (nametable_to_load + 1) % 2;
;
	tax
	lda     _nametable_to_load
	clc
	adc     #$01
	bcc     L0012
	inx
L0012:	jsr     pushax
	ldx     #$00
	lda     #$02
	jsr     tosmoda0
	sta     _temp1
;
; address = get_ppu_addr(temp1, x, y);
;
	jsr     decsp2
	lda     _temp1
	ldy     #$01
	sta     (sp),y
	lda     _x
	dey
	sta     (sp),y
	lda     _y
	jsr     _get_ppu_addr
	sta     _address
	stx     _address+1
;
; index = (y & 0xf0);
;
	lda     _y
	and     #$F0
	sta     _index
;
; buffer_4_mt(address, index); // ppu_address, index to the data
;
	lda     _address
	ldx     _address+1
	jsr     pushax
	lda     _index
	jsr     _buffer_4_mt
;
; flush_vram_update2();
;
	jsr     _flush_vram_update2
;
; if (y == 0xe0)
;
	ldx     #$00
	lda     _y
	cmp     #$E0
;
; break;
;
	beq     L0031
;
; for (y = 0;; y += 0x20)
;
	lda     #$20
	clc
	adc     _y
	jmp     L0029
;
; set_data_pointer(stage1_levels_list[offset - 1]);
;
L0031:	lda     _offset
	sec
	sbc     #$01
	bcs     L0014
	dex
L0014:	stx     tmp1
	asl     a
	rol     tmp1
	clc
	adc     #<(_stage1_levels_list)
	sta     ptr1
	lda     tmp1
	adc     #>(_stage1_levels_list)
	sta     ptr1+1
	ldy     #$01
	lda     (ptr1),y
	tax
	dey
	lda     (ptr1),y
	jsr     _set_data_pointer
;
; for (y = 0;; y += 0x20)
;
	lda     #$00
L002A:	sta     _y
;
; x = 240;
;
	lda     #$F0
	sta     _x
;
; temp1 = (nametable_to_load + 1) % 2;
;
	ldx     #$00
	lda     _nametable_to_load
	clc
	adc     #$01
	bcc     L0019
	inx
L0019:	jsr     pushax
	ldx     #$00
	lda     #$02
	jsr     tosmoda0
	sta     _temp1
;
; address = get_ppu_addr(temp1, x, y);
;
	jsr     decsp2
	lda     _temp1
	ldy     #$01
	sta     (sp),y
	lda     _x
	dey
	sta     (sp),y
	lda     _y
	jsr     _get_ppu_addr
	sta     _address
	stx     _address+1
;
; index = y + (x >> 4);
;
	lda     _x
	lsr     a
	lsr     a
	lsr     a
	lsr     a
	clc
	adc     _y
	sta     _index
;
; buffer_4_mt(address, index); // ppu_address, index to the data
;
	lda     _address
	ldx     _address+1
	jsr     pushax
	lda     _index
	jsr     _buffer_4_mt
;
; flush_vram_update2();
;
	jsr     _flush_vram_update2
;
; if (y == 0xe0)
;
	lda     _y
	cmp     #$E0
;
; break;
;
	beq     L0032
;
; for (y = 0;; y += 0x20)
;
	lda     #$20
	clc
	adc     _y
	jmp     L002A
;
; map = room_to_load & 1; // even or odd?
;
L0032:	lda     _room_to_load
	and     #$01
	sta     _map
;
; if (!map)
;
	lda     _map
	bne     L001B
;
; memcpy(c_map, stage1_levels_list[offset], 240);
;
	lda     #<(_c_map)
	ldx     #>(_c_map)
	jsr     pushax
	ldx     #$00
	lda     _offset
	asl     a
	bcc     L002D
	inx
	clc
L002D:	adc     #<(_stage1_levels_list)
	sta     ptr1
	txa
	adc     #>(_stage1_levels_list)
	sta     ptr1+1
	ldy     #$01
	lda     (ptr1),y
	tax
	dey
	lda     (ptr1),y
	jsr     pushax
	ldx     #$00
	lda     #$F0
	jsr     _memcpy
;
; memcpy(c_map2, stage1_levels_list[offset - 1], 240);
;
	lda     #<(_c_map2)
	ldx     #>(_c_map2)
;
; else
;
	jmp     L0049
;
; memcpy(c_map2, stage1_levels_list[offset], 240);
;
L001B:	lda     #<(_c_map2)
	ldx     #>(_c_map2)
	jsr     pushax
	ldx     #$00
	lda     _offset
	asl     a
	bcc     L002E
	inx
	clc
L002E:	adc     #<(_stage1_levels_list)
	sta     ptr1
	txa
	adc     #>(_stage1_levels_list)
	sta     ptr1+1
	ldy     #$01
	lda     (ptr1),y
	tax
	dey
	lda     (ptr1),y
	jsr     pushax
	ldx     #$00
	lda     #$F0
	jsr     _memcpy
;
; memcpy(c_map, stage1_levels_list[offset - 1], 240);
;
	lda     #<(_c_map)
	ldx     #>(_c_map)
L0049:	jsr     pushax
	ldx     #$00
	lda     _offset
	sec
	sbc     #$01
	bcs     L001E
	dex
L001E:	stx     tmp1
	asl     a
	rol     tmp1
	clc
	adc     #<(_stage1_levels_list)
	sta     ptr1
	lda     tmp1
	adc     #>(_stage1_levels_list)
	sta     ptr1+1
	ldy     #$01
	lda     (ptr1),y
	tax
	dey
	lda     (ptr1),y
	jsr     pushax
	ldx     #$00
	lda     #$F0
	jsr     _memcpy
;
; max_rooms = level_max_rooms[level] - 1;
;
	ldy     _level
	lda     _level_max_rooms,y
	sec
	sbc     #$01
	sta     _max_rooms
;
; max_scroll = (max_rooms * 0x100) - 1; // 11 rooms makes 0x0AFF as the max
;
	tax
	lda     #$00
	sec
	sbc     #$01
	bcs     L0021
	dex
L0021:	sta     _max_scroll
	stx     _max_scroll+1
;
; sprite_obj_init();
;
	jsr     _sprite_obj_init
;
; entity_obj_init();
;
	jsr     _entity_obj_init
;
; ppu_on_all();
;
	jmp     _ppu_on_all

.endproc

; ---------------------------------------------------------------
; void __near__ draw_sprites (void)
; ---------------------------------------------------------------

.segment	"CODE"

.proc	_draw_sprites: near

.segment	"CODE"

;
; oam_clear();
;
	jsr     _oam_clear
;
; draw_player_sprites();
;
	jsr     _draw_player_sprites
;
; for (temp1 = 0; temp1 < MAX_PROJECTILES; ++temp1)
;
	lda     #$00
	sta     _temp1
L006E:	lda     _temp1
	cmp     #$03
	bcs     L0003
;
; if (projectiles_list[temp1] != TURN_OFF)
;
	ldy     _temp1
	lda     _projectiles_list,y
	cmp     #$FF
	beq     L006F
;
; temp6 = projectiles_y[temp1]; //+ sine_wave[frame_counter % 10];
;
	ldy     _temp1
	ldx     #$00
	lda     _projectiles_y,y
	sta     _temp6
	stx     _temp6+1
;
; if(projectile_big){
;
	lda     _projectile_big
	beq     L0009
;
; oam_meta_spr(projectiles_x[temp1], temp6, animate_orbBig_data);
;
	jsr     decsp2
	ldy     _temp1
	lda     _projectiles_x,y
	ldy     #$01
	sta     (sp),y
	lda     _temp6
	dey
	sta     (sp),y
	lda     #<(_animate_orbBig_data)
	ldx     #>(_animate_orbBig_data)
;
; } else {
;
	jmp     L006C
;
; oam_meta_spr(projectiles_x[temp1], temp6, animate_orb0_data);
;
L0009:	jsr     decsp2
	ldy     _temp1
	lda     _projectiles_x,y
	ldy     #$01
	sta     (sp),y
	lda     _temp6
	dey
	sta     (sp),y
	lda     #<(_animate_orb0_data)
	ldx     #>(_animate_orb0_data)
L006C:	jsr     _oam_meta_spr
;
; for (temp1 = 0; temp1 < MAX_PROJECTILES; ++temp1)
;
L006F:	inc     _temp1
	jmp     L006E
;
; offset = get_frame_count() & 3;
;
L0003:	jsr     _get_frame_count
	and     #$03
	sta     _offset
;
; offset = offset << 4; // * 16, the size of the shuffle array
;
	asl     a
	asl     a
	asl     a
	asl     a
	sta     _offset
;
; for (index = 0; index < MAX_ENEMY; ++index)
;
	lda     #$00
	sta     _index
L0070:	lda     _index
	cmp     #$10
	jcs     L000E
;
; index2 = shuffle_array[offset];
;
	ldy     _offset
	lda     _shuffle_array,y
	sta     _index2
;
; ++offset;
;
	inc     _offset
;
; temp_y = enemy_y[index2];
;
	ldy     _index2
	lda     _enemy_y,y
	sta     _temp_y
;
; if (temp_y == TURN_OFF)
;
	cmp     #$FF
;
; continue;
;
	jeq     L0074
;
; if (!enemy_active[index2] && enemy_mode[index2] != TURN_OFF)
;
	ldy     _index2
	lda     _enemy_active,y
	bne     L0014
	ldy     _index2
	lda     _enemy_mode,y
	cmp     #$FF
	bne     L0074
;
; temp_x = enemy_x[index2];
;
L0014:	ldy     _index2
	lda     _enemy_x,y
	sta     _temp_x
;
; if (temp_x == 0)
;
	lda     _temp_x
	bne     L0073
;
; temp_x = 1; // problems with x = 0
;
	lda     #$01
	sta     _temp_x
;
; if (temp_x > 0xf0)
;
L0073:	lda     _temp_x
	cmp     #$F1
;
; continue;
;
	bcs     L0074
;
; if (temp_y < 0xf0)
;
	lda     _temp_y
	cmp     #$F0
	bcs     L0074
;
; oam_meta_spr(temp_x, temp_y, enemy_anim[index2]);
;
	jsr     decsp2
	lda     _temp_x
	ldy     #$01
	sta     (sp),y
	lda     _temp_y
	dey
	sta     (sp),y
	ldx     #$00
	lda     _index2
	asl     a
	bcc     L006D
	inx
	clc
L006D:	adc     #<(_enemy_anim)
	sta     ptr1
	txa
	adc     #>(_enemy_anim)
	sta     ptr1+1
	iny
	lda     (ptr1),y
	tax
	dey
	lda     (ptr1),y
	jsr     _oam_meta_spr
;
; if (enemy_type[index2] == ENEMY_BEAR)
;
	ldy     _index2
	lda     _enemy_type,y
	cmp     #$02
	bne     L0074
;
; temp = enemy_health[index2];
;
	ldy     _index2
	lda     _enemy_health,y
	sta     _temp
;
; draw_health_meter();
;
	jsr     _draw_health_meter
;
; oam_meta_spr(0x28, 0x16, tempint2);
;
	jsr     decsp2
	lda     #$28
	ldy     #$01
	sta     (sp),y
	lda     #$16
	dey
	sta     (sp),y
	lda     _tempint2
	ldx     _tempint2+1
	jsr     _oam_meta_spr
;
; for (index = 0; index < MAX_ENEMY; ++index)
;
L0074:	inc     _index
	jmp     L0070
;
; offset = get_frame_count() & 3;
;
L000E:	jsr     _get_frame_count
	and     #$03
	sta     _offset
;
; offset = offset << 4; // * 16, the size of the shuffle array
;
	asl     a
	asl     a
	asl     a
	asl     a
	sta     _offset
;
; for (index = 0; index < MAX_ENTITY; ++index)
;
	lda     #$00
	sta     _index
L0075:	lda     _index
	cmp     #$10
	bcc     L007D
;
; }
;
	rts
;
; index2 = shuffle_array[offset];
;
L007D:	ldy     _offset
	lda     _shuffle_array,y
	sta     _index2
;
; ++offset;
;
	inc     _offset
;
; temp_y = entity_y[index2];
;
	ldy     _index2
	lda     _entity_y,y
	sta     _temp_y
;
; if (temp_y == TURN_OFF)
;
	cmp     #$FF
;
; continue;
;
	jeq     L007C
;
; if (!entity_active[index2])
;
	ldy     _index2
	lda     _entity_active,y
;
; continue;
;
	jeq     L007C
;
; temp_x = entity_x[index2];
;
	ldy     _index2
	lda     _entity_x,y
	sta     _temp_x
;
; if (temp_x == 0)
;
	lda     _temp_x
	bne     L0076
;
; temp_x = 1; // problems with x = 0
;
	lda     #$01
	sta     _temp_x
;
; if (temp_x > 0xf0)
;
L0076:	lda     _temp_x
	cmp     #$F1
;
; continue;
;
	jcs     L007C
;
; if (temp_y < 0xf0)
;
	lda     _temp_y
	cmp     #$F0
	jcs     L007C
;
; ++entity_frames[index2];
;
	lda     #<(_entity_frames)
	ldx     #>(_entity_frames)
	clc
	adc     _index2
	bcc     L002E
	inx
L002E:	sta     ptr1
	stx     ptr1+1
	ldy     #$00
	lda     #$01
	clc
	adc     (ptr1),y
	sta     (ptr1),y
;
; if (entity_type[index2] == ENTITY_STARBURST)
;
	ldy     _index2
	lda     _entity_type,y
	cmp     #$0C
	jne     L002F
;
; if(projectile_big && level == 6){
;
	lda     _projectile_big
	beq     L0031
	lda     _level
	cmp     #$06
	bne     L0031
;
; return; //hack for halfway
;
	rts
;
; if(!projectile_big && level == 0){
;
L0031:	lda     _projectile_big
	bne     L0035
	lda     _level
	bne     L0035
;
; return; // for beginning
;
	rts
;
; if (entity_frames[index2] < 20)
;
L0035:	ldy     _index2
	lda     _entity_frames,y
	cmp     #$14
	bcs     L0039
;
; tempint = animate_starburst1_data;
;
	lda     #>(_animate_starburst1_data)
	sta     _tempint+1
	lda     #<(_animate_starburst1_data)
	sta     _tempint
;
; else if (entity_frames[index2] < 40)
;
	jmp     L0044
L0039:	ldy     _index2
	lda     _entity_frames,y
	cmp     #$28
	bcs     L003C
;
; tempint = animate_starburst2_data;
;
	lda     #>(_animate_starburst2_data)
	sta     _tempint+1
	lda     #<(_animate_starburst2_data)
	sta     _tempint
;
; else if (entity_frames[index2] < 60)
;
	jmp     L0044
L003C:	ldy     _index2
	lda     _entity_frames,y
	cmp     #$3C
	bcs     L003F
;
; tempint = animate_starburst3_data;
;
	lda     #>(_animate_starburst3_data)
	sta     _tempint+1
	lda     #<(_animate_starburst3_data)
	sta     _tempint
;
; else if (entity_frames[index2] < 80)
;
	jmp     L0044
L003F:	ldy     _index2
	lda     _entity_frames,y
	cmp     #$50
	bcs     L0042
;
; tempint = animate_starburst2_data;
;
	lda     #>(_animate_starburst2_data)
	sta     _tempint+1
	lda     #<(_animate_starburst2_data)
	sta     _tempint
;
; else
;
	jmp     L0044
;
; tempint = animate_starburst1_data;
;
L0042:	lda     #>(_animate_starburst1_data)
	sta     _tempint+1
	lda     #<(_animate_starburst1_data)
	sta     _tempint
;
; entity_frames[index2] = 0;
;
	ldy     _index2
	lda     #$00
	sta     _entity_frames,y
;
; oam_meta_spr(temp_x, temp_y, tempint);
;
L0044:	jsr     decsp2
	lda     _temp_x
	ldy     #$01
	sta     (sp),y
	lda     _temp_y
	dey
	sta     (sp),y
	lda     _tempint
	ldx     _tempint+1
	jsr     _oam_meta_spr
;
; if (entity_type[index2] == ENTITY_WINE)
;
L002F:	ldy     _index2
	lda     _entity_type,y
	cmp     #$07
	bne     L0046
;
; oam_meta_spr(temp_x, temp_y, animate_wine_data);
;
	jsr     decsp2
	lda     _temp_x
	ldy     #$01
	sta     (sp),y
	lda     _temp_y
	dey
	sta     (sp),y
	lda     #<(_animate_wine_data)
	ldx     #>(_animate_wine_data)
	jsr     _oam_meta_spr
;
; if (entity_type[index2] == ENTITY_BREAD)
;
L0046:	ldy     _index2
	lda     _entity_type,y
	cmp     #$08
	bne     L0048
;
; if (entity_frames[index2] < 20)
;
	ldy     _index2
	lda     _entity_frames,y
	cmp     #$14
	bcs     L004A
;
; tempint = animate_bread2_data;
;
	lda     #>(_animate_bread2_data)
	sta     _tempint+1
	lda     #<(_animate_bread2_data)
	sta     _tempint
;
; else if (entity_frames[index2] < 40)
;
	jmp     L004F
L004A:	ldy     _index2
	lda     _entity_frames,y
	cmp     #$28
	bcs     L004D
;
; tempint = animate_bread2_data;
;
	lda     #>(_animate_bread2_data)
	sta     _tempint+1
	lda     #<(_animate_bread2_data)
	sta     _tempint
;
; else
;
	jmp     L004F
;
; tempint = animate_bread_data;
;
L004D:	lda     #>(_animate_bread_data)
	sta     _tempint+1
	lda     #<(_animate_bread_data)
	sta     _tempint
;
; entity_frames[index2] = 0;
;
	ldy     _index2
	lda     #$00
	sta     _entity_frames,y
;
; oam_meta_spr(temp_x, temp_y, tempint);
;
L004F:	jsr     decsp2
	lda     _temp_x
	ldy     #$01
	sta     (sp),y
	lda     _temp_y
	dey
	sta     (sp),y
	lda     _tempint
	ldx     _tempint+1
	jsr     _oam_meta_spr
;
; if (entity_type[index2] == ENTITY_ROCK){
;
L0048:	ldy     _index2
	lda     _entity_type,y
	cmp     #$0B
	bne     L0051
;
; tempint = animate_bouldersmall_data;
;
	lda     #>(_animate_bouldersmall_data)
	sta     _tempint+1
	lda     #<(_animate_bouldersmall_data)
	sta     _tempint
;
; oam_meta_spr(temp_x, temp_y, tempint);
;
	jsr     decsp2
	lda     _temp_x
	ldy     #$01
	sta     (sp),y
	lda     _temp_y
	dey
	sta     (sp),y
	lda     _tempint
	ldx     _tempint+1
	jsr     _oam_meta_spr
;
; if (entity_type[index2] == ENTITY_STARBURST2)
;
L0051:	ldy     _index2
	lda     _entity_type,y
	cmp     #$0A
	jne     L0053
;
; if (entity_frames[index2] < 20)
;
	ldy     _index2
	lda     _entity_frames,y
	cmp     #$14
	bcs     L0055
;
; tempint = animate_starburst1_data;
;
	lda     #>(_animate_starburst1_data)
	sta     _tempint+1
	lda     #<(_animate_starburst1_data)
	sta     _tempint
;
; else if (entity_frames[index2] < 40)
;
	jmp     L0060
L0055:	ldy     _index2
	lda     _entity_frames,y
	cmp     #$28
	bcs     L0058
;
; tempint = animate_starburst2_data;
;
	lda     #>(_animate_starburst2_data)
	sta     _tempint+1
	lda     #<(_animate_starburst2_data)
	sta     _tempint
;
; else if (entity_frames[index2] < 60)
;
	jmp     L0060
L0058:	ldy     _index2
	lda     _entity_frames,y
	cmp     #$3C
	bcs     L005B
;
; tempint = animate_starburst3_data;
;
	lda     #>(_animate_starburst3_data)
	sta     _tempint+1
	lda     #<(_animate_starburst3_data)
	sta     _tempint
;
; else if (entity_frames[index2] < 80)
;
	jmp     L0060
L005B:	ldy     _index2
	lda     _entity_frames,y
	cmp     #$50
	bcs     L005E
;
; tempint = animate_starburst2_data;
;
	lda     #>(_animate_starburst2_data)
	sta     _tempint+1
	lda     #<(_animate_starburst2_data)
	sta     _tempint
;
; else
;
	jmp     L0060
;
; tempint = animate_starburst1_data;
;
L005E:	lda     #>(_animate_starburst1_data)
	sta     _tempint+1
	lda     #<(_animate_starburst1_data)
	sta     _tempint
;
; entity_frames[index2] = 0;
;
	ldy     _index2
	lda     #$00
	sta     _entity_frames,y
;
; oam_meta_spr(temp_x, temp_y, tempint);
;
L0060:	jsr     decsp2
	lda     _temp_x
	ldy     #$01
	sta     (sp),y
	lda     _temp_y
	dey
	sta     (sp),y
	lda     _tempint
	ldx     _tempint+1
	jsr     _oam_meta_spr
;
; if (entity_type[index2] == ENTITY_BUN)
;
L0053:	ldy     _index2
	lda     _entity_type,y
	cmp     #$09
	bne     L007C
;
; if (entity_frames[index2] < 20)
;
	ldy     _index2
	lda     _entity_frames,y
	cmp     #$14
	bcs     L0064
;
; tempint = animate_bun_data;
;
	lda     #>(_animate_bun_data)
	sta     _tempint+1
	lda     #<(_animate_bun_data)
	sta     _tempint
;
; else if (entity_frames[index2] < 40)
;
	jmp     L0069
L0064:	ldy     _index2
	lda     _entity_frames,y
	cmp     #$28
	bcs     L0067
;
; tempint = animate_bun2_data;
;
	lda     #>(_animate_bun2_data)
	sta     _tempint+1
	lda     #<(_animate_bun2_data)
	sta     _tempint
;
; else
;
	jmp     L0069
;
; tempint = animate_bun_data;
;
L0067:	lda     #>(_animate_bun_data)
	sta     _tempint+1
	lda     #<(_animate_bun_data)
	sta     _tempint
;
; entity_frames[index2] = 0;
;
	ldy     _index2
	lda     #$00
	sta     _entity_frames,y
;
; oam_meta_spr(temp_x, temp_y, tempint);
;
L0069:	jsr     decsp2
	lda     _temp_x
	ldy     #$01
	sta     (sp),y
	lda     _temp_y
	dey
	sta     (sp),y
	lda     _tempint
	ldx     _tempint+1
	jsr     _oam_meta_spr
;
; for (index = 0; index < MAX_ENTITY; ++index)
;
L007C:	inc     _index
	jmp     L0075

.endproc

; ---------------------------------------------------------------
; void __near__ movement (void)
; ---------------------------------------------------------------

.segment	"CODE"

.proc	_movement: near

.segment	"CODE"

;
; if (death_flag > 0)
;
	lda     _death_flag
	beq     L00BE
;
; --death_flag;
;
	dec     _death_flag
;
; if (invul_frames > 0)
;
L00BE:	lda     _invul_frames
	beq     L0003
;
; --invul_frames;
;
	dec     _invul_frames
;
; if (player_in_hitstun)
;
L0003:	lda     _player_in_hitstun
	beq     L00BF
;
; --player_in_hitstun;
;
	dec     _player_in_hitstun
;
; if (player_in_hitstun > 0)
;
L00BF:	lda     _player_in_hitstun
	beq     L000C
;
; if (hit_direction == RIGHT)
;
	lda     _hit_direction
	cmp     #$01
	bne     L0006
;
; BoxGuy1.vel_x += HITSTUN_DECEL;
;
	lda     #$2D
	clc
	adc     _BoxGuy1+4
	sta     _BoxGuy1+4
	bcc     L0007
	inc     _BoxGuy1+4+1
;
; if (BoxGuy1.vel_x >= MAX_SPEED)
;
L0007:	lda     _BoxGuy1+4
	cmp     #$60
	lda     _BoxGuy1+4+1
	sbc     #$01
	bvs     L0009
	eor     #$80
L0009:	bpl     L000C
;
; BoxGuy1.vel_x = MAX_SPEED;
;
	ldx     #$01
	lda     #$60
;
; else
;
	jmp     L00FA
;
; BoxGuy1.vel_x -= HITSTUN_DECEL;
;
L0006:	lda     _BoxGuy1+4
	sec
	sbc     #$2D
	sta     _BoxGuy1+4
	bcs     L000B
	dec     _BoxGuy1+4+1
;
; if (BoxGuy1.vel_x < -MAX_SPEED)
;
L000B:	lda     _BoxGuy1+4
	cmp     #$A0
	lda     _BoxGuy1+4+1
	sbc     #$FE
	bvc     L000D
	eor     #$80
L000D:	bpl     L000C
;
; BoxGuy1.vel_x = -MAX_SPEED;
;
	ldx     #$FE
	lda     #$A0
L00FA:	sta     _BoxGuy1+4
	stx     _BoxGuy1+4+1
;
; old_x = BoxGuy1.x;
;
L000C:	lda     _BoxGuy1+1
	sta     _old_x+1
	lda     _BoxGuy1
	sta     _old_x
;
; if (pad1 & PAD_LEFT && !player_in_hitstun  && !player_is_sliding)
;
	lda     _pad1
	and     #$02
	beq     L00C3
	lda     _player_in_hitstun
	bne     L00C3
	lda     _player_is_sliding
	bne     L00C3
;
; direction = LEFT;
;
	sta     _direction
;
; player_is_running = 1;
;
	lda     #$01
	sta     _player_is_running
;
; if (!player_on_ladder)
;
	lda     _player_on_ladder
	jne     L00CB
;
; if (BoxGuy1.vel_x >= DECEL)
;
	lda     _BoxGuy1+4
	cmp     #$32
	lda     _BoxGuy1+4+1
	sbc     #$00
	bvs     L0014
	eor     #$80
L0014:	bpl     L0013
;
; BoxGuy1.vel_x -= DECEL;
;
	lda     _BoxGuy1+4
	sec
	sbc     #$32
	sta     _BoxGuy1+4
	jcs     L00CB
	dec     _BoxGuy1+4+1
;
; else if (BoxGuy1.vel_x > 0)
;
	jmp     L00CB
L0013:	lda     _BoxGuy1+4
	cmp     #$01
	lda     _BoxGuy1+4+1
	sbc     #$00
	bvs     L0018
	eor     #$80
L0018:	bpl     L0017
;
; BoxGuy1.vel_x = 0;
;
	ldx     #$00
	txa
;
; else
;
	jmp     L00CA
;
; BoxGuy1.vel_x -= ACCEL;
;
L0017:	lda     _BoxGuy1+4
	sec
	sbc     #$1E
	sta     _BoxGuy1+4
	bcs     L001A
	dec     _BoxGuy1+4+1
;
; if (BoxGuy1.vel_x < -MAX_SPEED)
;
L001A:	lda     _BoxGuy1+4
	cmp     #$A0
	lda     _BoxGuy1+4+1
	sbc     #$FE
	bvc     L001C
	eor     #$80
L001C:	jpl     L00CB
;
; BoxGuy1.vel_x = -MAX_SPEED;
;
	ldx     #$FE
	lda     #$A0
;
; else if (pad1 & PAD_RIGHT && !player_in_hitstun && !player_is_sliding)
;
	jmp     L00CA
L00C3:	lda     _pad1
	and     #$01
	beq     L00C8
	lda     _player_in_hitstun
	bne     L00C4
	lda     _player_is_sliding
	beq     L00C6
L00C4:	lda     #$00
	jmp     L00C8
;
; direction = RIGHT;
;
L00C6:	lda     #$01
	sta     _direction
;
; player_is_running = 1;
;
	sta     _player_is_running
;
; if (!player_on_ladder)
;
	lda     _player_on_ladder
	jne     L00CB
;
; if (BoxGuy1.vel_x <= DECEL)
;
	lda     _BoxGuy1+4
	cmp     #$33
	lda     _BoxGuy1+4+1
	sbc     #$00
	bvc     L0024
	eor     #$80
L0024:	bpl     L0023
;
; BoxGuy1.vel_x += DECEL;
;
	lda     #$32
	clc
	adc     _BoxGuy1+4
	sta     _BoxGuy1+4
	jcc     L00CB
	inc     _BoxGuy1+4+1
;
; else if (BoxGuy1.vel_x < 0)
;
	jmp     L00CB
L0023:	ldx     _BoxGuy1+4+1
	cpx     #$80
	bcc     L0027
;
; BoxGuy1.vel_x = 0;
;
	ldx     #$00
	txa
;
; else
;
	jmp     L00CA
;
; BoxGuy1.vel_x += ACCEL;
;
L0027:	lda     #$1E
	clc
	adc     _BoxGuy1+4
	sta     _BoxGuy1+4
	bcc     L0029
	inc     _BoxGuy1+4+1
;
; if (BoxGuy1.vel_x >= MAX_SPEED)
;
L0029:	lda     _BoxGuy1+4
	cmp     #$60
	lda     _BoxGuy1+4+1
	sbc     #$01
	bvs     L002B
	eor     #$80
L002B:	bpl     L00CB
;
; BoxGuy1.vel_x = MAX_SPEED;
;
	ldx     #$01
	lda     #$60
;
; else
;
	jmp     L00CA
;
; player_is_running = 0;
;
L00C8:	sta     _player_is_running
;
; if (BoxGuy1.vel_x >= ACCEL)
;
	lda     _BoxGuy1+4
	cmp     #$1E
	lda     _BoxGuy1+4+1
	sbc     #$00
	bvs     L002E
	eor     #$80
L002E:	bpl     L002D
;
; BoxGuy1.vel_x -= ACCEL;
;
	lda     _BoxGuy1+4
	sec
	sbc     #$1E
	sta     _BoxGuy1+4
	bcs     L00CB
	dec     _BoxGuy1+4+1
;
; else if (BoxGuy1.vel_x < -ACCEL)
;
	jmp     L00CB
L002D:	lda     _BoxGuy1+4
	cmp     #$E2
	lda     _BoxGuy1+4+1
	sbc     #$FF
	bvc     L0032
	eor     #$80
L0032:	asl     a
	lda     #$00
	tax
	bcc     L00CA
;
; BoxGuy1.vel_x += ACCEL;
;
	lda     #$1E
	clc
	adc     _BoxGuy1+4
	sta     _BoxGuy1+4
	bcc     L00CB
	inc     _BoxGuy1+4+1
;
; else
;
	jmp     L00CB
;
; BoxGuy1.vel_x = 0;
;
L00CA:	sta     _BoxGuy1+4
	stx     _BoxGuy1+4+1
;
; if(player_is_sliding > 0){
;
L00CB:	lda     _player_is_sliding
	beq     L0037
;
; --player_is_sliding;
;
	dec     _player_is_sliding
;
; if(direction == LEFT){
;
	lda     _direction
	bne     L0036
;
; BoxGuy1.vel_x = -MAX_SLIDE_SPEED;
;
	ldx     #$FE
;
; } else {
;
	jmp     L0100
;
; BoxGuy1.vel_x = MAX_SLIDE_SPEED;
;
L0036:	ldx     #$01
L0100:	lda     #$80
	sta     _BoxGuy1+4
	stx     _BoxGuy1+4+1
;
; BoxGuy1.x += BoxGuy1.vel_x;
;
L0037:	lda     _BoxGuy1+4
	clc
	adc     _BoxGuy1
	sta     _BoxGuy1
	lda     _BoxGuy1+4+1
	adc     _BoxGuy1+1
	sta     _BoxGuy1+1
;
; if (BoxGuy1.x > 0xf000)
;
	lda     _BoxGuy1
	cmp     #$01
	lda     _BoxGuy1+1
	sbc     #$F0
	bcc     L00CE
;
; if (old_x >= 0x8000)
;
	lda     _old_x
	cmp     #$00
	lda     _old_x+1
	sbc     #$80
	lda     #$00
	tax
	bcc     L00CD
;
; BoxGuy1.x = 0xf000; // max right
;
	ldx     #$F0
;
; BoxGuy1.x = 0x0000; // max left
;
L00CD:	sta     _BoxGuy1
	stx     _BoxGuy1+1
;
; BoxGuy1.vel_x = 0;
;
	sta     _BoxGuy1+4
	sta     _BoxGuy1+4+1
;
; Generic.x = high_byte(BoxGuy1.x); // this is much faster than passing a pointer to BoxGuy1
;
L00CE:	lda     _BoxGuy1+1
	sta     _Generic
;
; Generic.y = high_byte(BoxGuy1.y);
;
	lda     _BoxGuy1+3
	sta     _Generic+1
;
; Generic.width = HERO_WIDTH;
;
	lda     #$0E
	sta     _Generic+2
;
; Generic.height = HERO_HEIGHT;
;
	sta     _Generic+3
;
; if (BoxGuy1.vel_x < 0)
;
	ldx     _BoxGuy1+4+1
	cpx     #$80
	bcc     L003B
;
; if (bg_coll_L())
;
	jsr     _bg_coll_L
	tax
	beq     L0042
;
; high_byte(BoxGuy1.x) = high_byte(BoxGuy1.x) - eject_L;
;
	lda     _BoxGuy1+1
	sec
	sbc     _eject_L
	sta     _BoxGuy1+1
;
; BoxGuy1.vel_x = 0;
;
	lda     #$00
	sta     _BoxGuy1+4
	sta     _BoxGuy1+4+1
;
; if (BoxGuy1.x > 0xf000)
;
	lda     _BoxGuy1
	cmp     #$01
	lda     _BoxGuy1+1
	sbc     #$F0
	bcc     L0042
;
; BoxGuy1.x = 0xf000;
;
	ldx     #$F0
;
; else if (BoxGuy1.vel_x > 0)
;
	jmp     L0101
L003B:	lda     _BoxGuy1+4
	cmp     #$01
	lda     _BoxGuy1+4+1
	sbc     #$00
	bvs     L0040
	eor     #$80
L0040:	bpl     L0042
;
; if (bg_coll_R())
;
	jsr     _bg_coll_R
	tax
	beq     L0042
;
; high_byte(BoxGuy1.x) = high_byte(BoxGuy1.x) - eject_R;
;
	lda     _BoxGuy1+1
	sec
	sbc     _eject_R
	sta     _BoxGuy1+1
;
; BoxGuy1.vel_x = 0;
;
	lda     #$00
	sta     _BoxGuy1+4
	sta     _BoxGuy1+4+1
;
; if (BoxGuy1.x > 0xf000)
;
	lda     _BoxGuy1
	cmp     #$01
	lda     _BoxGuy1+1
	sbc     #$F0
	bcc     L0042
;
; BoxGuy1.x = 0x0000;
;
	ldx     #$00
L0101:	lda     #$00
	sta     _BoxGuy1
	stx     _BoxGuy1+1
;
; if (player_on_ladder && (bg_coll_ladder() || bg_coll_ladder_top_under_player()))
;
L0042:	lda     _player_on_ladder
	jeq     L0043
	jsr     _bg_coll_ladder
	tax
	bne     L00D3
	jsr     _bg_coll_ladder_top_under_player
	tax
	jeq     L0043
;
; if (pad1 & PAD_DOWN)
;
L00D3:	lda     _pad1
	and     #$04
	beq     L00D6
;
; direction_y = DOWN;
;
	lda     #$04
	sta     _direction_y
;
; ++player_on_ladder_pose;
;
	inc     _player_on_ladder_pose
;
; BoxGuy1.vel_y += LADDER_ACCEL;
;
	lda     #$14
	clc
	adc     _BoxGuy1+6
	sta     _BoxGuy1+6
	bcc     L004A
	inc     _BoxGuy1+6+1
;
; if (BoxGuy1.vel_y > MAX_LADDER_SPEED)
;
L004A:	lda     _BoxGuy1+6
	cmp     #$01
	lda     _BoxGuy1+6+1
	sbc     #$01
	bvs     L004C
	eor     #$80
L004C:	asl     a
	lda     #$00
	bcc     L00D5
;
; BoxGuy1.vel_y = MAX_LADDER_SPEED;
;
	ldx     #$01
	sta     _BoxGuy1+6
	stx     _BoxGuy1+6+1
;
; player_on_ladder_top = 0;
;
L00D5:	sta     _player_on_ladder_top
;
; else if (pad1 & PAD_UP)
;
	jmp     L00DB
L00D6:	lda     _pad1
	and     #$08
	beq     L00D8
;
; direction_y = UP;
;
	lda     #$03
	sta     _direction_y
;
; ++player_on_ladder_pose;
;
	inc     _player_on_ladder_pose
;
; BoxGuy1.vel_y -= LADDER_ACCEL;
;
	lda     _BoxGuy1+6
	sec
	sbc     #$14
	sta     _BoxGuy1+6
	bcs     L004F
	dec     _BoxGuy1+6+1
;
; if (BoxGuy1.vel_y < -MAX_LADDER_SPEED)
;
L004F:	lda     _BoxGuy1+6
	cmp     #$00
	lda     _BoxGuy1+6+1
	sbc     #$FF
	bvc     L0051
	eor     #$80
L0051:	bpl     L0050
;
; BoxGuy1.vel_y = -MAX_LADDER_SPEED;
;
	ldx     #$FF
	lda     #$00
	sta     _BoxGuy1+6
	stx     _BoxGuy1+6+1
;
; if (bg_coll_ladder_top_under_player())
;
L0050:	jsr     _bg_coll_ladder_top_under_player
	tax
	beq     L00DB
;
; ++player_on_ladder_top;
;
	inc     _player_on_ladder_top
;
; if (player_on_ladder_top > 10)
;
	lda     _player_on_ladder_top
	cmp     #$0B
	bcc     L00DB
;
; if (BoxGuy1.vel_y = -MAX_LADDER_SPEED)
;
	lda     #$00
	sta     _BoxGuy1+6
;
; BoxGuy1.y -= 0x200;
;
	lda     _BoxGuy1+2
	sec
	sta     _BoxGuy1+2
	lda     _BoxGuy1+2+1
	sbc     #$02
;
; BoxGuy1.y -= 0x800;
;
	sta     _BoxGuy1+2+1
;
; player_on_ladder_top = 0;
;
	lda     #$00
	sta     _player_on_ladder_top
;
; player_on_ladder = 0;
;
	sta     _player_on_ladder
;
; else
;
	jmp     L00DB
;
; BoxGuy1.vel_y = 0;
;
L00D8:	sta     _BoxGuy1+6
	sta     _BoxGuy1+6+1
;
; else
;
	jmp     L00DB
;
; if (player_on_ladder && bg_coll_ladder_top_under_player())
;
L0043:	lda     _player_on_ladder
	beq     L0058
	jsr     _bg_coll_ladder_top_under_player
	tax
	beq     L0058
;
; player_on_ladder = 0;
;
	lda     #$00
	sta     _player_on_ladder
;
; if (BoxGuy1.vel_y < 0x300)
;
L0058:	lda     _BoxGuy1+6
	cmp     #$00
	lda     _BoxGuy1+6+1
	sbc     #$03
	bvc     L005D
	eor     #$80
L005D:	bpl     L005C
;
; BoxGuy1.vel_y += GRAVITY;
;
	lda     #$3C
	clc
	adc     _BoxGuy1+6
	sta     _BoxGuy1+6
	bcc     L00DB
	inc     _BoxGuy1+6+1
;
; else
;
	jmp     L00DB
;
; BoxGuy1.vel_y = 0x300; // consistent
;
L005C:	ldx     #$03
	lda     #$00
	sta     _BoxGuy1+6
	stx     _BoxGuy1+6+1
;
; if (pad1 & PAD_DOWN)
;
L00DB:	lda     _pad1
	and     #$04
	beq     L0061
;
; direction_y = DOWN;
;
	lda     #$04
	sta     _direction_y
;
; if (bg_coll_ladder_top_under_player())
;
	jsr     _bg_coll_ladder_top_under_player
	tax
	beq     L0061
;
; BoxGuy1.x = (BoxGuy1.x + 0x700) & ~0xF00; // tried to square the player to the ladder
;
	lda     _BoxGuy1
	sta     _BoxGuy1
	lda     _BoxGuy1+1
	clc
	adc     #$07
	and     #$F0
	sta     _BoxGuy1+1
;
; player_on_ladder = 1;
;
	lda     #$01
	sta     _player_on_ladder
;
; player_on_ladder_pose = 0;
;
	lda     #$00
	sta     _player_on_ladder_pose
;
; player_in_air = 0;
;
	sta     _player_in_air
;
; falling_down = 0;
;
	sta     _falling_down
;
; BoxGuy1.vel_y = 0;
;
	sta     _BoxGuy1+6
	sta     _BoxGuy1+6+1
;
; BoxGuy1.vel_x = 0;
;
	sta     _BoxGuy1+4
	sta     _BoxGuy1+4+1
;
; BoxGuy1.y += 0x100;
;
	clc
	lda     _BoxGuy1+2
	sta     _BoxGuy1+2
	lda     #$01
	adc     _BoxGuy1+2+1
	sta     _BoxGuy1+2+1
;
; BoxGuy1.y += BoxGuy1.vel_y; // add gravity to y; (make him go up or down)
;
L0061:	lda     _BoxGuy1+6
	clc
	adc     _BoxGuy1+2
	sta     _BoxGuy1+2
	lda     _BoxGuy1+6+1
	adc     _BoxGuy1+2+1
	sta     _BoxGuy1+2+1
;
; if (BoxGuy1.y > 0xf000)   // limit how high he can go
;
	lda     _BoxGuy1+2
	cmp     #$01
	lda     _BoxGuy1+2+1
	sbc     #$F0
	bcc     L00DC
;
; BoxGuy1.y = 0x0000;
;
	lda     #$00
	sta     _BoxGuy1+2
	sta     _BoxGuy1+2+1
;
; Generic.x = high_byte(BoxGuy1.x);
;
L00DC:	lda     _BoxGuy1+1
	sta     _Generic
;
; Generic.y = high_byte(BoxGuy1.y);
;
	lda     _BoxGuy1+3
	sta     _Generic+1
;
; if (BoxGuy1.vel_y > 0) // he's falling
;
	lda     _BoxGuy1+6
	cmp     #$01
	lda     _BoxGuy1+6+1
	sbc     #$00
	bvs     L0064
	eor     #$80
L0064:	bpl     L0063
;
; ++falling_down;
;
	inc     _falling_down
;
; if (falling_down > 2 && !player_on_ladder)
;
	lda     _falling_down
	cmp     #$03
	bcc     L0065
	lda     _player_on_ladder
	bne     L0065
;
; player_in_air = 1;
;
	lda     #$01
	sta     _player_in_air
;
; if (bg_coll_D()) // if he's collising below
;
L0065:	jsr     _bg_coll_D
	tax
	beq     L00E0
;
; player_in_air = 0;
;
	lda     #$00
	sta     _player_in_air
;
; falling_down = 0;
;
	sta     _falling_down
;
; multi_jump = 0;
;
	sta     _multi_jump
;
; player_on_ladder = 0;
;
	sta     _player_on_ladder
;
; high_byte(BoxGuy1.y) = high_byte(BoxGuy1.y) - eject_D;
;
	lda     _BoxGuy1+3
	sec
	sbc     _eject_D
	sta     _BoxGuy1+3
;
; BoxGuy1.y &= 0xff00;
;
	ldx     _BoxGuy1+2+1
	lda     #$00
	sta     _BoxGuy1+2
	stx     _BoxGuy1+2+1
;
; if (BoxGuy1.vel_y > 0)
;
	lda     _BoxGuy1+6
	cmp     #$01
	lda     _BoxGuy1+6+1
	sbc     #$00
	bvs     L006B
	eor     #$80
L006B:	bpl     L00E0
;
; else if (BoxGuy1.vel_y < 0)
;
	jmp     L0102
L0063:	ldx     _BoxGuy1+6+1
	cpx     #$80
	bcc     L00E0
;
; if (bg_coll_U())
;
	jsr     _bg_coll_U
	tax
	beq     L00E0
;
; high_byte(BoxGuy1.y) = high_byte(BoxGuy1.y) - eject_U;
;
	lda     _BoxGuy1+3
	sec
	sbc     _eject_U
	sta     _BoxGuy1+3
;
; BoxGuy1.vel_y = 0;
;
L0102:	lda     #$00
	sta     _BoxGuy1+6
	sta     _BoxGuy1+6+1
;
; Generic.y = high_byte(BoxGuy1.y); // the rest should be the same
;
L00E0:	lda     _BoxGuy1+3
	sta     _Generic+1
;
; if (projectile_cooldown > 0)
;
	lda     _projectile_cooldown
	beq     L00E1
;
; --projectile_cooldown;
;
	dec     _projectile_cooldown
;
; if (pad1_new & PAD_UP || pad1_state & PAD_UP) // on trigger or hold
;
L00E1:	lda     _pad1_new
	and     #$08
	bne     L00E2
	lda     _pad1_state
	and     #$08
	beq     L00E4
;
; direction_y = UP;
;
L00E2:	lda     #$03
	sta     _direction_y
;
; if (!player_on_ladder && bg_coll_ladder())
;
	lda     _player_on_ladder
	bne     L00E4
	jsr     _bg_coll_ladder
	tax
	beq     L00E4
;
; BoxGuy1.x = (BoxGuy1.x + 0x700) & ~0xF00;
;
	lda     _BoxGuy1
	sta     _BoxGuy1
	lda     _BoxGuy1+1
	clc
	adc     #$07
	and     #$F0
	sta     _BoxGuy1+1
;
; player_on_ladder_pose = 0;
;
	lda     #$00
	sta     _player_on_ladder_pose
;
; player_on_ladder = 1;
;
	lda     #$01
	sta     _player_on_ladder
;
; player_in_air = 0;
;
	lda     #$00
	sta     _player_in_air
;
; falling_down = 0;
;
	sta     _falling_down
;
; BoxGuy1.vel_y = 0;
;
	sta     _BoxGuy1+6
	sta     _BoxGuy1+6+1
;
; BoxGuy1.vel_x = 0;
;
	sta     _BoxGuy1+4
	sta     _BoxGuy1+4+1
;
; if(pad1_state & PAD_DOWN && pad1_new & PAD_A && !player_on_ladder){
;
L00E4:	lda     _pad1_state
	and     #$04
	beq     L00E8
	lda     _pad1_new
	and     #$80
	beq     L00E8
	lda     _player_on_ladder
	bne     L00E8
;
; player_is_sliding = 25;
;
	lda     #$19
	sta     _player_is_sliding
;
; } else if (pad1_new & PAD_A && !player_in_hitstun && !player_is_sliding)
;
	jmp     L00ED
L00E8:	lda     _pad1_new
	and     #$80
	beq     L00ED
	lda     _player_in_hitstun
	bne     L00ED
	lda     _player_is_sliding
	bne     L00ED
;
; if (player_on_ladder)   
;
	lda     _player_on_ladder
	beq     L0080
;
; player_on_ladder = 0;  
;
	lda     #$00
	sta     _player_on_ladder
;
; player_on_ladder_top = 0;
;
	sta     _player_on_ladder_top
;
; player_in_air = 1;
;
	lda     #$01
;
; else if (bg_coll_D() || multi_jump < multi_jump_max)
;
	jmp     L00BC
L0080:	jsr     _bg_coll_D
	tax
	bne     L00EC
	lda     _multi_jump
	cmp     _multi_jump_max
	bcs     L00ED
;
; ++multi_jump;
;
L00EC:	inc     _multi_jump
;
; BoxGuy1.vel_y = JUMP_VEL; // JUMP
;
	ldx     #$FA
	lda     #$F0
	sta     _BoxGuy1+6
	stx     _BoxGuy1+6+1
;
; sfx_play(SFX_JUMP, 0);
;
	lda     #$05
	jsr     pusha
	lda     #$00
	jsr     _sfx_play
;
; short_jump_count = 1;
;
	lda     #$01
	sta     _short_jump_count
;
; player_in_air = 1;
;
L00BC:	sta     _player_in_air
;
; if (pad1_new & PAD_B && projectile_cooldown == 0 && !player_in_hitstun && !player_is_sliding) // shooting
;
L00ED:	lda     _pad1_new
	and     #$40
	jeq     L008F
	lda     _projectile_cooldown
	jne     L008F
	lda     _player_in_hitstun
	bne     L008F
	lda     _player_is_sliding
	bne     L008F
;
; for (temp1 = 0; temp1 < MAX_PROJECTILES; ++temp1)
;
	sta     _temp1
L00F1:	lda     _temp1
	cmp     #$03
	bcs     L008A
;
; if (projectiles_list[temp1] == TURN_OFF)
;
	ldy     _temp1
	lda     _projectiles_list,y
	cmp     #$FF
	bne     L00F2
;
; temp2 = 1;
;
	lda     #$01
	sta     _temp2
;
; break;
;
	jmp     L008A
;
; for (temp1 = 0; temp1 < MAX_PROJECTILES; ++temp1)
;
L00F2:	inc     _temp1
	jmp     L00F1
;
; if (temp2)
;
L008A:	lda     _temp2
	beq     L008F
;
; projectile_cooldown = PROJECTILE_COOLDOWN_FRAMES;
;
	lda     #$0A
	sta     _projectile_cooldown
;
; player_shooting = 10;
;
	sta     _player_shooting
;
; projectile_index = temp1;
;
	lda     _temp1
	sta     _projectile_index
;
; if (direction == RIGHT)
;
	lda     _direction
	cmp     #$01
	bne     L0090
;
; projectiles_list[projectile_index] = RIGHT;
;
	ldy     _projectile_index
;
; else
;
	jmp     L00BD
;
; projectiles_list[projectile_index] = LEFT;
;
L0090:	ldy     _projectile_index
	lda     #$00
L00BD:	sta     _projectiles_list,y
;
; projectiles_x[projectile_index] = high_byte(BoxGuy1.x) + 10;
;
	lda     #<(_projectiles_x)
	ldx     #>(_projectiles_x)
	clc
	adc     _projectile_index
	bcc     L0094
	inx
L0094:	sta     ptr1
	stx     ptr1+1
	lda     _BoxGuy1+1
	clc
	adc     #$0A
	ldy     #$00
	sta     (ptr1),y
;
; projectiles_y[projectile_index] = high_byte(BoxGuy1.y);
;
	ldy     _projectile_index
	lda     _BoxGuy1+3
	sta     _projectiles_y,y
;
; sfx_play(SFX_SHOOT, 0);
;
	lda     #$00
	jsr     pusha
	jsr     _sfx_play
;
; if (short_jump_count)
;
L008F:	lda     _short_jump_count
	beq     L0098
;
; ++short_jump_count;
;
	inc     _short_jump_count
;
; if (short_jump_count > 30)
;
	lda     _short_jump_count
	cmp     #$1F
	bcc     L0098
;
; short_jump_count = 0;
;
	lda     #$00
	sta     _short_jump_count
;
; if ((short_jump_count) && ((pad1 & PAD_A) == 0) && (BoxGuy1.vel_y < -0x200))
;
L0098:	lda     _short_jump_count
	beq     L00FF
	lda     _pad1
	ldx     #$00
	and     #$80
	bne     L00F5
	lda     _BoxGuy1+6
	cmp     #$00
	lda     _BoxGuy1+6+1
	sbc     #$FE
	bvc     L009C
	eor     #$80
L009C:	bpl     L00F5
;
; BoxGuy1.vel_y = -0x200;
;
	ldx     #$FE
	lda     #$00
	sta     _BoxGuy1+6
	stx     _BoxGuy1+6+1
;
; short_jump_count = 0;
;
	sta     _short_jump_count
;
; temp5 = low_byte(scroll_x) + high_byte(BoxGuy1.x);
;
L00FF:	tax
L00F5:	lda     _scroll_x
	clc
	adc     _BoxGuy1+1
	bcc     L00B2
	inx
L00B2:	sta     _temp5
	stx     _temp5+1
;
; if (temp5 > 0x98 && temp5 < 0xa4) // middle of the screen
;
	cmp     #$99
	txa
	sbc     #$00
	bcc     L009F
	lda     _temp5+1
	cmp     #$00
	bne     L00A1
	lda     _temp5
	cmp     #$A4
L00A1:	bcs     L009F
;
; map_loaded = 0;
;
	lda     #$00
	sta     _map_loaded
;
; temp5 = BoxGuy1.x; // store his x before we check the scrolling
;
L009F:	lda     _BoxGuy1+1
	sta     _temp5+1
	lda     _BoxGuy1
	sta     _temp5
;
; if (BoxGuy1.x < MAX_LEFT)
;
	ldx     _BoxGuy1+1
	cpx     #$40
	jcs     L00AA
;
; if (!map_loaded)
;
	lda     _map_loaded
	bne     L00A5
;
; room_to_load = ((scroll_x >> 8) - 1); // high byte = room, one to the left
;
	lda     _scroll_x+1
	sec
	sbc     #$01
	sta     _room_to_load
;
; new_cmap();
;
	jsr     _new_cmap
;
; map_loaded = 1; // only do once
;
	lda     #$01
	sta     _map_loaded
;
; temp1 = (MAX_LEFT - BoxGuy1.x) >> 8;
;
L00A5:	lda     #$00
	sec
	sbc     _BoxGuy1
	lda     #$40
	sbc     _BoxGuy1+1
	sta     _temp1
;
; if (temp1 > 3)
;
	cmp     #$04
	bcc     L00A7
;
; temp1 = 3; // max scroll change
;
	lda     #$03
	sta     _temp1
;
; tempint = scroll_x + high_byte(BoxGuy1.x);
;
L00A7:	lda     _scroll_x
	ldx     _scroll_x+1
	clc
	adc     _BoxGuy1+1
	bcc     L00B3
	inx
L00B3:	sta     _tempint
	stx     _tempint+1
;
; current_room = (tempint >> 8);
;
	lda     _tempint+1
	sta     _current_room
;
; if (max_rooms >= 1) // this is for the multi-room levels
;
	lda     _max_rooms
	beq     L00AA
;
; if ((scroll_x - temp1) > max_scroll) // if subtracting the scroll makes it overflow
;
	lda     _scroll_x
	sec
	sbc     _temp1
	pha
	lda     _scroll_x+1
	sbc     #$00
	tax
	pla
	sec
	sbc     _max_scroll
	sta     tmp1
	txa
	sbc     _max_scroll+1
	ora     tmp1
	bcc     L00A9
	beq     L00A9
;
; scroll_x = 0; // just go to zero (and move the guy)
;
	lda     #$00
	sta     _scroll_x
	sta     _scroll_x+1
;
; else // otherwise scroll the window and offset the guy's movement
;
	jmp     L00AA
;
; scroll_x -= temp1;                  // scroll the window
;
L00A9:	lda     _temp1
	eor     #$FF
	sec
	adc     _scroll_x
	sta     _scroll_x
	lda     #$FF
	adc     _scroll_x+1
	sta     _scroll_x+1
;
; high_byte(BoxGuy1.x) = high_byte(BoxGuy1.x) + temp1; // add the offset to the guy
;
	lda     _BoxGuy1+1
	clc
	adc     _temp1
	sta     _BoxGuy1+1
;
; if (BoxGuy1.x > MAX_RIGHT)
;
L00AA:	lda     _BoxGuy1
	cmp     #$01
	lda     _BoxGuy1+1
	sbc     #$90
	bcc     L00AF
;
; if (!map_loaded) // gets reset whenever the player's in the middle of the level
;
	lda     _map_loaded
	bne     L00AC
;
; room_to_load = ((scroll_x >> 8) + 1); // high byte = room, one to the left
;
	lda     _scroll_x+1
	clc
	adc     #$01
	sta     _room_to_load
;
; new_cmap();
;
	jsr     _new_cmap
;
; map_loaded = 1; // only do once
;
	lda     #$01
	sta     _map_loaded
;
; temp1 = (BoxGuy1.x - MAX_RIGHT) >> 8;
;
L00AC:	lda     _BoxGuy1+1
	sec
	sbc     #$90
	sta     _temp1
;
; if (temp1 > 3)
;
	cmp     #$04
	bcc     L00F9
;
; temp1 = 3; // max scroll change
;
	lda     #$03
	sta     _temp1
;
; if (max_rooms >= 1) // used for single room levels
;
L00F9:	lda     _max_rooms
	beq     L00AF
;
; scroll_x += temp1;                  // scroll the window
;
	lda     _temp1
	clc
	adc     _scroll_x
	sta     _scroll_x
	lda     #$00
	adc     _scroll_x+1
	sta     _scroll_x+1
;
; high_byte(BoxGuy1.x) = high_byte(BoxGuy1.x) - temp1; // sub the offet from the guy
;
	lda     _BoxGuy1+1
	sec
	sbc     _temp1
	sta     _BoxGuy1+1
;
; if (scroll_x >= max_scroll)
;
L00AF:	lda     _scroll_x
	cmp     _max_scroll
	lda     _scroll_x+1
	sbc     _max_scroll+1
	bcc     L00B1
;
; scroll_x = max_scroll;      // stop scrolling right, end of level
;
	lda     _max_scroll+1
	sta     _scroll_x+1
	lda     _max_scroll
	sta     _scroll_x
;
; BoxGuy1.x = temp5;        // but allow the x position to go all the way right
;
	lda     _temp5+1
	sta     _BoxGuy1+1
	lda     _temp5
	sta     _BoxGuy1
;
; if (high_byte(BoxGuy1.x) >= 0xe0) // but limit how far right he can go
;
	lda     _BoxGuy1+1
	cmp     #$E0
	bcc     L00B1
;
; BoxGuy1.x = 0xe000;
;
	ldx     #$E0
	lda     #$00
	sta     _BoxGuy1
	stx     _BoxGuy1+1
;
; }
;
L00B1:	rts

.endproc

; ---------------------------------------------------------------
; char __near__ bg_collision_sub (void)
; ---------------------------------------------------------------

.segment	"CODE"

.proc	_bg_collision_sub: near

.segment	"CODE"

;
; if (temp_y >= 0xf0)
;
	lda     _temp_y
	cmp     #$F0
	ldx     #$00
	bcc     L000A
;
; return 0;
;
	txa
	rts
;
; coordinates = (temp_x >> 4) + (temp_y & 0xf0);
;
L000A:	lda     _temp_x
	lsr     a
	lsr     a
	lsr     a
	lsr     a
	sta     ptr1
	lda     _temp_y
	and     #$F0
	clc
	adc     ptr1
	sta     _coordinates
;
; map = temp_room & 1; // high byte
;
	lda     _temp_room
	and     #$01
	sta     _map
;
; if (!map)
;
	lda     _map
	bne     L0003
;
; collision = c_map[coordinates];
;
	ldy     _coordinates
	lda     _c_map,y
;
; else
;
	jmp     L0009
;
; collision = c_map2[coordinates];
;
L0003:	ldy     _coordinates
	lda     _c_map2,y
L0009:	sta     _collision
;
; return metatile_colision_map[collision];
;
	ldy     _collision
	lda     _metatile_colision_map,y
;
; }
;
	rts

.endproc

; ---------------------------------------------------------------
; void __near__ draw_screen_R (void)
; ---------------------------------------------------------------

.segment	"CODE"

.proc	_draw_screen_R: near

.segment	"CODE"

;
; pseudo_scroll_x = scroll_x + 0x120;
;
	lda     _scroll_x
	ldx     _scroll_x+1
	clc
	adc     #$20
	bcc     L0002
	inx
L0002:	inx
	sta     _pseudo_scroll_x
	stx     _pseudo_scroll_x+1
;
; temp1 = pseudo_scroll_x >> 8;
;
	lda     _pseudo_scroll_x+1
	sta     _temp1
;
; offset = level_offsets[level];
;
	ldy     _level
	lda     _level_offsets,y
	sta     _offset
;
; offset += temp1; // in place of room?!?
;
	lda     _temp1
	clc
	adc     _offset
	sta     _offset
;
; set_data_pointer(stage1_levels_list[offset]);
;
	ldx     #$00
	lda     _offset
	asl     a
	bcc     L0013
	inx
	clc
L0013:	adc     #<(_stage1_levels_list)
	sta     ptr1
	txa
	adc     #>(_stage1_levels_list)
	sta     ptr1+1
	ldy     #$01
	lda     (ptr1),y
	tax
	dey
	lda     (ptr1),y
	jsr     _set_data_pointer
;
; nt = temp1 & 1;
;
	lda     _temp1
	and     #$01
	sta     _nt
;
; x = pseudo_scroll_x & 0xff;
;
	lda     _pseudo_scroll_x
	sta     _x
;
; switch (scroll_count)
;
	lda     _scroll_count
;
; }
;
	beq     L0006
	cmp     #$01
	beq     L0008
	cmp     #$02
	jeq     L000B
	jmp     L000E
;
; address = get_ppu_addr(nt, x, 0);
;
L0006:	jsr     decsp2
	lda     _nt
	ldy     #$01
	sta     (sp),y
	lda     _x
	dey
	sta     (sp),y
	tya
	jsr     _get_ppu_addr
	sta     _address
	stx     _address+1
;
; index = 0 + (x >> 4);
;
	lda     _x
	lsr     a
	lsr     a
	lsr     a
	lsr     a
	sta     _index
;
; buffer_4_mt(address, index); // ppu_address, index to the data
;
	lda     _address
	ldx     _address+1
	jsr     pushax
	lda     _index
	jsr     _buffer_4_mt
;
; address = get_ppu_addr(nt, x, 0x20);
;
	jsr     decsp2
	lda     _nt
	ldy     #$01
	sta     (sp),y
	lda     _x
	dey
	sta     (sp),y
	lda     #$20
	jsr     _get_ppu_addr
	sta     _address
	stx     _address+1
;
; index = 0x20 + (x >> 4);
;
	lda     _x
	lsr     a
	lsr     a
	lsr     a
	lsr     a
	clc
	adc     #$20
;
; break;
;
	jmp     L0018
;
; address = get_ppu_addr(nt, x, 0x40);
;
L0008:	jsr     decsp2
	lda     _nt
	ldy     #$01
	sta     (sp),y
	lda     _x
	dey
	sta     (sp),y
	lda     #$40
	jsr     _get_ppu_addr
	sta     _address
	stx     _address+1
;
; index = 0x40 + (x >> 4);
;
	lda     _x
	lsr     a
	lsr     a
	lsr     a
	lsr     a
	clc
	adc     #$40
	sta     _index
;
; buffer_4_mt(address, index); // ppu_address, index to the data
;
	lda     _address
	ldx     _address+1
	jsr     pushax
	lda     _index
	jsr     _buffer_4_mt
;
; address = get_ppu_addr(nt, x, 0x60);
;
	jsr     decsp2
	lda     _nt
	ldy     #$01
	sta     (sp),y
	lda     _x
	dey
	sta     (sp),y
	lda     #$60
	jsr     _get_ppu_addr
	sta     _address
	stx     _address+1
;
; index = 0x60 + (x >> 4);
;
	lda     _x
	lsr     a
	lsr     a
	lsr     a
	lsr     a
	clc
	adc     #$60
;
; break;
;
	jmp     L0018
;
; address = get_ppu_addr(nt, x, 0x80);
;
L000B:	jsr     decsp2
	lda     _nt
	ldy     #$01
	sta     (sp),y
	lda     _x
	dey
	sta     (sp),y
	lda     #$80
	jsr     _get_ppu_addr
	sta     _address
	stx     _address+1
;
; index = 0x80 + (x >> 4);
;
	lda     _x
	lsr     a
	lsr     a
	lsr     a
	lsr     a
	clc
	adc     #$80
	sta     _index
;
; buffer_4_mt(address, index); // ppu_address, index to the data
;
	lda     _address
	ldx     _address+1
	jsr     pushax
	lda     _index
	jsr     _buffer_4_mt
;
; address = get_ppu_addr(nt, x, 0xa0);
;
	jsr     decsp2
	lda     _nt
	ldy     #$01
	sta     (sp),y
	lda     _x
	dey
	sta     (sp),y
	lda     #$A0
	jsr     _get_ppu_addr
	sta     _address
	stx     _address+1
;
; index = 0xa0 + (x >> 4);
;
	lda     _x
	lsr     a
	lsr     a
	lsr     a
	lsr     a
	clc
	adc     #$A0
;
; break;
;
	jmp     L0018
;
; address = get_ppu_addr(nt, x, 0xc0);
;
L000E:	jsr     decsp2
	lda     _nt
	ldy     #$01
	sta     (sp),y
	lda     _x
	dey
	sta     (sp),y
	lda     #$C0
	jsr     _get_ppu_addr
	sta     _address
	stx     _address+1
;
; index = 0xc0 + (x >> 4);
;
	lda     _x
	lsr     a
	lsr     a
	lsr     a
	lsr     a
	clc
	adc     #$C0
	sta     _index
;
; buffer_4_mt(address, index); // ppu_address, index to the data
;
	lda     _address
	ldx     _address+1
	jsr     pushax
	lda     _index
	jsr     _buffer_4_mt
;
; address = get_ppu_addr(nt, x, 0xe0);
;
	jsr     decsp2
	lda     _nt
	ldy     #$01
	sta     (sp),y
	lda     _x
	dey
	sta     (sp),y
	lda     #$E0
	jsr     _get_ppu_addr
	sta     _address
	stx     _address+1
;
; index = 0xe0 + (x >> 4);
;
	lda     _x
	lsr     a
	lsr     a
	lsr     a
	lsr     a
	clc
	adc     #$E0
L0018:	sta     _index
;
; buffer_4_mt(address, index); // ppu_address, index to the data
;
	lda     _address
	ldx     _address+1
	jsr     pushax
	lda     _index
	jsr     _buffer_4_mt
;
; ++scroll_count;
;
	inc     _scroll_count
;
; scroll_count &= 3; // mask off top bits, keep it 0-3
;
	lda     _scroll_count
	and     #$03
	sta     _scroll_count
;
; }
;
	rts

.endproc

; ---------------------------------------------------------------
; void __near__ draw_screen_L (void)
; ---------------------------------------------------------------

.segment	"CODE"

.proc	_draw_screen_L: near

.segment	"CODE"

;
; pseudo_scroll_x = scroll_x - 0x20; // Modify the scroll offset for left scroll
;
	lda     _scroll_x
	ldx     _scroll_x+1
	sec
	sbc     #$20
	bcs     L0002
	dex
L0002:	sta     _pseudo_scroll_x
	stx     _pseudo_scroll_x+1
;
; temp1 = pseudo_scroll_x >> 8;
;
	lda     _pseudo_scroll_x+1
	sta     _temp1
;
; offset = level_offsets[level];
;
	ldy     _level
	lda     _level_offsets,y
	sta     _offset
;
; offset += temp1; // in place of room?!?
;
	lda     _temp1
	clc
	adc     _offset
	sta     _offset
;
; set_data_pointer(stage1_levels_list[offset]);
;
	ldx     #$00
	lda     _offset
	asl     a
	bcc     L000C
	inx
	clc
L000C:	adc     #<(_stage1_levels_list)
	sta     ptr1
	txa
	adc     #>(_stage1_levels_list)
	sta     ptr1+1
	ldy     #$01
	lda     (ptr1),y
	tax
	dey
	lda     (ptr1),y
	jsr     _set_data_pointer
;
; nt = temp1 & 1;
;
	lda     _temp1
	and     #$01
	sta     _nt
;
; x = pseudo_scroll_x & 0xff;
;
	lda     _pseudo_scroll_x
	sta     _x
;
; switch (scroll_count)
;
	lda     _scroll_count
;
; }
;
	beq     L000E
	cmp     #$01
	beq     L000F
	cmp     #$02
	beq     L0010
	jmp     L0011
;
; temp4 = 0;
;
L000E:	sta     _temp4
;
; drawMetatileBlock();
;
	jsr     _drawMetatileBlock
;
; temp4 = 0x20;
;
	lda     #$20
;
; break;
;
	jmp     L0012
;
; temp4 = 0x40;
;
L000F:	lda     #$40
	sta     _temp4
;
; drawMetatileBlock();
;
	jsr     _drawMetatileBlock
;
; temp4 = 0x60;
;
	lda     #$60
;
; break;
;
	jmp     L0012
;
; temp4 = 0x80;
;
L0010:	lda     #$80
	sta     _temp4
;
; drawMetatileBlock();
;
	jsr     _drawMetatileBlock
;
; temp4 = 0xa0;
;
	lda     #$A0
;
; break;
;
	jmp     L0012
;
; temp4 = 0xc0;
;
L0011:	lda     #$C0
	sta     _temp4
;
; drawMetatileBlock();
;
	jsr     _drawMetatileBlock
;
; temp4 = 0xe0;
;
	lda     #$E0
L0012:	sta     _temp4
;
; drawMetatileBlock();
;
	jsr     _drawMetatileBlock
;
; --scroll_count;   // Reverse the increment to scroll in the opposite direction
;
	dec     _scroll_count
;
; scroll_count &= 3; // mask off top bits, keep it 0-3
;
	lda     _scroll_count
	and     #$03
	sta     _scroll_count
;
; }
;
	rts

.endproc

; ---------------------------------------------------------------
; void __near__ new_cmap (void)
; ---------------------------------------------------------------

.segment	"CODE"

.proc	_new_cmap: near

.segment	"CODE"

;
; offset = level_offsets[level];
;
	ldy     _level
	lda     _level_offsets,y
	sta     _offset
;
; offset += room_to_load;
;
	lda     _room_to_load
	clc
	adc     _offset
	sta     _offset
;
; map = room_to_load & 1; // even or odd?
;
	lda     _room_to_load
	and     #$01
	sta     _map
;
; if (!map)
;
	lda     _map
	bne     L0003
;
; memcpy(c_map, stage1_levels_list[offset], 240);
;
	lda     #<(_c_map)
	ldx     #>(_c_map)
;
; else
;
	jmp     L001C
;
; memcpy(c_map2, stage1_levels_list[offset], 240);
;
L0003:	lda     #<(_c_map2)
	ldx     #>(_c_map2)
L001C:	jsr     pushax
	ldx     #$00
	lda     _offset
	asl     a
	bcc     L0009
	inx
	clc
L0009:	adc     #<(_stage1_levels_list)
	sta     ptr1
	txa
	adc     #>(_stage1_levels_list)
	sta     ptr1+1
	ldy     #$01
	lda     (ptr1),y
	tax
	dey
	lda     (ptr1),y
	jsr     pushax
	ldx     #$00
	lda     #$F0
	jmp     _memcpy

.endproc

; ---------------------------------------------------------------
; void __near__ handle_scrolling (void)
; ---------------------------------------------------------------

.segment	"CODE"

.proc	_handle_scrolling: near

.segment	"CODE"

;
; if (!r_scroll_frames && !l_scroll_frames)
;
	lda     _r_scroll_frames
	bne     L0008
	lda     _l_scroll_frames
	bne     L0008
;
; if (BoxGuy1.vel_x > 0)
;
	lda     _BoxGuy1+4
	cmp     #$01
	lda     _BoxGuy1+4+1
	sbc     #$00
	bvs     L0007
	eor     #$80
L0007:	bpl     L000C
;
; r_scroll_frames = 4;
;
	lda     #$04
	sta     _r_scroll_frames
;
; else
;
	jmp     L0008
;
; l_scroll_frames = 4;
;
L000C:	lda     #$04
	sta     _l_scroll_frames
;
; if (r_scroll_frames)
;
L0008:	lda     _r_scroll_frames
	beq     L0009
;
; draw_screen_R();
;
	jsr     _draw_screen_R
;
; --r_scroll_frames;
;
	dec     _r_scroll_frames
;
; else if (l_scroll_frames)
;
	rts
L0009:	lda     _l_scroll_frames
	beq     L000B
;
; draw_screen_L();
;
	jsr     _draw_screen_L
;
; --l_scroll_frames;
;
	dec     _l_scroll_frames
;
; }
;
L000B:	rts

.endproc

; ---------------------------------------------------------------
; void __near__ projectile_movement (void)
; ---------------------------------------------------------------

.segment	"CODE"

.proc	_projectile_movement: near

.segment	"CODE"

;
; for (temp1 = 0; temp1 < 3; ++temp1)
;
	lda     #$00
	sta     _temp1
L0021:	lda     _temp1
	cmp     #$03
	bcc     L0028
;
; }
;
	rts
;
; if (projectiles_list[temp1] != TURN_OFF)
;
L0028:	ldy     _temp1
	lda     _projectiles_list,y
	cmp     #$FF
	jeq     L0027
;
; if (projectiles_x[temp1] > 250)
;
	ldy     _temp1
	lda     _projectiles_x,y
	cmp     #$FB
	bcc     L0008
;
; projectiles_list[temp1] = TURN_OFF;
;
	ldy     _temp1
	lda     #$FF
	sta     _projectiles_list,y
;
; else
;
	jmp     L0027
;
; if (projectiles_list[temp1] == RIGHT)
;
L0008:	ldy     _temp1
	lda     _projectiles_list,y
	cmp     #$01
	bne     L000C
;
; if ((BoxGuy1.x <= MAX_LEFT) && (pad1 & PAD_LEFT))
;
	lda     _BoxGuy1+1
	cmp     #$40
	bne     L000F
	lda     _BoxGuy1
	cmp     #$01
L000F:	bcs     L000E
	lda     _pad1
	and     #$02
	beq     L000E
;
; projectiles_x[temp1] += PROJECTILE_SPEED_WITH_SCROLL;
;
	lda     #<(_projectiles_x)
	ldx     #>(_projectiles_x)
	clc
	adc     _temp1
	bcc     L0013
	inx
L0013:	sta     ptr1
	stx     ptr1+1
	ldy     #$00
	lda     (ptr1),y
	clc
	adc     #$05
;
; else
;
	jmp     L0020
;
; projectiles_x[temp1] += PROJECTILE_SPEED;
;
L000E:	lda     #<(_projectiles_x)
	ldx     #>(_projectiles_x)
	clc
	adc     _temp1
	bcc     L0015
	inx
L0015:	sta     ptr1
	stx     ptr1+1
	ldy     #$00
	lda     (ptr1),y
	clc
	adc     #$03
;
; else if (projectiles_list[temp1] == LEFT)
;
	jmp     L0020
L000C:	ldy     _temp1
	lda     _projectiles_list,y
	bne     L0027
;
; if ((BoxGuy1.x >= MAX_RIGHT) && (pad1 & PAD_RIGHT))
;
	lda     _BoxGuy1
	cmp     #$00
	lda     _BoxGuy1+1
	sbc     #$90
	bcc     L0019
	lda     _pad1
	and     #$01
	beq     L0019
;
; projectiles_x[temp1] -= PROJECTILE_SPEED_WITH_SCROLL;
;
	lda     #<(_projectiles_x)
	ldx     #>(_projectiles_x)
	clc
	adc     _temp1
	bcc     L001D
	inx
L001D:	sta     ptr1
	stx     ptr1+1
	ldy     #$00
	lda     (ptr1),y
	sec
	sbc     #$05
;
; else
;
	jmp     L0020
;
; projectiles_x[temp1] -= PROJECTILE_SPEED;
;
L0019:	lda     #<(_projectiles_x)
	ldx     #>(_projectiles_x)
	clc
	adc     _temp1
	bcc     L001F
	inx
L001F:	sta     ptr1
	stx     ptr1+1
	ldy     #$00
	lda     (ptr1),y
	sec
	sbc     #$03
L0020:	sta     (ptr1),y
;
; for (temp1 = 0; temp1 < 3; ++temp1)
;
L0027:	inc     _temp1
	jmp     L0021

.endproc

; ---------------------------------------------------------------
; void __near__ check_spr_objects (void)
; ---------------------------------------------------------------

.segment	"CODE"

.proc	_check_spr_objects: near

.segment	"CODE"

;
; Generic2.x = high_byte(BoxGuy1.x);
;
	lda     _BoxGuy1+1
	sta     _Generic2
;
; for (index = 0; index < MAX_ENEMY; ++index)
;
	lda     #$00
	sta     _index
L000E:	lda     _index
	cmp     #$10
	bcs     L0003
;
; enemy_active[index] = 0; // default to zero
;
	ldy     _index
	lda     #$00
	sta     _enemy_active,y
;
; if (enemy_y[index] != TURN_OFF)
;
	ldy     _index
	lda     _enemy_y,y
	cmp     #$FF
	beq     L000F
;
; high_byte(temp5) = enemy_room[index];
;
	ldy     _index
	lda     _enemy_room,y
	sta     _temp5+1
;
; low_byte(temp5) = enemy_actual_x[index];
;
	ldy     _index
	lda     _enemy_actual_x,y
	sta     _temp5
;
; temp1 = enemy_active[index] = get_position();
;
	lda     #<(_enemy_active)
	ldx     #>(_enemy_active)
	clc
	adc     _index
	bcc     L000B
	inx
L000B:	jsr     pushax
	jsr     _get_position
	ldy     #$00
	jsr     staspidx
	sta     _temp1
;
; if (temp1 == 0)
;
	lda     _temp1
;
; continue;
;
	beq     L000F
;
; enemy_x[index] = temp_x; // screen x coords
;
	ldy     _index
	lda     _temp_x
	sta     _enemy_x,y
;
; enemy_moves(); // if active, do it's moves now
;
	jsr     _enemy_moves
;
; for (index = 0; index < MAX_ENEMY; ++index)
;
L000F:	inc     _index
	jmp     L000E
;
; }
;
L0003:	rts

.endproc

; ---------------------------------------------------------------
; void __near__ check_entity_objects (void)
; ---------------------------------------------------------------

.segment	"CODE"

.proc	_check_entity_objects: near

.segment	"CODE"

;
; Generic2.x = high_byte(BoxGuy1.x);
;
	lda     _BoxGuy1+1
	sta     _Generic2
;
; for (index = 0; index < MAX_ENTITY; ++index)
;
	lda     #$00
	sta     _index
L000E:	lda     _index
	cmp     #$10
	bcs     L0003
;
; entity_active[index] = 0; // default to zero
;
	ldy     _index
	lda     #$00
	sta     _entity_active,y
;
; if (entity_y[index] != TURN_OFF)
;
	ldy     _index
	lda     _entity_y,y
	cmp     #$FF
	beq     L000F
;
; high_byte(temp5) = entity_room[index];
;
	ldy     _index
	lda     _entity_room,y
	sta     _temp5+1
;
; low_byte(temp5) = entity_actual_x[index];
;
	ldy     _index
	lda     _entity_actual_x,y
	sta     _temp5
;
; temp1 = entity_active[index] = get_position();
;
	lda     #<(_entity_active)
	ldx     #>(_entity_active)
	clc
	adc     _index
	bcc     L000B
	inx
L000B:	jsr     pushax
	jsr     _get_position
	ldy     #$00
	jsr     staspidx
	sta     _temp1
;
; if (temp1 == 0)
;
	lda     _temp1
;
; continue;
;
	beq     L000F
;
; entity_x[index] = temp_x; // screen x coords
;
	ldy     _index
	lda     _temp_x
	sta     _entity_x,y
;
; entity_moves();
;
	jsr     _entity_moves
;
; for (index = 0; index < MAX_ENTITY; ++index)
;
L000F:	inc     _index
	jmp     L000E
;
; }  
;
L0003:	rts

.endproc

; ---------------------------------------------------------------
; void __near__ sprite_collisions (void)
; ---------------------------------------------------------------

.segment	"CODE"

.proc	_sprite_collisions: near

.segment	"CODE"

;
; Generic.x = high_byte(BoxGuy1.x);
;
	lda     _BoxGuy1+1
	sta     _Generic
;
; Generic.y = high_byte(BoxGuy1.y);
;
	lda     _BoxGuy1+3
	sta     _Generic+1
;
; for (index = 0; index < MAX_ENEMY; ++index)
;
	lda     #$00
	sta     _index
L002B:	lda     _index
	cmp     #$10
	bcc     L0045
;
; }
;
	rts
;
; if (enemy_active[index] != 0 && enemy_health[index] > 0)
;
L0045:	ldy     _index
	lda     _enemy_active,y
	jeq     L0036
	ldy     _index
	lda     _enemy_health,y
	jeq     L0036
;
; switch (enemy_type[index])
;
	ldy     _index
	lda     _enemy_type,y
;
; }
;
	beq     L002F
	cmp     #$01
	beq     L0030
	cmp     #$02
	beq     L0031
	jmp     L0032
;
; Generic2.width = ENEMY_SNAIL_WIDTH;
;
L002F:	lda     #$0E
	sta     _Generic2+2
;
; Generic2.height = ENEMY_SNAIL_HEIGHT;
;
	lda     #$0F
	sta     _Generic2+3
;
; Generic2.x = enemy_x[index] + 4;
;
	ldy     _index
	lda     _enemy_x,y
	clc
	adc     #$04
;
; break;
;
	jmp     L003B
;
; Generic2.width = ENEMY_OWL_WIDTH;
;
L0030:	lda     #$0D
	sta     _Generic2+2
;
; Generic2.height = ENEMY_OWL_HEIGHT;
;
	lda     #$0F
;
; break;
;
	jmp     L0041
;
; Generic2.width = ENEMY_BEAR_WIDTH;
;
L0031:	lda     #$0E
	sta     _Generic2+2
;
; Generic2.height = ENEMY_BEAR_HEIGHT;
;
	lda     #$20
;
; break;
;
	jmp     L0041
;
; Generic2.width = ENEMY_WIDTH;
;
L0032:	lda     #$0D
	sta     _Generic2+2
;
; Generic2.height = ENEMY_HEIGHT;
;
L0041:	sta     _Generic2+3
;
; Generic2.x = enemy_x[index];
;
	ldy     _index
	lda     _enemy_x,y
L003B:	sta     _Generic2
;
; Generic2.y = enemy_y[index];
;
	ldy     _index
	lda     _enemy_y,y
	sta     _Generic2+1
;
; if (check_collision(&Generic, &Generic2))
;
	lda     #<(_Generic)
	ldx     #>(_Generic)
	jsr     pushax
	lda     #<(_Generic2)
	ldx     #>(_Generic2)
	jsr     _check_collision
	tax
	jeq     L0036
;
; switch (enemy_type[index])
;
	ldy     _index
	lda     _enemy_type,y
;
; }
;
	beq     L0033
	cmp     #$01
	beq     L0034
	cmp     #$02
	beq     L0035
	jmp     L0036
;
; if (invul_frames == 0)
;
L0033:	lda     _invul_frames
	bne     L0036
;
; hit_direction = enemy_dir[index];
;
	ldy     _index
	lda     _enemy_dir,y
	sta     _hit_direction
;
; BoxGuy1.health -= ENEMY_SNAIL_DAMAGE; // check for overflow
;
	lda     _BoxGuy1+8
	sec
	sbc     #$02
	sta     _BoxGuy1+8
;
; player_on_ladder = 0;         // hitting hits you off ladder
;
	lda     #$00
	sta     _player_on_ladder
;
; player_on_ladder_top =0;
;
	sta     _player_on_ladder_top
;
; break;
;
	jmp     L0044
;
; if (invul_frames == 0)
;
L0034:	lda     _invul_frames
	bne     L0036
;
; hit_direction = enemy_dir[index];
;
	ldy     _index
	lda     _enemy_dir,y
	sta     _hit_direction
;
; BoxGuy1.health -= ENEMY_OWL_DAMAGE; // check for overflow
;
	lda     _BoxGuy1+8
	sec
	sbc     #$05
	sta     _BoxGuy1+8
;
; player_on_ladder = 0;        // hitting hits you off ladder
;
	lda     #$00
	sta     _player_on_ladder
;
; player_on_ladder_top = 0;
;
	sta     _player_on_ladder_top
;
; break;
;
	jmp     L0044
;
; if (invul_frames == 0)
;
L0035:	lda     _invul_frames
	bne     L0036
;
; hit_direction = enemy_dir[index];
;
	ldy     _index
	lda     _enemy_dir,y
	sta     _hit_direction
;
; BoxGuy1.health -= ENEMY_BEAR_DAMAGE; // check for overflow
;
	lda     _BoxGuy1+8
	sec
	sbc     #$05
	sta     _BoxGuy1+8
;
; player_on_ladder = 0;         // hitting hits you off ladder
;
	lda     #$00
	sta     _player_on_ladder
;
; sfx_play(SFX_ENEMY_HITS, 0);
;
L0044:	lda     #$01
	jsr     pusha
	lda     #$00
	jsr     _sfx_play
;
; player_in_hitstun = ENEMY_BEAR_PLAYER_HITSTUN;
;
	lda     #$1E
	sta     _player_in_hitstun
;
; invul_frames = ENEMY_BEAR_PLAYER_INVUL;
;
	lda     #$32
	sta     _invul_frames
;
; for (index = 0; index < MAX_ENEMY; ++index)
;
L0036:	inc     _index
	jmp     L002B

.endproc

; ---------------------------------------------------------------
; void __near__ entity_collisions (void)
; ---------------------------------------------------------------

.segment	"CODE"

.proc	_entity_collisions: near

.segment	"CODE"

;
; Generic.x = high_byte(BoxGuy1.x);
;
	lda     _BoxGuy1+1
	sta     _Generic
;
; Generic.y = high_byte(BoxGuy1.y);
;
	lda     _BoxGuy1+3
	sta     _Generic+1
;
; Generic.width = HERO_WIDTH;
;
	lda     #$0E
	sta     _Generic+2
;
; Generic.height = HERO_HEIGHT;
;
	sta     _Generic+3
;
; for (index = 0; index < MAX_ENTITY; ++index)
;
	lda     #$00
	sta     _index
L0033:	lda     _index
	cmp     #$10
	bcc     L004A
;
; }
;
	rts
;
; if (entity_active[index])
;
L004A:	ldy     _index
	lda     _entity_active,y
	jeq     L0049
;
; switch (entity_type[index])
;
	ldy     _index
	lda     _entity_type,y
;
; }
;
	cmp     #$02
	beq     L0034
	cmp     #$04
	beq     L0036
	cmp     #$05
	beq     L0037
	cmp     #$06
	beq     L0035
	jmp     L0038
;
; Generic2.width = 64;
;
L0034:	lda     #$40
	sta     _Generic2+2
;
; Generic2.height = 8;
;
	lda     #$08
;
; break;
;
	jmp     L0032
;
; Generic2.width = 64;
;
L0035:	lda     #$40
	sta     _Generic2+2
;
; Generic2.height = 8;
;
	lda     #$08
;
; break;
;
	jmp     L0032
;
; Generic2.width = 255;
;
L0036:	lda     #$FF
	sta     _Generic2+2
;
; Generic2.height = 8;
;
	lda     #$08
;
; break;
;
	jmp     L0032
;
; Generic2.width = 255;
;
L0037:	lda     #$FF
	sta     _Generic2+2
;
; Generic2.height = 8;
;
	lda     #$08
;
; break;
;
	jmp     L0032
;
; Generic2.width = 16;
;
L0038:	lda     #$10
	sta     _Generic2+2
;
; Generic2.height = 16;
;
L0032:	sta     _Generic2+3
;
; Generic2.x = entity_x[index];
;
	ldy     _index
	lda     _entity_x,y
	sta     _Generic2
;
; Generic2.y = entity_y[index];
;
	ldy     _index
	lda     _entity_y,y
	sta     _Generic2+1
;
; if (check_collision(&Generic, &Generic2))
;
	lda     #<(_Generic)
	ldx     #>(_Generic)
	jsr     pushax
	lda     #<(_Generic2)
	ldx     #>(_Generic2)
	jsr     _check_collision
	tax
	jeq     L0049
;
; switch (entity_type[index])
;
	ldy     _index
	lda     _entity_type,y
;
; }
;
	beq     L003C
	cmp     #$02
	beq     L0039
	cmp     #$03
	beq     L003D
	cmp     #$04
	beq     L003B
	cmp     #$05
	beq     L003A
	cmp     #$06
	beq     L003E
	cmp     #$08
	jeq     L0041
	cmp     #$09
	beq     L0040
	cmp     #$0A
	beq     L001F
	cmp     #$0B
	beq     L003F
	cmp     #$0C
	jeq     L0027
	jmp     L0049
;
; death_flag = 30; // 30 frames the player can die in
;
L0039:	lda     #$1E
	sta     _death_flag
;
; break;
;
	jmp     L0049
;
; ++level_up;
;
L003A:	inc     _level_up
;
; break;
;
	jmp     L0049
;
; ++level_down;
;
L003B:	inc     _level_down
;
; break;
;
	jmp     L0049
;
; ++level_up;
;
L003C:	inc     _level_up
;
; break;
;
	jmp     L0049
;
; ++level_down;
;
L003D:	inc     _level_down
;
; break;
;
	jmp     L0049
;
; ++death;
;
L003E:	inc     _death
;
; break;
;
	jmp     L0049
;
; BoxGuy1.health -= 8;
;
L003F:	lda     _BoxGuy1+8
	sec
	sbc     #$08
	sta     _BoxGuy1+8
;
; sfx_play(SFX_ENEMY_HITS, 0);
;
	lda     #$01
	jsr     pusha
	lda     #$00
	jsr     _sfx_play
;
; player_in_hitstun = ENEMY_SNAIL_PLAYER_HITSTUN;
;
	lda     #$1E
	sta     _player_in_hitstun
;
; invul_frames = ENEMY_SNAIL_PLAYER_INVUL;
;
	lda     #$32
	sta     _invul_frames
;
; entity_active[index] = 0;
;
	ldy     _index
	lda     #$00
	sta     _entity_active,y
;
; entity_y[index] = TURN_OFF;
;
	ldy     _index
	lda     #$FF
	sta     _entity_y,y
;
; break;
;
	jmp     L0049
;
; load_bear_victory();
;
L001F:	jsr     _load_bear_victory
;
; break;
;
	jmp     L0049
;
; if (BoxGuy1.health < MAX_PLAYER_HEALTH)
;
L0040:	lda     _BoxGuy1+8
	cmp     #$1C
	bcs     L0021
;
; BoxGuy1.health += 1;
;
	inc     _BoxGuy1+8
;
; sfx_play(SFX_LIFE_UP, 0);
;
	lda     #$03
	jsr     pusha
	lda     #$00
	jsr     _sfx_play
;
; entity_active[index] = 0;
;
L0021:	ldy     _index
	lda     #$00
	sta     _entity_active,y
;
; entity_y[index] = TURN_OFF;
;
	ldy     _index
	lda     #$FF
	sta     _entity_y,y
;
; break;
;
	jmp     L0049
;
; BoxGuy1.health = MAX_PLAYER_HEALTH;
;
L0041:	lda     #$1C
	sta     _BoxGuy1+8
;
; sfx_play(SFX_LIFE_UP, 0);
;
	lda     #$03
	jsr     pusha
	lda     #$00
	jsr     _sfx_play
;
; entity_active[index] = 0;
;
	ldy     _index
	lda     #$00
	sta     _entity_active,y
;
; entity_y[index] = TURN_OFF;
;
	ldy     _index
	lda     #$FF
	sta     _entity_y,y
;
; break;
;
	jmp     L0049
;
; if(projectile_big && level == 0){
;
L0027:	lda     _projectile_big
	beq     L0028
	lda     _level
	bne     L0028
;
; load_victory();
;
	jsr     _load_victory
;
; break;
;
	jmp     L0049
;
; if(projectile_big && level == 6){
;
L0028:	lda     _projectile_big
	beq     L0048
	lda     _level
	cmp     #$06
	beq     L0049
;
; if(level != 0){
;
L0048:	lda     _level
	beq     L0049
;
; pal_fade_to(4, 0);    // fade to black
;
	lda     #$04
	jsr     pusha
	lda     #$00
	jsr     _pal_fade_to
;
; game_mode = MODE_SWITCH; // this handles loading the level
;
	lda     #$04
	sta     _game_mode
;
; ppu_off();
;
	jsr     _ppu_off
;
; scroll_x = 0;
;
	lda     #$00
	sta     _scroll_x
	sta     _scroll_x+1
;
; ++level;
;
	inc     _level
;
; level_up = 0;
;
	sta     _level_up
;
; room_to_load = 0;
;
	sta     _room_to_load
;
; nametable_to_load = 0;
;
	sta     _nametable_to_load
;
; for (index = 0; index < MAX_ENTITY; ++index)
;
L0049:	inc     _index
	jmp     L0033

.endproc

; ---------------------------------------------------------------
; void __near__ load_title (void)
; ---------------------------------------------------------------

.segment	"CODE"

.proc	_load_title: near

.segment	"CODE"

;
; ppu_off();
;
	jsr     _ppu_off
;
; pal_bg(palette_bg);
;
	lda     #<(_palette_bg)
	ldx     #>(_palette_bg)
	jsr     _pal_bg
;
; set_data_pointer(titletiled_0);
;
	lda     #<(_titletiled_0)
	ldx     #>(_titletiled_0)
	jsr     _set_data_pointer
;
; set_mt_pointer(metatile);
;
	lda     #<(_metatile)
	ldx     #>(_metatile)
	jsr     _set_mt_pointer
;
; for (y = 0;; y += 0x20)
;
	lda     #$00
L000E:	sta     _y
;
; for (x = 0;; x += 0x20)
;
	lda     #$00
L000D:	sta     _x
;
; address = get_ppu_addr(0, x, y);
;
	jsr     decsp2
	lda     #$00
	ldy     #$01
	sta     (sp),y
	lda     _x
	dey
	sta     (sp),y
	lda     _y
	jsr     _get_ppu_addr
	sta     _address
	stx     _address+1
;
; index = (y & 0xf0) + (x >> 4);
;
	lda     _y
	and     #$F0
	sta     ptr1
	lda     _x
	lsr     a
	lsr     a
	lsr     a
	lsr     a
	clc
	adc     ptr1
	sta     _index
;
; buffer_4_mt(address, index); // ppu_address, index to the data
;
	lda     _address
	ldx     _address+1
	jsr     pushax
	lda     _index
	jsr     _buffer_4_mt
;
; flush_vram_update2();
;
	jsr     _flush_vram_update2
;
; if (x == 0xe0)
;
	lda     _x
	cmp     #$E0
;
; break;
;
	beq     L000F
;
; for (x = 0;; x += 0x20)
;
	lda     #$20
	clc
	adc     _x
	jmp     L000D
;
; if (y == 0xe0)
;
L000F:	lda     _y
	cmp     #$E0
;
; break;
;
	beq     L0003
;
; for (y = 0;; y += 0x20)
;
	lda     #$20
	clc
	adc     _y
	jmp     L000E
;
; ppu_on_all();
;
L0003:	jsr     _ppu_on_all
;
; game_mode = MODE_TITLE;
;
	lda     #$00
	sta     _game_mode
;
; multi_vram_buffer_horz("CORGS DEMO", 10, NTADR_A(14, 6));
;
	jsr     decsp3
	lda     #<(S0003)
	ldy     #$01
	sta     (sp),y
	iny
	lda     #>(S0003)
	sta     (sp),y
	lda     #$0A
	ldy     #$00
	sta     (sp),y
	ldx     #$20
	lda     #$CE
	jsr     _multi_vram_buffer_horz
;
; multi_vram_buffer_horz("BRIAN & ALAN GAMES", 18, NTADR_A(12, 8));
;
	jsr     decsp3
	lda     #<(S0004)
	ldy     #$01
	sta     (sp),y
	iny
	lda     #>(S0004)
	sta     (sp),y
	lda     #$12
	ldy     #$00
	sta     (sp),y
	ldx     #$21
	lda     #$0C
	jmp     _multi_vram_buffer_horz

.endproc

; ---------------------------------------------------------------
; void __near__ load_victory (void)
; ---------------------------------------------------------------

.segment	"CODE"

.proc	_load_victory: near

.segment	"CODE"

;
; ppu_off(); // screen off
;
	jsr     _ppu_off
;
; pal_bg(palette_victory);
;
	lda     #<(_palette_victory)
	ldx     #>(_palette_victory)
	jsr     _pal_bg
;
; vram_adr(NAMETABLE_A);
;
	ldx     #$20
	lda     #$00
	jsr     _vram_adr
;
; level = 0;
;
	lda     #$00
	sta     _level
;
; vram_unrle(victory);
;
	lda     #<(_victory)
	ldx     #>(_victory)
	jsr     _vram_unrle
;
; ppu_on_all();
;
	jsr     _ppu_on_all
;
; music_stop();
;
	jsr     _music_stop
;
; sfx_play(SFX_VICTORY, 0);
;
	lda     #$07
	jsr     pusha
	lda     #$00
	jsr     _sfx_play
;
; game_mode = MODE_END;
;
	lda     #$05
	sta     _game_mode
;
; }
;
	rts

.endproc

; ---------------------------------------------------------------
; void __near__ enemy_moves (void)
; ---------------------------------------------------------------

.segment	"CODE"

.proc	_enemy_moves: near

.segment	"CODE"

;
; enemy_frames[index] += 1;
;
	lda     #<(_enemy_frames)
	ldx     #>(_enemy_frames)
	clc
	adc     _index
	bcc     L0002
	inx
L0002:	sta     ptr1
	stx     ptr1+1
	ldy     #$00
	lda     (ptr1),y
	clc
	adc     #$01
	sta     (ptr1),y
;
; if(enemy_invul[index] > 0){
;
	ldy     _index
	lda     _enemy_invul,y
	beq     L0054
;
; --enemy_invul[index];
;
	lda     #<(_enemy_invul)
	ldx     #>(_enemy_invul)
	clc
	adc     _index
	bcc     L0005
	inx
L0005:	sta     ptr1
	stx     ptr1+1
	ldy     #$00
	lda     (ptr1),y
	sec
	sbc     #$01
	sta     (ptr1),y
;
; for (temp1 = 0; temp1 < MAX_PROJECTILES; ++temp1)
;
	tya
L0054:	sta     _temp1
L0055:	lda     _temp1
	cmp     #$03
	jcs     L0007
;
; if (projectiles_list[temp1] != TURN_OFF)
;
	ldy     _temp1
	lda     _projectiles_list,y
	cmp     #$FF
	jeq     L0061
;
; (enemy_x[index] > projectiles_x[temp1] - 5 && enemy_x[index] < projectiles_x[temp1] + 5) &&
;
	ldy     _index
	lda     _enemy_x,y
	jsr     pusha0
	ldy     _temp1
	lda     _projectiles_x,y
	sec
	sbc     #$05
	bcs     L000F
	ldx     #$FF
L000F:	jsr     tosicmp
	jmi     L0061
	jeq     L0061
	ldy     _index
	lda     _enemy_x,y
	jsr     pusha0
	ldy     _temp1
	lda     _projectiles_x,y
	clc
	adc     #$05
	bcc     L0013
	ldx     #$01
L0013:	jsr     tosicmp
	jpl     L0061
;
; (enemy_y[index] > projectiles_y[temp1] - 30 && enemy_y[index] < projectiles_y[temp1] + 30))
;
	ldy     _index
	lda     _enemy_y,y
	jsr     pusha0
	ldy     _temp1
	lda     _projectiles_y,y
	sec
	sbc     #$1E
	bcs     L0019
	ldx     #$FF
L0019:	jsr     tosicmp
	jmi     L0061
	jeq     L0061
	ldy     _index
	lda     _enemy_y,y
	jsr     pusha0
	ldy     _temp1
	lda     _projectiles_y,y
	clc
	adc     #$1E
	bcc     L001D
	ldx     #$01
L001D:	jsr     tosicmp
	jpl     L0061
;
; projectiles_list[temp1] = TURN_OFF;
;
	ldy     _temp1
	lda     #$FF
	sta     _projectiles_list,y
;
; if(enemy_invul[index] > 0){
;
	ldy     _index
	lda     _enemy_invul,y
	beq     L005A
;
; sfx_play(SFX_INVUL_HIT, 0);
;
	lda     #$08
	jsr     pusha
	lda     #$00
	jsr     _sfx_play
;
; } else {
;
	jmp     L0025
;
; sfx_play(SFX_SHOT_HITS, 0);
;
L005A:	lda     #$02
	jsr     pusha
	lda     #$00
	jsr     _sfx_play
;
; if(projectile_big){
;
	lda     _projectile_big
	beq     L0026
;
; enemy_health[index] = 0;
;
	ldy     _index
	lda     #$00
	sta     _enemy_health,y
;
; else { 
;
	jmp     L0028
;
; --enemy_health[index];
;
L0026:	lda     #<(_enemy_health)
	ldx     #>(_enemy_health)
	clc
	adc     _index
	bcc     L0029
	inx
L0029:	sta     ptr1
	stx     ptr1+1
	ldy     #$00
	lda     (ptr1),y
	sec
	sbc     #$01
	sta     (ptr1),y
;
; enemy_invul[index] = 15;
;
L0028:	ldy     _index
	lda     #$0F
	sta     _enemy_invul,y
;
; if ((enemy_health[index] == 0 || enemy_health[index] > 240 ) && enemy_mode[index] != TURN_OFF) // check for overflow with 240
;
L0025:	ldy     _index
	lda     _enemy_health,y
	beq     L005B
	ldy     _index
	lda     _enemy_health,y
	cmp     #$F1
	jcc     L0061
L005B:	ldy     _index
	lda     _enemy_mode,y
	cmp     #$FF
	jeq     L0061
;
; enemy_active[index] = 0;
;
	ldy     _index
	lda     #$00
	sta     _enemy_active,y
;
; enemy_mode[index] = TURN_OFF;
;
	ldy     _index
	lda     #$FF
	sta     _enemy_mode,y
;
; enemy_frames[index] = 0;
;
	ldy     _index
	lda     #$00
	sta     _enemy_frames,y
;
; if (enemy_type[index] == ENEMY_BEAR)
;
	ldy     _index
	lda     _enemy_type,y
	cmp     #$02
	bne     L005F
;
; entity_y[0] = 80;
;
	lda     #$50
	sta     _entity_y
;
; entity_x[0] = 120;
;
	lda     #$78
	sta     _entity_x
;
; entity_room[0] = enemy_room[index];
;
	ldy     _index
	lda     _enemy_room,y
	sta     _entity_room
;
; entity_active[0] = 1;
;
	lda     #$01
	sta     _entity_active
;
; entity_type[0] = ENTITY_STARBURST2;
;
	lda     #$0A
	sta     _entity_type
;
; entity_actual_x[0] = 128;
;
	lda     #$80
	sta     _entity_actual_x
;
; else if (frame_counter % 2 == 0)
;
	jmp     L0061
L005F:	lda     _frame_counter
	and     #$01
	jne     L0061
;
; for (index2 = 0; index2 <= MAX_ENTITY; ++index2)
;
	sta     _index2
L0060:	lda     _index2
	cmp     #$11
	bcs     L003E
;
; if (entity_y[index2] == TURN_OFF)
;
	ldy     _index2
	lda     _entity_y,y
	cmp     #$FF
;
; break;
;
	beq     L003E
;
; for (index2 = 0; index2 <= MAX_ENTITY; ++index2)
;
	inc     _index2
	jmp     L0060
;
; entity_y[index2] = enemy_y[index];
;
L003E:	lda     #<(_entity_y)
	ldx     #>(_entity_y)
	clc
	adc     _index2
	bcc     L0043
	inx
L0043:	sta     ptr1
	stx     ptr1+1
	ldy     _index
	lda     _enemy_y,y
	ldy     #$00
	sta     (ptr1),y
;
; entity_x[index2] = enemy_x[index];
;
	lda     #<(_entity_x)
	ldx     #>(_entity_x)
	clc
	adc     _index2
	bcc     L0045
	inx
L0045:	sta     ptr1
	stx     ptr1+1
	ldy     _index
	lda     _enemy_x,y
	ldy     #$00
	sta     (ptr1),y
;
; entity_room[index2] = enemy_room[index];
;
	lda     #<(_entity_room)
	ldx     #>(_entity_room)
	clc
	adc     _index2
	bcc     L0047
	inx
L0047:	sta     ptr1
	stx     ptr1+1
	ldy     _index
	lda     _enemy_room,y
	ldy     #$00
	sta     (ptr1),y
;
; entity_active[index2] = 1;
;
	ldy     _index2
	lda     #$01
	sta     _entity_active,y
;
; entity_type[index2] = ENTITY_BUN;
;
	ldy     _index2
	lda     #$09
	sta     _entity_type,y
;
; entity_actual_x[index2] = enemy_actual_x[index];
;
	lda     #<(_entity_actual_x)
	ldx     #>(_entity_actual_x)
	clc
	adc     _index2
	bcc     L004B
	inx
L004B:	sta     ptr1
	stx     ptr1+1
	ldy     _index
	lda     _enemy_actual_x,y
	ldy     #$00
	sta     (ptr1),y
;
; for (temp1 = 0; temp1 < MAX_PROJECTILES; ++temp1)
;
L0061:	inc     _temp1
	jmp     L0055
;
; if (enemy_type[index] == ENEMY_SNAIL)
;
L0007:	ldy     _index
	lda     _enemy_type,y
	bne     L004D
;
; enemy_snail_behavior();
;
	jsr     _enemy_snail_behavior
;
; if (enemy_type[index] == ENEMY_OWL)
;
L004D:	ldy     _index
	lda     _enemy_type,y
	cmp     #$01
	bne     L004F
;
; enemy_owl_behavior();
;
	jsr     _enemy_owl_behavior
;
; if (enemy_type[index] == ENEMY_BEAR)
;
L004F:	ldy     _index
	lda     _enemy_type,y
	cmp     #$02
	bne     L0051
;
; enemy_bear_behavior();
;
	jmp     _enemy_bear_behavior
;
; }
;
L0051:	rts

.endproc

; ---------------------------------------------------------------
; void __near__ entity_moves (void)
; ---------------------------------------------------------------

.segment	"CODE"

.proc	_entity_moves: near

.segment	"CODE"

;
; if (entity_type[index] == ENTITY_BUN || entity_type[index] == ENTITY_STARBURST || entity_type[index] == ENTITY_STARBURST2 || entity_type[index] == ENTITY_ROCK)
;
	ldy     _index
	lda     _entity_type,y
	cmp     #$09
	beq     L0021
	ldy     _index
	lda     _entity_type,y
	cmp     #$0C
	beq     L0021
	ldy     _index
	lda     _entity_type,y
	cmp     #$0A
	beq     L0021
	ldy     _index
	lda     _entity_type,y
	cmp     #$0B
	beq     L0021
	rts
;
; Generic.x = entity_x[index];
;
L0021:	ldy     _index
	lda     _entity_x,y
	sta     _Generic
;
; Generic.y = entity_y[index] - 6; // mid point
;
	ldy     _index
	lda     _entity_y,y
	sec
	sbc     #$06
	sta     _Generic+1
;
; Generic.width = 16;
;
	lda     #$10
	sta     _Generic+2
;
; Generic.height = 1;
;
	lda     #$01
	sta     _Generic+3
;
; bg_collision_fast();  
;
	jsr     _bg_collision_fast
;
; if (!collision_D)
;
	lda     _collision_D
	jne     L000E
;
; ++entity_y[index];
;
	lda     #<(_entity_y)
	ldx     #>(_entity_y)
	clc
	adc     _index
	bcc     L000D
	inx
L000D:	sta     ptr1
	stx     ptr1+1
	ldy     #$00
	lda     #$01
	clc
	adc     (ptr1),y
	sta     (ptr1),y
;
; if (entity_y[index] != TURN_OFF && !entity_type[index] == ENTITY_STARBURST || !entity_type[index] == ENTITY_STARBURST2)
;
	ldy     _index
	lda     _entity_y,y
	cmp     #$FF
	beq     L0010
	ldy     _index
	lda     _entity_type,y
	jsr     bnega
	cpx     #$00
	bne     L0010
	cmp     #$0C
	beq     L0013
L0010:	ldy     _index
	lda     _entity_type,y
	jsr     bnega
	cpx     #$00
	bne     L000E
	cmp     #$0A
	bne     L000E
;
; ++entity_y[index];
;
L0013:	lda     #<(_entity_y)
	ldx     #>(_entity_y)
	clc
	adc     _index
	bcc     L0017
	inx
L0017:	sta     ptr1
	stx     ptr1+1
	ldy     #$00
	lda     #$01
	clc
	adc     (ptr1),y
	sta     (ptr1),y
;
; ++entity_y[index];
;
	lda     #<(_entity_y)
	ldx     #>(_entity_y)
	clc
	adc     _index
	bcc     L0018
	inx
L0018:	sta     ptr1
	stx     ptr1+1
	lda     #$01
	clc
	adc     (ptr1),y
	sta     (ptr1),y
;
; ++entity_y[index];
;
	lda     #<(_entity_y)
	ldx     #>(_entity_y)
	clc
	adc     _index
	bcc     L0019
	inx
L0019:	sta     ptr1
	stx     ptr1+1
	lda     #$01
	clc
	adc     (ptr1),y
	sta     (ptr1),y
;
; if(collision_D && entity_type[index] == ENTITY_ROCK){
;
L000E:	lda     _collision_D
	beq     L001B
	ldy     _index
	lda     _entity_type,y
	cmp     #$0B
	beq     L0022
L001B:	rts
;
; entity_active[index] = 0;
;
L0022:	ldy     _index
	lda     #$00
	sta     _entity_active,y
;
; entity_y[index] = TURN_OFF;
;
	ldy     _index
	lda     #$FF
	sta     _entity_y,y
;
; }
;
	rts

.endproc

; ---------------------------------------------------------------
; void __near__ reset (void)
; ---------------------------------------------------------------

.segment	"CODE"

.proc	_reset: near

.segment	"CODE"

;
; oam_clear();
;
	jsr     _oam_clear
;
; ppu_wait_nmi();
;
	jsr     _ppu_wait_nmi
;
; pal_bright(4); // back to normal brightness
;
	lda     #$04
	jsr     _pal_bright
;
; scroll_x = 0;
;
	lda     #$00
	sta     _scroll_x
	sta     _scroll_x+1
;
; scroll_y = 0;
;
	sta     _scroll_y
	sta     _scroll_y+1
;
; map_loaded = 0;
;
	sta     _map_loaded
;
; player_in_air = 0;
;
	sta     _player_in_air
;
; falling_down = 0;
;
	sta     _falling_down
;
; player_on_ladder = 0;
;
	sta     _player_on_ladder
;
; player_running = 0;
;
	sta     _player_running
;
; short_jump_count = 0;
;
	sta     _short_jump_count
;
; multi_jump = 0;
;
	sta     _multi_jump
;
; if(projectile_big){
;
	lda     _projectile_big
	beq     L0007
;
; multi_jump_max = 2;
;
	lda     #$02
;
; } else {
;
	jmp     L0006
;
; multi_jump_max = 1;
;
L0007:	lda     #$01
L0006:	sta     _multi_jump_max
;
; projectile_cooldown = 0;
;
	lda     #$00
	sta     _projectile_cooldown
;
; projectile_count = 0;  
;
	sta     _projectile_count
;
; projectile_index = 0;
;
	sta     _projectile_index
;
; player_shooting = 0;
;
	sta     _player_shooting
;
; direction = 1;
;
	lda     #$01
	sta     _direction
;
; direction_y = 0; // down default?
;
	lda     #$00
	sta     _direction_y
;
; frame_counter = 0;
;
	sta     _frame_counter
;
; sprite_frame_counter = 0;
;
	sta     _sprite_frame_counter
;
; r_scroll_frames = 0;  
;
	sta     _r_scroll_frames
;
; l_scroll_frames = 0;
;
	sta     _l_scroll_frames
;
; collision = 0;   
;
	sta     _collision
;
; death = 0;   
;
	sta     _death
;
; BoxGuy1.x = starting_x_place[level] << 8;
;
	ldy     _level
	lda     _starting_x_place,y
	sta     _BoxGuy1+1
	lda     #$00
	sta     _BoxGuy1
;
; BoxGuy1.y = starting_y_place[level] << 8;   
;
	ldy     _level
	lda     _starting_y_place,y
	sta     _BoxGuy1+2+1
	lda     #$00
	sta     _BoxGuy1+2
;
; BoxGuy1.health = MAX_PLAYER_HEALTH;
;
	lda     #$1C
	sta     _BoxGuy1+8
;
; invul_frames = 0;
;
	lda     #$00
	sta     _invul_frames
;
; game_mode = MODE_GAME;         
;
	lda     #$01
	sta     _game_mode
;
; room_to_load = 0; // debug, hacky, change starting room
;
	lda     #$00
	sta     _room_to_load
;
; player_in_hitstun = 0;
;
	sta     _player_in_hitstun
;
; invul_frames = 0;
;
	sta     _invul_frames
;
; nametable_to_load = 0;
;
	sta     _nametable_to_load
;
; ppu_mask(0); // grayscale mode off
;
	jsr     _ppu_mask
;
; pal_bg(palette_bg);  
;
	lda     #<(_palette_bg)
	ldx     #>(_palette_bg)
	jsr     _pal_bg
;
; pal_spr(palette_sp);
;
	lda     #<(_palette_sp)
	ldx     #>(_palette_sp)
	jsr     _pal_spr
;
; bank_spr(0);
;
	lda     #$00
	jsr     _bank_spr
;
; bank_bg(1);
;
	lda     #$01
	jsr     _bank_bg
;
; set_vram_buffer(); // do at least once, sets a pointer to a buffer
;
	jsr     _set_vram_buffer
;
; load_room();
;
	jsr     _load_room
;
; set_scroll_y(0xff); // shift the bg down 1 pixel
;
	ldx     #$00
	lda     #$FF
	jmp     _set_scroll_y

.endproc

; ---------------------------------------------------------------
; void __near__ sprite_obj_init (void)
; ---------------------------------------------------------------

.segment	"CODE"

.proc	_sprite_obj_init: near

.segment	"CODE"

;
; for (temp1 = 0; temp1 < MAX_ENEMY; ++temp1)
;
	lda     #$00
	sta     _temp1
	tax
L0028:	lda     _temp1
	cmp     #$10
	bcs     L0029
;
; enemy_y[temp1] = TURN_OFF;
;
	ldy     _temp1
	lda     #$FF
	sta     _enemy_y,y
;
; for (temp1 = 0; temp1 < MAX_ENEMY; ++temp1)
;
	inc     _temp1
	jmp     L0028
;
; pointer = Enemy_list[level];
;
L0029:	lda     _level
	asl     a
	bcc     L0027
	ldx     #$01
	clc
L0027:	adc     #<(_Enemy_list)
	sta     ptr1
	txa
	adc     #>(_Enemy_list)
	sta     ptr1+1
	ldy     #$01
	lda     (ptr1),y
	sta     _pointer+1
	dey
	lda     (ptr1),y
	sta     _pointer
;
; for (index = 0, index2 = 0; index < MAX_ENEMY; ++index)
;
	tya
	sta     _index
	sta     _index2
L002A:	lda     _index
	cmp     #$10
	jcs     L002C
;
; enemy_x[index] = 0;
;
	ldy     _index
	lda     #$00
	sta     _enemy_x,y
;
; temp1 = pointer[index2]; // get a byte of data
;
	lda     _pointer
	ldx     _pointer+1
	ldy     _index2
	sta     ptr1
	stx     ptr1+1
	lda     (ptr1),y
	sta     _temp1
;
; enemy_y[index] = temp1;
;
	ldy     _index
	lda     _temp1
	sta     _enemy_y,y
;
; if (temp1 == TURN_OFF)
;
	lda     _temp1
	cmp     #$FF
;
; break;
;
	jeq     L002C
;
; ++index2;
;
	inc     _index2
;
; enemy_active[index] = 0;
;
	ldy     _index
	lda     #$00
	sta     _enemy_active,y
;
; temp1 = pointer[index2]; // get a byte of data
;
	lda     _pointer
	ldx     _pointer+1
	ldy     _index2
	sta     ptr1
	stx     ptr1+1
	lda     (ptr1),y
	sta     _temp1
;
; enemy_room[index] = temp1;
;
	ldy     _index
	lda     _temp1
	sta     _enemy_room,y
;
; ++index2;
;
	inc     _index2
;
; temp1 = pointer[index2]; // get a byte of data
;
	lda     _pointer
	ldx     _pointer+1
	ldy     _index2
	sta     ptr1
	stx     ptr1+1
	lda     (ptr1),y
	sta     _temp1
;
; enemy_actual_x[index] = temp1;
;
	ldy     _index
	lda     _temp1
	sta     _enemy_actual_x,y
;
; ++index2;
;
	inc     _index2
;
; temp1 = pointer[index2]; // get a byte of data
;
	lda     _pointer
	ldx     _pointer+1
	ldy     _index2
	sta     ptr1
	stx     ptr1+1
	lda     (ptr1),y
	sta     _temp1
;
; enemy_type[index] = temp1;
;
	ldy     _index
	lda     _temp1
	sta     _enemy_type,y
;
; if (enemy_type[index] == ENEMY_SNAIL)
;
	ldy     _index
	lda     _enemy_type,y
	bne     L0012
;
; enemy_health[index] = ENEMY_SNAIL_HEALTH; // set enemy health here
;
	ldy     _index
	lda     #$02
	sta     _enemy_health,y
;
; if (enemy_type[index] == ENEMY_OWL)
;
L0012:	ldy     _index
	lda     _enemy_type,y
	cmp     #$01
	bne     L0015
;
; enemy_health[index] = ENEMY_OWL_HEALTH; // set enemy health here
;
	ldy     _index
	sta     _enemy_health,y
;
; if (enemy_type[index] == ENEMY_BEAR)
;
L0015:	ldy     _index
	lda     _enemy_type,y
	cmp     #$02
	bne     L002B
;
; enemy_health[index] = ENEMY_BEAR_HEALTH; // set enemy health here
;
	ldy     _index
	lda     #$1C
	sta     _enemy_health,y
;
; ++index2;
;
L002B:	inc     _index2
;
; for (index = 0, index2 = 0; index < MAX_ENEMY; ++index)
;
	inc     _index
	jmp     L002A
;
; for (++index; index < MAX_ENEMY; ++index)
;
L002C:	inc     _index
	lda     _index
	cmp     #$10
	bcs     L001C
;
; enemy_y[index] = TURN_OFF;
;
	ldy     _index
	lda     #$FF
	sta     _enemy_y,y
;
; enemy_mode[index] = 0;
;
	ldy     _index
	lda     #$00
	sta     _enemy_mode,y
;
; for (++index; index < MAX_ENEMY; ++index)
;
	jmp     L002C
;
; }
;
L001C:	rts

.endproc

; ---------------------------------------------------------------
; void __near__ entity_obj_init (void)
; ---------------------------------------------------------------

.segment	"CODE"

.proc	_entity_obj_init: near

.segment	"CODE"

;
; pointer = entity_list[level];
;
	ldx     #$00
	lda     _level
	asl     a
	bcc     L0017
	inx
	clc
L0017:	adc     #<(_entity_list)
	sta     ptr1
	txa
	adc     #>(_entity_list)
	sta     ptr1+1
	ldy     #$01
	lda     (ptr1),y
	sta     _pointer+1
	dey
	lda     (ptr1),y
	sta     _pointer
;
; projectiles_list[0] = TURN_OFF;
;
	lda     #$FF
	sta     _projectiles_list
;
; projectiles_list[1] = TURN_OFF;
;
	sta     _projectiles_list+1
;
; projectiles_list[2] = TURN_OFF;
;
	sta     _projectiles_list+2
;
; projectiles_list[3] = TURN_OFF;
;
	sta     _projectiles_list+3
;
; for (index = 0; index < MAX_ENTITY; ++index)
;
	sty     _index
L0018:	lda     _index
	cmp     #$10
	bcs     L0019
;
; entity_y[index] = TURN_OFF; // turn off all objects
;
	ldy     _index
	lda     #$FF
	sta     _entity_y,y
;
; for (index = 0; index < MAX_ENTITY; ++index)
;
	inc     _index
	jmp     L0018
;
; for (index = 0, index2 = 0; index < MAX_ENTITY; ++index)
;
L0019:	lda     #$00
	sta     _index
	sta     _index2
L001A:	lda     _index
	cmp     #$10
	bcc     L001B
;
; }
;
	rts
;
; entity_x[index] = 0;
;
L001B:	ldy     _index
	lda     #$00
	sta     _entity_x,y
;
; temp1 = pointer[index2]; // get a byte of data
;
	lda     _pointer
	ldx     _pointer+1
	ldy     _index2
	sta     ptr1
	stx     ptr1+1
	lda     (ptr1),y
	sta     _temp1
;
; entity_y[index] = temp1;
;
	ldy     _index
	lda     _temp1
	sta     _entity_y,y
;
; if (temp1 == TURN_OFF)
;
	lda     _temp1
	cmp     #$FF
;
; break;
;
	beq     L0008
;
; ++index2;
;
	inc     _index2
;
; entity_active[index] = 0;
;
	ldy     _index
	lda     #$00
	sta     _entity_active,y
;
; temp1 = pointer[index2]; // get a byte of data
;
	lda     _pointer
	ldx     _pointer+1
	ldy     _index2
	sta     ptr1
	stx     ptr1+1
	lda     (ptr1),y
	sta     _temp1
;
; entity_room[index] = temp1;
;
	ldy     _index
	lda     _temp1
	sta     _entity_room,y
;
; ++index2;
;
	inc     _index2
;
; temp1 = pointer[index2]; // get a byte of data
;
	lda     _pointer
	ldx     _pointer+1
	ldy     _index2
	sta     ptr1
	stx     ptr1+1
	lda     (ptr1),y
	sta     _temp1
;
; entity_actual_x[index] = temp1;
;
	ldy     _index
	lda     _temp1
	sta     _entity_actual_x,y
;
; ++index2;
;
	inc     _index2
;
; temp1 = pointer[index2]; // get a byte of data
;
	lda     _pointer
	ldx     _pointer+1
	ldy     _index2
	sta     ptr1
	stx     ptr1+1
	lda     (ptr1),y
	sta     _temp1
;
; entity_type[index] = temp1;
;
	ldy     _index
	lda     _temp1
	sta     _entity_type,y
;
; ++index2;
;
	inc     _index2
;
; for (index = 0, index2 = 0; index < MAX_ENTITY; ++index)
;
	inc     _index
	jmp     L001A
;
; }
;
L0008:	rts

.endproc

; ---------------------------------------------------------------
; void __near__ init_death (void)
; ---------------------------------------------------------------

.segment	"CODE"

.proc	_init_death: near

.segment	"CODE"

;
; pal_fade_to(4, 0); // fade to black
;
	lda     #$04
	jsr     pusha
	lda     #$00
	jsr     _pal_fade_to
;
; ppu_off();
;
	jsr     _ppu_off
;
; load_gameover();
;
	jsr     _load_gameover
;
; frame_counter = 0;
;
	lda     #$00
	sta     _frame_counter
;
; scroll_x = 0;
;
	tax
	sta     _scroll_x
	sta     _scroll_x+1
;
; set_scroll_x(0);
;
	jsr     _set_scroll_x
;
; oam_clear();
;
	jsr     _oam_clear
;
; game_mode = MODE_DEATH;
;
	lda     #$03
	sta     _game_mode
;
; ppu_on_all();
;
	jsr     _ppu_on_all
;
; music_stop();
;
	jsr     _music_stop
;
; sfx_play(SFX_PLAYER_DIES, 0);
;
	lda     #$04
	jsr     pusha
	lda     #$00
	jsr     _sfx_play
;
; pal_fade_to(0, 4); // fade to black
;
	lda     #$00
	jsr     pusha
	lda     #$04
	jmp     _pal_fade_to

.endproc

; ---------------------------------------------------------------
; void __near__ level_down_routine (void)
; ---------------------------------------------------------------

.segment	"CODE"

.proc	_level_down_routine: near

.segment	"CODE"

;
; pal_fade_to(4, 0); // fade to black
;
	lda     #$04
	jsr     pusha
	lda     #$00
	jsr     _pal_fade_to
;
; ppu_off();
;
	jsr     _ppu_off
;
; game_mode = MODE_SWITCH; // this handles loading the level
;
	lda     #$04
	sta     _game_mode
;
; --level;
;
	dec     _level
;
; level_down = 0;
;
	lda     #$00
	sta     _level_down
;
; max_rooms = level_max_rooms[level] - 1;
;
	ldy     _level
	lda     _level_max_rooms,y
	sec
	sbc     #$01
	sta     _max_rooms
;
; nametable_to_load = max_rooms % 2;
;
	and     #$01
	sta     _nametable_to_load
;
; if (max_rooms > 1)
;
	lda     _max_rooms
	cmp     #$02
	lda     #$00
	bcc     L0009
;
; max_scroll = (max_rooms * 0x100) - 1;
;
	ldx     _max_rooms
	sec
	sbc     #$01
	bcs     L0005
	dex
L0005:	sta     _max_scroll
	stx     _max_scroll+1
;
; scroll_x = max_scroll;
;
	sta     _scroll_x
	stx     _scroll_x+1
;
; else
;
	jmp     L000A
;
; max_scroll = 0;
;
L0009:	sta     _max_scroll
	sta     _max_scroll+1
;
; scroll_x = 0;
;
	sta     _scroll_x
	sta     _scroll_x+1
;
; room_to_load = max_rooms;
;
L000A:	lda     _max_rooms
	sta     _room_to_load
;
; }
;
	rts

.endproc

; ---------------------------------------------------------------
; void __near__ level_up_routine (void)
; ---------------------------------------------------------------

.segment	"CODE"

.proc	_level_up_routine: near

.segment	"CODE"

;
; pal_fade_to(4, 0); // fade to black
;
	lda     #$04
	jsr     pusha
	lda     #$00
	jsr     _pal_fade_to
;
; ppu_off();
;
	jsr     _ppu_off
;
; game_mode = MODE_SWITCH; // this handles loading the level
;
	lda     #$04
	sta     _game_mode
;
; ++level;
;
	inc     _level
;
; level_up = 0;
;
	lda     #$00
	sta     _level_up
;
; max_rooms = level_max_rooms[level] - 1;
;
	ldy     _level
	lda     _level_max_rooms,y
	sec
	sbc     #$01
	sta     _max_rooms
;
; nametable_to_load = 0;
;
	lda     #$00
	sta     _nametable_to_load
;
; scroll_x = 0;
;
	tax
	sta     _scroll_x
	sta     _scroll_x+1
;
; room_to_load = 0;
;
	sta     _room_to_load
;
; if (max_rooms > 1)
;
	lda     _max_rooms
	cmp     #$02
	txa
	bcc     L0009
;
; max_scroll = (max_rooms * 0x100) - 1;
;
	ldx     _max_rooms
	sec
	sbc     #$01
	bcs     L0009
	dex
;
; max_scroll = 0;
;
L0009:	sta     _max_scroll
	stx     _max_scroll+1
;
; }
;
	rts

.endproc

; ---------------------------------------------------------------
; void __near__ load_bear_victory (void)
; ---------------------------------------------------------------

.segment	"CODE"

.proc	_load_bear_victory: near

.segment	"CODE"

;
; nametable_to_load = 0;
;
	lda     #$00
	sta     _nametable_to_load
;
; ppu_off(); // screen off
;
	jsr     _ppu_off
;
; pal_bg(palette_victory);
;
	lda     #<(_palette_victory)
	ldx     #>(_palette_victory)
	jsr     _pal_bg
;
; clear_bg();
;
	jsr     _clear_bg
;
; multi_vram_buffer_horz("FOR DEFEATING THE BEAR", 23, NTADR_A(4, 8));
;
	jsr     decsp3
	lda     #<(S0007)
	ldy     #$01
	sta     (sp),y
	iny
	lda     #>(S0007)
	sta     (sp),y
	lda     #$17
	ldy     #$00
	sta     (sp),y
	ldx     #$21
	lda     #$04
	jsr     _multi_vram_buffer_horz
;
; multi_vram_buffer_horz("GOD HAS BLESSED YOU WITH", 24, NTADR_A(4, 10));
;
	jsr     decsp3
	lda     #<(S0008)
	ldy     #$01
	sta     (sp),y
	iny
	lda     #>(S0008)
	sta     (sp),y
	lda     #$18
	ldy     #$00
	sta     (sp),y
	ldx     #$21
	lda     #$44
	jsr     _multi_vram_buffer_horz
;
; multi_vram_buffer_horz("DOUBLE JUMP & POWER SHOT", 24, NTADR_A(4,12));
;
	jsr     decsp3
	lda     #<(S0009)
	ldy     #$01
	sta     (sp),y
	iny
	lda     #>(S0009)
	sta     (sp),y
	lda     #$18
	ldy     #$00
	sta     (sp),y
	ldx     #$21
	lda     #$84
	jsr     _multi_vram_buffer_horz
;
; multi_vram_buffer_horz("NOW RETURN HOME", 15, NTADR_A(7, 18));
;
	jsr     decsp3
	lda     #<(S000A)
	ldy     #$01
	sta     (sp),y
	iny
	lda     #>(S000A)
	sta     (sp),y
	lda     #$0F
	ldy     #$00
	sta     (sp),y
	ldx     #$22
	lda     #$47
	jsr     _multi_vram_buffer_horz
;
; game_mode = MODE_HALFWAY;
;
	lda     #$09
	sta     _game_mode
;
; ppu_on_all();
;
	jmp     _ppu_on_all

.endproc

; ---------------------------------------------------------------
; void __near__ enemy_snail_behavior (void)
; ---------------------------------------------------------------

.segment	"CODE"

.proc	_enemy_snail_behavior: near

.segment	"CODE"

;
; Generic.x = enemy_x[index];
;
	ldy     _index
	lda     _enemy_x,y
	sta     _Generic
;
; Generic.y = enemy_y[index] + 6; // mid point
;
	ldy     _index
	lda     _enemy_y,y
	clc
	adc     #$06
	sta     _Generic+1
;
; Generic.width = ENEMY_SNAIL_WIDTH;
;
	lda     #$0E
	sta     _Generic+2
;
; Generic.height = ENEMY_SNAIL_HEIGHT;
;
	lda     #$0F
	sta     _Generic+3
;
; if (enemy_frames[index] < 10)
;
	ldy     _index
	lda     _enemy_frames,y
	cmp     #$0A
	bcs     L0005
;
; if (enemy_dir[index] == LEFT)
;
	ldy     _index
	ldx     #$00
	lda     _enemy_dir,y
	bne     L004B
;
; enemy_anim[index] = animate_snail1left_data;
;
	lda     _index
	asl     a
	bcc     L0043
	inx
	clc
L0043:	adc     #<(_enemy_anim)
	sta     ptr1
	txa
	adc     #>(_enemy_anim)
	sta     ptr1+1
	lda     #<(_animate_snail1left_data)
	ldy     #$00
	sta     (ptr1),y
	iny
	lda     #>(_animate_snail1left_data)
	sta     (ptr1),y
;
; else
;
	jmp     L000A
;
; enemy_anim[index] = animate_snail1right_data;
;
L004B:	lda     _index
	asl     a
	bcc     L0044
	inx
	clc
L0044:	adc     #<(_enemy_anim)
	sta     ptr1
	txa
	adc     #>(_enemy_anim)
	sta     ptr1+1
	lda     #<(_animate_snail1right_data)
	ldy     #$00
	sta     (ptr1),y
	iny
	lda     #>(_animate_snail1right_data)
	sta     (ptr1),y
;
; else if (enemy_frames[index] < 20)
;
	jmp     L000A
L0005:	ldy     _index
	lda     _enemy_frames,y
	cmp     #$14
	bcs     L000B
;
; if (enemy_dir[index] == LEFT)
;
	ldy     _index
	ldx     #$00
	lda     _enemy_dir,y
	bne     L004C
;
; enemy_anim[index] = animate_snail2left_data;
;
	lda     _index
	asl     a
	bcc     L0045
	inx
	clc
L0045:	adc     #<(_enemy_anim)
	sta     ptr1
	txa
	adc     #>(_enemy_anim)
	sta     ptr1+1
	lda     #<(_animate_snail2left_data)
	ldy     #$00
	sta     (ptr1),y
	iny
	lda     #>(_animate_snail2left_data)
	sta     (ptr1),y
;
; else
;
	jmp     L000A
;
; enemy_anim[index] = animate_snail2right_data;
;
L004C:	lda     _index
	asl     a
	bcc     L0046
	inx
	clc
L0046:	adc     #<(_enemy_anim)
	sta     ptr1
	txa
	adc     #>(_enemy_anim)
	sta     ptr1+1
	lda     #<(_animate_snail2right_data)
	ldy     #$00
	sta     (ptr1),y
	iny
	lda     #>(_animate_snail2right_data)
	sta     (ptr1),y
;
; else if (enemy_frames[index] < 30)
;
	jmp     L000A
L000B:	ldy     _index
	lda     _enemy_frames,y
	cmp     #$1E
	bcs     L0011
;
; if (enemy_dir[index] == LEFT)
;
	ldy     _index
	ldx     #$00
	lda     _enemy_dir,y
	bne     L004D
;
; enemy_anim[index] = animate_snail3left_data;
;
	lda     _index
	asl     a
	bcc     L0047
	inx
	clc
L0047:	adc     #<(_enemy_anim)
	sta     ptr1
	txa
	adc     #>(_enemy_anim)
	sta     ptr1+1
	lda     #<(_animate_snail3left_data)
	ldy     #$00
	sta     (ptr1),y
	iny
	lda     #>(_animate_snail3left_data)
	sta     (ptr1),y
;
; else
;
	jmp     L000A
;
; enemy_anim[index] = animate_snail3right_data;
;
L004D:	lda     _index
	asl     a
	bcc     L0048
	inx
	clc
L0048:	adc     #<(_enemy_anim)
	sta     ptr1
	txa
	adc     #>(_enemy_anim)
	sta     ptr1+1
	lda     #<(_animate_snail3right_data)
	ldy     #$00
	sta     (ptr1),y
	iny
	lda     #>(_animate_snail3right_data)
	sta     (ptr1),y
;
; else
;
	jmp     L000A
;
; if (enemy_dir[index] == LEFT)
;
L0011:	ldy     _index
	ldx     #$00
	lda     _enemy_dir,y
	bne     L004E
;
; enemy_anim[index] = animate_snail3left_data;
;
	lda     _index
	asl     a
	bcc     L0049
	inx
	clc
L0049:	adc     #<(_enemy_anim)
	sta     ptr1
	txa
	adc     #>(_enemy_anim)
	sta     ptr1+1
	lda     #<(_animate_snail3left_data)
	ldy     #$00
	sta     (ptr1),y
	iny
	lda     #>(_animate_snail3left_data)
;
; else
;
	jmp     L004F
;
; enemy_anim[index] = animate_snail3right_data;
;
L004E:	lda     _index
	asl     a
	bcc     L004A
	inx
	clc
L004A:	adc     #<(_enemy_anim)
	sta     ptr1
	txa
	adc     #>(_enemy_anim)
	sta     ptr1+1
	lda     #<(_animate_snail3right_data)
	ldy     #$00
	sta     (ptr1),y
	iny
	lda     #>(_animate_snail3right_data)
L004F:	sta     (ptr1),y
;
; enemy_frames[index] = 0;
;
	ldy     _index
	lda     #$00
	sta     _enemy_frames,y
;
; if(enemy_mode[index] == TURN_OFF){
;
L000A:	ldy     _index
	lda     _enemy_mode,y
	cmp     #$FF
	bne     L001B
;
; enemy_implosion();
;
	jsr     _enemy_implosion
;
; if (enemy_frames[index] % 3 == 0)
;
L001B:	ldy     _index
	lda     _enemy_frames,y
	jsr     pusha0
	lda     #$03
	jsr     tosumoda0
	cpx     #$00
	beq     L0051
;
; }
;
	rts
;
; if (enemy_frames[index] % 3 == 0)
;
L0051:	cmp     #$00
	beq     L0052
;
; }
;
	rts
;
; if (enemy_mode[index] == 0)
;
L0052:	ldy     _index
	lda     _enemy_mode,y
	bne     L0020
;
; Generic.x -= 1; // test going left
;
	dec     _Generic
;
; bg_collision_fast();
;
	jsr     _bg_collision_fast
;
; if (collision_L)
;
	lda     _collision_L
	beq     L0022
;
; enemy_mode[index] = 1;
;
	ldy     _index
	lda     #$01
;
; return;
;
	jmp     L0042
;
; if (collision_D) // needs ground under it
;
L0022:	lda     _collision_D
	beq     L0024
;
; if (enemy_actual_x[index] == 0)
;
	ldy     _index
	lda     _enemy_actual_x,y
	bne     L0025
;
; --enemy_room[index];
;
	lda     #<(_enemy_room)
	ldx     #>(_enemy_room)
	clc
	adc     _index
	bcc     L0027
	inx
L0027:	sta     ptr1
	stx     ptr1+1
	ldy     #$00
	lda     (ptr1),y
	sec
	sbc     #$01
	sta     (ptr1),y
;
; --enemy_actual_x[index];
;
L0025:	lda     #<(_enemy_actual_x)
	ldx     #>(_enemy_actual_x)
	clc
	adc     _index
	bcc     L0028
	inx
L0028:	sta     ptr1
	stx     ptr1+1
	ldy     #$00
	lda     (ptr1),y
	sec
	sbc     #$01
	sta     (ptr1),y
;
; enemy_dir[index] = LEFT;
;
	ldy     _index
	lda     #$00
	sta     _enemy_dir,y
;
; else
;
	rts
;
; enemy_mode[index] = 1;
;
L0024:	ldy     _index
	lda     #$01
;
; else if (enemy_mode[index] == 1)
;
	jmp     L0042
L0020:	ldy     _index
	lda     _enemy_mode,y
	cmp     #$01
	bne     L0037
;
; Generic.x += 1; // test going right
;
	inc     _Generic
;
; bg_collision_fast();
;
	jsr     _bg_collision_fast
;
; if (collision_R)
;
	lda     _collision_R
;
; return;
;
	bne     L0031
;
; if (collision_D)
;
	lda     _collision_D
	beq     L0031
;
; ++enemy_actual_x[index];
;
	lda     #<(_enemy_actual_x)
	ldx     #>(_enemy_actual_x)
	clc
	adc     _index
	bcc     L0032
	inx
L0032:	sta     ptr1
	stx     ptr1+1
	ldy     #$00
	lda     #$01
	clc
	adc     (ptr1),y
	sta     (ptr1),y
;
; if (enemy_actual_x[index] == 0)
;
	ldy     _index
	lda     _enemy_actual_x,y
	bne     L0033
;
; ++enemy_room[index];
;
	lda     #<(_enemy_room)
	ldx     #>(_enemy_room)
	clc
	adc     _index
	bcc     L0035
	inx
L0035:	sta     ptr1
	stx     ptr1+1
	ldy     #$00
	lda     #$01
	clc
	adc     (ptr1),y
	sta     (ptr1),y
;
; enemy_dir[index] = RIGHT;
;
L0033:	ldy     _index
	lda     #$01
	sta     _enemy_dir,y
;
; else
;
	rts
;
; enemy_mode[index] = 0;
;
L0031:	ldy     _index
	lda     #$00
L0042:	sta     _enemy_mode,y
;
; }
;
L0037:	rts

.endproc

; ---------------------------------------------------------------
; void __near__ enemy_owl_behavior (void)
; ---------------------------------------------------------------

.segment	"CODE"

.proc	_enemy_owl_behavior: near

.segment	"CODE"

;
; if(enemy_mode[index] == TURN_OFF){
;
	ldy     _index
	lda     _enemy_mode,y
	cmp     #$FF
	bne     L0002
;
; enemy_implosion();
;
	jmp     _enemy_implosion
;
; if (enemy_x[index] > Generic2.x      // enemy right of player
;
L0002:	ldy     _index
	lda     _enemy_x,y
;
; && enemy_x[index] - Generic2.x < 50) // and close
;
	cmp     _Generic2
	bcc     L0004
	beq     L0004
	ldy     _index
	lda     _enemy_x,y
	sec
	sbc     _Generic2
	pha
	lda     #$00
	sbc     #$00
	tax
	pla
	cmp     #$32
	txa
	sbc     #$00
	bvc     L0008
	eor     #$80
L0008:	bpl     L0004
;
; enemy_mode[index] = 1;
;
	ldy     _index
	lda     #$01
	sta     _enemy_mode,y
;
; if (enemy_x[index] < Generic2.x      // enemy left of player
;
L0004:	ldy     _index
	lda     _enemy_x,y
;
; && Generic2.x - enemy_x[index] < 50) // and close
;
	cmp     _Generic2
	bcs     L000C
	lda     _Generic2
	sec
	ldy     _index
	sbc     _enemy_x,y
	pha
	lda     #$00
	sbc     #$00
	tax
	pla
	cmp     #$32
	txa
	sbc     #$00
	bvc     L0010
	eor     #$80
L0010:	bpl     L000C
;
; enemy_mode[index] = 1;
;
	ldy     _index
	lda     #$01
	sta     _enemy_mode,y
;
; if (enemy_mode[index] == 0)
;
L000C:	ldy     _index
	lda     _enemy_mode,y
	bne     L0014
;
; if (enemy_dir[index] == LEFT)
;
	ldy     _index
	tax
	lda     _enemy_dir,y
	bne     L007A
;
; enemy_anim[index] = animate_hootyowl5left_data;
;
	lda     _index
	asl     a
	bcc     L0066
	inx
	clc
L0066:	adc     #<(_enemy_anim)
	sta     ptr1
	txa
	adc     #>(_enemy_anim)
	sta     ptr1+1
	lda     #<(_animate_hootyowl5left_data)
	ldy     #$00
	sta     (ptr1),y
	iny
	lda     #>(_animate_hootyowl5left_data)
	sta     (ptr1),y
;
; else
;
	jmp     L0019
;
; enemy_anim[index] = animate_hootyowl5right_data;
;
L007A:	lda     _index
	asl     a
	bcc     L0067
	inx
	clc
L0067:	adc     #<(_enemy_anim)
	sta     ptr1
	txa
	adc     #>(_enemy_anim)
	sta     ptr1+1
	lda     #<(_animate_hootyowl5right_data)
	ldy     #$00
	sta     (ptr1),y
	iny
	lda     #>(_animate_hootyowl5right_data)
	sta     (ptr1),y
;
; else
;
	jmp     L0019
;
; if (enemy_frames[index] < 4)
;
L0014:	ldy     _index
	lda     _enemy_frames,y
	cmp     #$04
	bcs     L001A
;
; if (enemy_dir[index] == LEFT)
;
	ldy     _index
	ldx     #$00
	lda     _enemy_dir,y
	bne     L007B
;
; enemy_anim[index] = animate_hootyowl1left_data;
;
	lda     _index
	asl     a
	bcc     L0068
	inx
	clc
L0068:	adc     #<(_enemy_anim)
	sta     ptr1
	txa
	adc     #>(_enemy_anim)
	sta     ptr1+1
	lda     #<(_animate_hootyowl1left_data)
	ldy     #$00
	sta     (ptr1),y
	iny
	lda     #>(_animate_hootyowl1left_data)
	sta     (ptr1),y
;
; else
;
	jmp     L0019
;
; enemy_anim[index] = animate_hootyowl1right_data;
;
L007B:	lda     _index
	asl     a
	bcc     L0069
	inx
	clc
L0069:	adc     #<(_enemy_anim)
	sta     ptr1
	txa
	adc     #>(_enemy_anim)
	sta     ptr1+1
	lda     #<(_animate_hootyowl1right_data)
	ldy     #$00
	sta     (ptr1),y
	iny
	lda     #>(_animate_hootyowl1right_data)
	sta     (ptr1),y
;
; else if (enemy_frames[index] < 8)
;
	jmp     L0019
L001A:	ldy     _index
	lda     _enemy_frames,y
	cmp     #$08
	bcs     L0020
;
; if (enemy_dir[index] == LEFT)
;
	ldy     _index
	ldx     #$00
	lda     _enemy_dir,y
	bne     L007C
;
; enemy_anim[index] = animate_hootyowl2left_data;
;
	lda     _index
	asl     a
	bcc     L006A
	inx
	clc
L006A:	adc     #<(_enemy_anim)
	sta     ptr1
	txa
	adc     #>(_enemy_anim)
	sta     ptr1+1
	lda     #<(_animate_hootyowl2left_data)
	ldy     #$00
	sta     (ptr1),y
	iny
	lda     #>(_animate_hootyowl2left_data)
	sta     (ptr1),y
;
; else
;
	jmp     L0019
;
; enemy_anim[index] = animate_hootyowl2right_data;
;
L007C:	lda     _index
	asl     a
	bcc     L006B
	inx
	clc
L006B:	adc     #<(_enemy_anim)
	sta     ptr1
	txa
	adc     #>(_enemy_anim)
	sta     ptr1+1
	lda     #<(_animate_hootyowl2right_data)
	ldy     #$00
	sta     (ptr1),y
	iny
	lda     #>(_animate_hootyowl2right_data)
	sta     (ptr1),y
;
; else if (enemy_frames[index] < 12)
;
	jmp     L0019
L0020:	ldy     _index
	lda     _enemy_frames,y
	cmp     #$0C
	bcs     L0026
;
; if (enemy_dir[index] == LEFT)
;
	ldy     _index
	ldx     #$00
	lda     _enemy_dir,y
	bne     L007D
;
; enemy_anim[index] = animate_hootyowl3left_data;
;
	lda     _index
	asl     a
	bcc     L006C
	inx
	clc
L006C:	adc     #<(_enemy_anim)
	sta     ptr1
	txa
	adc     #>(_enemy_anim)
	sta     ptr1+1
	lda     #<(_animate_hootyowl3left_data)
	ldy     #$00
	sta     (ptr1),y
	iny
	lda     #>(_animate_hootyowl3left_data)
	sta     (ptr1),y
;
; else
;
	jmp     L0019
;
; enemy_anim[index] = animate_hootyowl3right_data;
;
L007D:	lda     _index
	asl     a
	bcc     L006D
	inx
	clc
L006D:	adc     #<(_enemy_anim)
	sta     ptr1
	txa
	adc     #>(_enemy_anim)
	sta     ptr1+1
	lda     #<(_animate_hootyowl3right_data)
	ldy     #$00
	sta     (ptr1),y
	iny
	lda     #>(_animate_hootyowl3right_data)
	sta     (ptr1),y
;
; else if (enemy_frames[index] < 16)
;
	jmp     L0019
L0026:	ldy     _index
	lda     _enemy_frames,y
	cmp     #$10
	bcs     L002C
;
; if (enemy_dir[index] == LEFT)
;
	ldy     _index
	ldx     #$00
	lda     _enemy_dir,y
	bne     L007E
;
; enemy_anim[index] = animate_hootyowl4left_data;
;
	lda     _index
	asl     a
	bcc     L006E
	inx
	clc
L006E:	adc     #<(_enemy_anim)
	sta     ptr1
	txa
	adc     #>(_enemy_anim)
	sta     ptr1+1
	lda     #<(_animate_hootyowl4left_data)
	ldy     #$00
	sta     (ptr1),y
	iny
	lda     #>(_animate_hootyowl4left_data)
	sta     (ptr1),y
;
; else
;
	jmp     L0019
;
; enemy_anim[index] = animate_hootyowl4right_data;
;
L007E:	lda     _index
	asl     a
	bcc     L006F
	inx
	clc
L006F:	adc     #<(_enemy_anim)
	sta     ptr1
	txa
	adc     #>(_enemy_anim)
	sta     ptr1+1
	lda     #<(_animate_hootyowl4right_data)
	ldy     #$00
	sta     (ptr1),y
	iny
	lda     #>(_animate_hootyowl4right_data)
	sta     (ptr1),y
;
; else if (enemy_frames[index] < 20)
;
	jmp     L0019
L002C:	ldy     _index
	lda     _enemy_frames,y
	cmp     #$14
	bcs     L0032
;
; if (enemy_dir[index] == LEFT)
;
	ldy     _index
	ldx     #$00
	lda     _enemy_dir,y
	bne     L007F
;
; enemy_anim[index] = animate_hootyowl3left_data;
;
	lda     _index
	asl     a
	bcc     L0070
	inx
	clc
L0070:	adc     #<(_enemy_anim)
	sta     ptr1
	txa
	adc     #>(_enemy_anim)
	sta     ptr1+1
	lda     #<(_animate_hootyowl3left_data)
	ldy     #$00
	sta     (ptr1),y
	iny
	lda     #>(_animate_hootyowl3left_data)
	sta     (ptr1),y
;
; else
;
	jmp     L0019
;
; enemy_anim[index] = animate_hootyowl3right_data;
;
L007F:	lda     _index
	asl     a
	bcc     L0071
	inx
	clc
L0071:	adc     #<(_enemy_anim)
	sta     ptr1
	txa
	adc     #>(_enemy_anim)
	sta     ptr1+1
	lda     #<(_animate_hootyowl3right_data)
	ldy     #$00
	sta     (ptr1),y
	iny
	lda     #>(_animate_hootyowl3right_data)
	sta     (ptr1),y
;
; else if (enemy_frames[index] < 24)
;
	jmp     L0019
L0032:	ldy     _index
	lda     _enemy_frames,y
	cmp     #$18
	bcs     L0038
;
; if (enemy_dir[index] == LEFT)
;
	ldy     _index
	ldx     #$00
	lda     _enemy_dir,y
	bne     L0080
;
; enemy_anim[index] = animate_hootyowl2left_data;
;
	lda     _index
	asl     a
	bcc     L0072
	inx
	clc
L0072:	adc     #<(_enemy_anim)
	sta     ptr1
	txa
	adc     #>(_enemy_anim)
	sta     ptr1+1
	lda     #<(_animate_hootyowl2left_data)
	ldy     #$00
	sta     (ptr1),y
	iny
	lda     #>(_animate_hootyowl2left_data)
	sta     (ptr1),y
;
; else
;
	jmp     L0019
;
; enemy_anim[index] = animate_hootyowl2right_data;
;
L0080:	lda     _index
	asl     a
	bcc     L0073
	inx
	clc
L0073:	adc     #<(_enemy_anim)
	sta     ptr1
	txa
	adc     #>(_enemy_anim)
	sta     ptr1+1
	lda     #<(_animate_hootyowl2right_data)
	ldy     #$00
	sta     (ptr1),y
	iny
	lda     #>(_animate_hootyowl2right_data)
	sta     (ptr1),y
;
; else
;
	jmp     L0019
;
; if (enemy_dir[index] == LEFT)
;
L0038:	ldy     _index
	ldx     #$00
	lda     _enemy_dir,y
	bne     L0081
;
; enemy_anim[index] = animate_hootyowl1left_data;
;
	lda     _index
	asl     a
	bcc     L0074
	inx
	clc
L0074:	adc     #<(_enemy_anim)
	sta     ptr1
	txa
	adc     #>(_enemy_anim)
	sta     ptr1+1
	lda     #<(_animate_hootyowl1left_data)
	ldy     #$00
	sta     (ptr1),y
	iny
	lda     #>(_animate_hootyowl1left_data)
;
; else
;
	jmp     L0082
;
; enemy_anim[index] = animate_hootyowl1right_data;
;
L0081:	lda     _index
	asl     a
	bcc     L0075
	inx
	clc
L0075:	adc     #<(_enemy_anim)
	sta     ptr1
	txa
	adc     #>(_enemy_anim)
	sta     ptr1+1
	lda     #<(_animate_hootyowl1right_data)
	ldy     #$00
	sta     (ptr1),y
	iny
	lda     #>(_animate_hootyowl1right_data)
L0082:	sta     (ptr1),y
;
; enemy_frames[index] = 0;
;
	ldy     _index
	lda     #$00
	sta     _enemy_frames,y
;
; if (enemy_mode[index] == 1) // he moves every 3 frames after activated
;
L0019:	ldy     _index
	lda     _enemy_mode,y
	cmp     #$01
	beq     L0083
;
; }
;
	rts
;
; ++enemy_y[index];
;
L0083:	lda     #<(_enemy_y)
	ldx     #>(_enemy_y)
	clc
	adc     _index
	bcc     L0044
	inx
L0044:	sta     ptr1
	stx     ptr1+1
	ldy     #$00
	lda     #$01
	clc
	adc     (ptr1),y
	sta     (ptr1),y
;
; if (enemy_x[index] > Generic2.x) // enemy is right of player
;
	ldy     _index
	lda     _enemy_x,y
	cmp     _Generic2
	bcc     L0045
	beq     L0045
;
; if (enemy_actual_x[index] == 0)
;
	ldy     _index
	lda     _enemy_actual_x,y
	bne     L0047
;
; --enemy_room[index]; // I think there's a bug here
;
	lda     #<(_enemy_room)
	ldx     #>(_enemy_room)
	clc
	adc     _index
	bcc     L0049
	inx
L0049:	sta     ptr1
	stx     ptr1+1
	ldy     #$00
	lda     (ptr1),y
	sec
	sbc     #$01
	sta     (ptr1),y
;
; --enemy_actual_x[index];
;
L0047:	lda     #<(_enemy_actual_x)
	ldx     #>(_enemy_actual_x)
	clc
	adc     _index
	bcc     L004A
	inx
L004A:	sta     ptr1
	stx     ptr1+1
	ldy     #$00
	lda     (ptr1),y
	sec
	sbc     #$01
	sta     (ptr1),y
;
; enemy_dir[index] = LEFT;
;
	ldy     _index
	lda     #$00
;
; else if (enemy_x[index] < Generic2.x) // enemy is left of player
;
	jmp     L0065
L0045:	ldy     _index
	lda     _enemy_x,y
	cmp     _Generic2
	bcs     L004D
;
; ++enemy_actual_x[index];
;
	lda     #<(_enemy_actual_x)
	ldx     #>(_enemy_actual_x)
	clc
	adc     _index
	bcc     L004F
	inx
L004F:	sta     ptr1
	stx     ptr1+1
	ldy     #$00
	lda     #$01
	clc
	adc     (ptr1),y
	sta     (ptr1),y
;
; if (enemy_actual_x[index] == 0)
;
	ldy     _index
	lda     _enemy_actual_x,y
	bne     L0050
;
; ++enemy_room[index]; // I think there's a bug here
;
	lda     #<(_enemy_room)
	ldx     #>(_enemy_room)
	clc
	adc     _index
	bcc     L0052
	inx
L0052:	sta     ptr1
	stx     ptr1+1
	ldy     #$00
	lda     #$01
	clc
	adc     (ptr1),y
	sta     (ptr1),y
;
; enemy_dir[index] = RIGHT;
;
L0050:	ldy     _index
	lda     #$01
L0065:	sta     _enemy_dir,y
;
; }
;
L004D:	rts

.endproc

; ---------------------------------------------------------------
; void __near__ enemy_bear_behavior (void)
; ---------------------------------------------------------------

.segment	"CODE"

.proc	_enemy_bear_behavior: near

.segment	"CODE"

;
; Generic.x = enemy_x[index];
;
	ldy     _index
	lda     _enemy_x,y
	sta     _Generic
;
; Generic.y = enemy_y[index] + 6; // mid point
;
	ldy     _index
	lda     _enemy_y,y
	clc
	adc     #$06
	sta     _Generic+1
;
; Generic.width = ENEMY_BEAR_WIDTH;
;
	lda     #$0E
	sta     _Generic+2
;
; Generic.height = ENEMY_BEAR_HEIGHT;
;
	lda     #$20
	sta     _Generic+3
;
; if(enemy_mode[index] == TURN_OFF){
;
	ldy     _index
	lda     _enemy_mode,y
	cmp     #$FF
	bne     L0005
;
; enemy_implosion();
;
	jsr     _enemy_implosion
;
; if (enemy_mode[index] == BEAR_WALK)
;
L0005:	ldy     _index
	lda     _enemy_mode,y
	bne     L0007
;
; if(frame_counter > 250){
;
	lda     _frame_counter
	cmp     #$FB
	bcc     L0009
;
; enemy_mode[index] = BEAR_PREP_ATTACK;
;
	ldy     _index
	lda     #$03
	sta     _enemy_mode,y
;
; frame_counter = 0;
;
	lda     #$00
	sta     _frame_counter
;
; else if ((enemy_actual_x[index] >= Generic2.x && ((enemy_actual_x[index] - Generic2.x) > 100)) ||
;
	jmp     L0007
L0009:	ldy     _index
	lda     _enemy_actual_x,y
	cmp     _Generic2
	bcc     L00B9
	ldy     _index
	lda     _enemy_actual_x,y
	sec
	sbc     _Generic2
	pha
	lda     #$00
	sbc     #$00
	tax
	pla
	cmp     #$65
	txa
	sbc     #$00
	bvs     L0010
	eor     #$80
L0010:	bmi     L00E0
;
; (enemy_actual_x[index] < Generic2.x && ((Generic2.x - enemy_actual_x[index]) > 100)))
;
L00B9:	ldy     _index
	lda     _enemy_actual_x,y
	cmp     _Generic2
	bcs     L0007
	lda     _Generic2
	sec
	ldy     _index
	sbc     _enemy_actual_x,y
	pha
	lda     #$00
	sbc     #$00
	tax
	pla
	cmp     #$65
	txa
	sbc     #$00
	bvs     L0017
	eor     #$80
L0017:	bpl     L0007
;
; enemy_mode[index] = BEAR_PREP_RUN;
;
L00E0:	ldy     _index
	lda     #$01
	sta     _enemy_mode,y
;
; if (enemy_mode[index] == BEAR_PREP_RUN)
;
L0007:	ldy     _index
	lda     _enemy_mode,y
	cmp     #$01
	bne     L001C
;
; if (enemy_frames[index] > 50)
;
	ldy     _index
	lda     _enemy_frames,y
	cmp     #$33
	bcc     L001C
;
; enemy_mode[index] = BEAR_RUN;
;
	ldy     _index
	lda     #$02
	sta     _enemy_mode,y
;
; enemy_frames[index] = 0;
;
	ldy     _index
	lda     #$00
	sta     _enemy_frames,y
;
; frame_counter = 0;
;
	sta     _frame_counter
;
; if(enemy_mode[index] == BEAR_PREP_ATTACK)
;
L001C:	ldy     _index
	lda     _enemy_mode,y
	cmp     #$03
	bne     L0022
;
; if (enemy_frames[index] > 60)
;
	ldy     _index
	lda     _enemy_frames,y
	cmp     #$3D
	bcc     L0022
;
; enemy_mode[index] = BEAR_ATTACK;
;
	ldy     _index
	lda     #$04
	sta     _enemy_mode,y
;
; enemy_frames[index] = 0;
;
	ldy     _index
	lda     #$00
	sta     _enemy_frames,y
;
; frame_counter = 0;
;
	sta     _frame_counter
;
; if (enemy_mode[index] == BEAR_RUN)
;
L0022:	ldy     _index
	lda     _enemy_mode,y
	cmp     #$02
	bne     L0028
;
; if (frame_counter > 100)
;
	lda     _frame_counter
	cmp     #$65
	bcc     L0028
;
; enemy_mode[index] = BEAR_WALK;
;
	ldy     _index
	lda     #$00
	sta     _enemy_mode,y
;
; enemy_frames[index] = 0;
;
	ldy     _index
	sta     _enemy_frames,y
;
; if(enemy_mode[index] == BEAR_ATTACK)
;
L0028:	ldy     _index
	lda     _enemy_mode,y
	cmp     #$04
	bne     L002D
;
; if(frame_counter == 0){
;
	lda     _frame_counter
	bne     L00E1
;
; enemy_invul[0] = 150; //bear gets frames of invul during this
; ;
	lda     #$96
	sta     _enemy_invul
;
; entity_y[1] = 37;
;
	lda     #$25
	sta     _entity_y+1
;
; entity_x[1] = (high_byte(BoxGuy1.x) >> 4) + 28;
;
	lda     _BoxGuy1+1
	lsr     a
	lsr     a
	lsr     a
	lsr     a
	clc
	adc     #$1C
	sta     _entity_x+1
;
; entity_room[1] = enemy_room[index];
;
	ldy     _index
	lda     _enemy_room,y
	sta     _entity_room+1
;
; entity_active[1] = 1;
;
	lda     #$01
	sta     _entity_active+1
;
; entity_type[1] = ENTITY_ROCK;
;
	lda     #$0B
	sta     _entity_type+1
;
; entity_actual_x[1] = high_byte(BoxGuy1.x);
;
	lda     _BoxGuy1+1
	sta     _entity_actual_x+1
;
; entity_y[2] = 48;
;
	lda     #$30
	sta     _entity_y+2
;
; entity_x[2] = high_byte(BoxGuy1.x);
;
	lda     _BoxGuy1+1
	sta     _entity_x+2
;
; entity_room[2] = enemy_room[index];
;
	ldy     _index
	lda     _enemy_room,y
	sta     _entity_room+2
;
; entity_active[2] = 1;
;
	lda     #$01
	sta     _entity_active+2
;
; entity_type[2] = ENTITY_ROCK;
;
	lda     #$0B
	sta     _entity_type+2
;
; entity_actual_x[2] = high_byte(BoxGuy1.x) + 60;
;
	lda     _BoxGuy1+1
	clc
	adc     #$3C
	sta     _entity_actual_x+2
;
; if (frame_counter > 150)
;
L00E1:	lda     _frame_counter
	cmp     #$97
	bcc     L002D
;
; enemy_mode[index] = BEAR_WALK;
;
	ldy     _index
	lda     #$00
	sta     _enemy_mode,y
;
; enemy_frames[index] = 0;
;
	ldy     _index
	sta     _enemy_frames,y
;
; switch (enemy_mode[index])
;
L002D:	ldy     _index
	ldx     #$00
	lda     _enemy_mode,y
;
; }
;
	beq     L003A
	cmp     #$01
	jeq     L0057
	cmp     #$02
	jeq     L0064
	cmp     #$03
	jeq     L00E8
	cmp     #$04
	jeq     L0060
	jmp     L0039
;
; if (enemy_frames[index] < 10)
;
L003A:	ldy     _index
	lda     _enemy_frames,y
	cmp     #$0A
	bcs     L003B
;
; if (enemy_dir[index] == LEFT)
;
	ldy     _index
	lda     _enemy_dir,y
	bne     L00E2
;
; enemy_anim[index] = animate_bearwalk1eft_data;
;
	lda     _index
	asl     a
	bcc     L00BE
	inx
	clc
L00BE:	adc     #<(_enemy_anim)
	sta     ptr1
	txa
	adc     #>(_enemy_anim)
	sta     ptr1+1
	lda     #<(_animate_bearwalk1eft_data)
	ldy     #$00
	sta     (ptr1),y
	iny
	lda     #>(_animate_bearwalk1eft_data)
	sta     (ptr1),y
;
; else
;
	jmp     L0039
;
; enemy_anim[index] = animate_bearwalkright_data;
;
L00E2:	lda     _index
	asl     a
	bcc     L00BF
	inx
	clc
L00BF:	adc     #<(_enemy_anim)
	sta     ptr1
	txa
	adc     #>(_enemy_anim)
	sta     ptr1+1
	lda     #<(_animate_bearwalkright_data)
	ldy     #$00
	sta     (ptr1),y
	iny
	lda     #>(_animate_bearwalkright_data)
	sta     (ptr1),y
;
; else if (enemy_frames[index] < 20)
;
	jmp     L0039
L003B:	ldy     _index
	lda     _enemy_frames,y
	cmp     #$14
	bcs     L0041
;
; if (enemy_dir[index] == LEFT)
;
	ldy     _index
	lda     _enemy_dir,y
	bne     L00E3
;
; enemy_anim[index] = animate_bearwalk2left_data;
;
	lda     _index
	asl     a
	bcc     L00C0
	inx
	clc
L00C0:	adc     #<(_enemy_anim)
	sta     ptr1
	txa
	adc     #>(_enemy_anim)
	sta     ptr1+1
	lda     #<(_animate_bearwalk2left_data)
	ldy     #$00
	sta     (ptr1),y
	iny
	lda     #>(_animate_bearwalk2left_data)
	sta     (ptr1),y
;
; else
;
	jmp     L0039
;
; enemy_anim[index] = animate_bearwalk2right_data;
;
L00E3:	lda     _index
	asl     a
	bcc     L00C1
	inx
	clc
L00C1:	adc     #<(_enemy_anim)
	sta     ptr1
	txa
	adc     #>(_enemy_anim)
	sta     ptr1+1
	lda     #<(_animate_bearwalk2right_data)
	ldy     #$00
	sta     (ptr1),y
	iny
	lda     #>(_animate_bearwalk2right_data)
	sta     (ptr1),y
;
; else if (enemy_frames[index] < 30)
;
	jmp     L0039
L0041:	ldy     _index
	lda     _enemy_frames,y
	cmp     #$1E
	bcs     L0047
;
; if (enemy_dir[index] == LEFT)
;
	ldy     _index
	lda     _enemy_dir,y
	bne     L00E4
;
; enemy_anim[index] = animate_bearwalk3left_data;
;
	lda     _index
	asl     a
	bcc     L00C2
	inx
	clc
L00C2:	adc     #<(_enemy_anim)
	sta     ptr1
	txa
	adc     #>(_enemy_anim)
	sta     ptr1+1
	lda     #<(_animate_bearwalk3left_data)
	ldy     #$00
	sta     (ptr1),y
	iny
	lda     #>(_animate_bearwalk3left_data)
	sta     (ptr1),y
;
; else
;
	jmp     L0039
;
; enemy_anim[index] = animate_bearwalk3right_data;
;
L00E4:	lda     _index
	asl     a
	bcc     L00C3
	inx
	clc
L00C3:	adc     #<(_enemy_anim)
	sta     ptr1
	txa
	adc     #>(_enemy_anim)
	sta     ptr1+1
	lda     #<(_animate_bearwalk3right_data)
	ldy     #$00
	sta     (ptr1),y
	iny
	lda     #>(_animate_bearwalk3right_data)
	sta     (ptr1),y
;
; else if (enemy_frames[index] < 40)
;
	jmp     L0039
L0047:	ldy     _index
	lda     _enemy_frames,y
	cmp     #$28
	bcs     L004D
;
; if (enemy_dir[index] == LEFT)
;
	ldy     _index
	lda     _enemy_dir,y
	bne     L00E5
;
; enemy_anim[index] = animate_bearwalk2left_data;
;
	lda     _index
	asl     a
	bcc     L00C4
	inx
	clc
L00C4:	adc     #<(_enemy_anim)
	sta     ptr1
	txa
	adc     #>(_enemy_anim)
	sta     ptr1+1
	lda     #<(_animate_bearwalk2left_data)
	ldy     #$00
	sta     (ptr1),y
	iny
	lda     #>(_animate_bearwalk2left_data)
	sta     (ptr1),y
;
; else
;
	jmp     L0039
;
; enemy_anim[index] = animate_bearwalk2right_data;
;
L00E5:	lda     _index
	asl     a
	bcc     L00C5
	inx
	clc
L00C5:	adc     #<(_enemy_anim)
	sta     ptr1
	txa
	adc     #>(_enemy_anim)
	sta     ptr1+1
	lda     #<(_animate_bearwalk2right_data)
	ldy     #$00
	sta     (ptr1),y
	iny
	lda     #>(_animate_bearwalk2right_data)
	sta     (ptr1),y
;
; else
;
	jmp     L0039
;
; if (enemy_dir[index] == LEFT)
;
L004D:	ldy     _index
	lda     _enemy_dir,y
	jne     L00F0
;
; enemy_anim[index] = animate_bearwalk1eft_data;
;
	lda     _index
	asl     a
	bcc     L00C6
	inx
	clc
L00C6:	adc     #<(_enemy_anim)
	sta     ptr1
	txa
	adc     #>(_enemy_anim)
	sta     ptr1+1
	lda     #<(_animate_bearwalk1eft_data)
	ldy     #$00
	sta     (ptr1),y
	iny
	lda     #>(_animate_bearwalk1eft_data)
;
; else
;
	jmp     L00F3
;
; if (enemy_dir[index] == LEFT)
;
L0057:	ldy     _index
	lda     _enemy_dir,y
	bne     L00E7
;
; enemy_anim[index] = animate_beararms_data;
;
	lda     _index
	asl     a
	bcc     L00C8
	inx
	clc
L00C8:	adc     #<(_enemy_anim)
	sta     ptr1
	txa
	adc     #>(_enemy_anim)
	sta     ptr1+1
	lda     #<(_animate_beararms_data)
	ldy     #$00
	sta     (ptr1),y
	iny
	lda     #>(_animate_beararms_data)
	sta     (ptr1),y
;
; else
;
	jmp     L0039
;
; enemy_anim[index] = animate_beararmsright_data;
;
L00E7:	lda     _index
	asl     a
	bcc     L00C9
	inx
	clc
L00C9:	adc     #<(_enemy_anim)
	sta     ptr1
	txa
	adc     #>(_enemy_anim)
	sta     ptr1+1
	lda     #<(_animate_beararmsright_data)
	ldy     #$00
	sta     (ptr1),y
	iny
	lda     #>(_animate_beararmsright_data)
	sta     (ptr1),y
;
; break;
;
	jmp     L0039
;
; if(frame_counter < 20){
;
L00E8:	lda     _frame_counter
	cmp     #$14
	bcs     L00E9
;
; enemy_anim[index] = animate_bearroarright_data;
;
	lda     _index
	asl     a
	bcc     L00CA
	inx
	clc
L00CA:	adc     #<(_enemy_anim)
	sta     ptr1
	txa
	adc     #>(_enemy_anim)
	sta     ptr1+1
	lda     #<(_animate_bearroarright_data)
	ldy     #$00
	sta     (ptr1),y
	iny
	lda     #>(_animate_bearroarright_data)
	sta     (ptr1),y
;
; } else if(frame_counter < 40) {
;
	jmp     L0039
L00E9:	lda     _frame_counter
	cmp     #$28
	bcs     L00EA
;
; enemy_anim[index] = animate_bearroarleft_data;
;
	lda     _index
	asl     a
	bcc     L00CB
	inx
	clc
L00CB:	adc     #<(_enemy_anim)
	sta     ptr1
	txa
	adc     #>(_enemy_anim)
	sta     ptr1+1
	lda     #<(_animate_bearroarleft_data)
	ldy     #$00
	sta     (ptr1),y
	iny
	lda     #>(_animate_bearroarleft_data)
	sta     (ptr1),y
;
; } else {
;
	jmp     L0039
;
; enemy_anim[index] = animate_bearroarright_data;
;
L00EA:	lda     _index
	asl     a
	bcc     L00CC
	inx
	clc
L00CC:	adc     #<(_enemy_anim)
	sta     ptr1
	txa
	adc     #>(_enemy_anim)
	sta     ptr1+1
	lda     #<(_animate_bearroarright_data)
	ldy     #$00
	sta     (ptr1),y
	iny
	lda     #>(_animate_bearroarright_data)
	sta     (ptr1),y
;
; break;
;
	jmp     L0039
;
; if (enemy_dir[index] == LEFT)
;
L0060:	ldy     _index
	lda     _enemy_dir,y
	bne     L00EB
;
; enemy_anim[index] = animate_beararms_data;
;
	lda     _index
	asl     a
	bcc     L00CD
	inx
	clc
L00CD:	adc     #<(_enemy_anim)
	sta     ptr1
	txa
	adc     #>(_enemy_anim)
	sta     ptr1+1
	lda     #<(_animate_beararms_data)
	ldy     #$00
	sta     (ptr1),y
	iny
	lda     #>(_animate_beararms_data)
	sta     (ptr1),y
;
; else
;
	jmp     L0039
;
; enemy_anim[index] = animate_beararmsright_data;
;
L00EB:	lda     _index
	asl     a
	bcc     L00CE
	inx
	clc
L00CE:	adc     #<(_enemy_anim)
	sta     ptr1
	txa
	adc     #>(_enemy_anim)
	sta     ptr1+1
	lda     #<(_animate_beararmsright_data)
	ldy     #$00
	sta     (ptr1),y
	iny
	lda     #>(_animate_beararmsright_data)
	sta     (ptr1),y
;
; break;
;
	jmp     L0039
;
; if (enemy_frames[index] < 5)
;
L0064:	ldy     _index
	lda     _enemy_frames,y
	cmp     #$05
	bcs     L0065
;
; if (enemy_dir[index] == LEFT)
;
	ldy     _index
	lda     _enemy_dir,y
	bne     L00EC
;
; enemy_anim[index] = animate_bearwalk1eft_data;
;
	lda     _index
	asl     a
	bcc     L00CF
	inx
	clc
L00CF:	adc     #<(_enemy_anim)
	sta     ptr1
	txa
	adc     #>(_enemy_anim)
	sta     ptr1+1
	lda     #<(_animate_bearwalk1eft_data)
	ldy     #$00
	sta     (ptr1),y
	iny
	lda     #>(_animate_bearwalk1eft_data)
	sta     (ptr1),y
;
; else
;
	jmp     L0039
;
; enemy_anim[index] = animate_bearwalkright_data;
;
L00EC:	lda     _index
	asl     a
	bcc     L00D0
	inx
	clc
L00D0:	adc     #<(_enemy_anim)
	sta     ptr1
	txa
	adc     #>(_enemy_anim)
	sta     ptr1+1
	lda     #<(_animate_bearwalkright_data)
	ldy     #$00
	sta     (ptr1),y
	iny
	lda     #>(_animate_bearwalkright_data)
	sta     (ptr1),y
;
; else if (enemy_frames[index] < 10)
;
	jmp     L0039
L0065:	ldy     _index
	lda     _enemy_frames,y
	cmp     #$0A
	bcs     L006B
;
; if (enemy_dir[index] == LEFT)
;
	ldy     _index
	lda     _enemy_dir,y
	bne     L00ED
;
; enemy_anim[index] = animate_bearwalk2left_data;
;
	lda     _index
	asl     a
	bcc     L00D1
	inx
	clc
L00D1:	adc     #<(_enemy_anim)
	sta     ptr1
	txa
	adc     #>(_enemy_anim)
	sta     ptr1+1
	lda     #<(_animate_bearwalk2left_data)
	ldy     #$00
	sta     (ptr1),y
	iny
	lda     #>(_animate_bearwalk2left_data)
	sta     (ptr1),y
;
; else
;
	jmp     L0039
;
; enemy_anim[index] = animate_bearwalk2right_data;
;
L00ED:	lda     _index
	asl     a
	bcc     L00D2
	inx
	clc
L00D2:	adc     #<(_enemy_anim)
	sta     ptr1
	txa
	adc     #>(_enemy_anim)
	sta     ptr1+1
	lda     #<(_animate_bearwalk2right_data)
	ldy     #$00
	sta     (ptr1),y
	iny
	lda     #>(_animate_bearwalk2right_data)
	sta     (ptr1),y
;
; else if (enemy_frames[index] < 15)
;
	jmp     L0039
L006B:	ldy     _index
	lda     _enemy_frames,y
	cmp     #$0F
	bcs     L0071
;
; if (enemy_dir[index] == LEFT)
;
	ldy     _index
	lda     _enemy_dir,y
	bne     L00EE
;
; enemy_anim[index] = animate_bearwalk3left_data;
;
	lda     _index
	asl     a
	bcc     L00D3
	inx
	clc
L00D3:	adc     #<(_enemy_anim)
	sta     ptr1
	txa
	adc     #>(_enemy_anim)
	sta     ptr1+1
	lda     #<(_animate_bearwalk3left_data)
	ldy     #$00
	sta     (ptr1),y
	iny
	lda     #>(_animate_bearwalk3left_data)
	sta     (ptr1),y
;
; else
;
	jmp     L0039
;
; enemy_anim[index] = animate_bearwalk3right_data;
;
L00EE:	lda     _index
	asl     a
	bcc     L00D4
	inx
	clc
L00D4:	adc     #<(_enemy_anim)
	sta     ptr1
	txa
	adc     #>(_enemy_anim)
	sta     ptr1+1
	lda     #<(_animate_bearwalk3right_data)
	ldy     #$00
	sta     (ptr1),y
	iny
	lda     #>(_animate_bearwalk3right_data)
	sta     (ptr1),y
;
; else if (enemy_frames[index] < 20)
;
	jmp     L0039
L0071:	ldy     _index
	lda     _enemy_frames,y
	cmp     #$14
	bcs     L0077
;
; if (enemy_dir[index] == LEFT)
;
	ldy     _index
	lda     _enemy_dir,y
	bne     L00EF
;
; enemy_anim[index] = animate_bearwalk2left_data;
;
	lda     _index
	asl     a
	bcc     L00D5
	inx
	clc
L00D5:	adc     #<(_enemy_anim)
	sta     ptr1
	txa
	adc     #>(_enemy_anim)
	sta     ptr1+1
	lda     #<(_animate_bearwalk2left_data)
	ldy     #$00
	sta     (ptr1),y
	iny
	lda     #>(_animate_bearwalk2left_data)
	sta     (ptr1),y
;
; else
;
	jmp     L0039
;
; enemy_anim[index] = animate_bearwalk2right_data;
;
L00EF:	lda     _index
	asl     a
	bcc     L00D6
	inx
	clc
L00D6:	adc     #<(_enemy_anim)
	sta     ptr1
	txa
	adc     #>(_enemy_anim)
	sta     ptr1+1
	lda     #<(_animate_bearwalk2right_data)
	ldy     #$00
	sta     (ptr1),y
	iny
	lda     #>(_animate_bearwalk2right_data)
	sta     (ptr1),y
;
; else
;
	jmp     L0039
;
; if (enemy_dir[index] == LEFT)
;
L0077:	ldy     _index
	lda     _enemy_dir,y
	bne     L00F0
;
; enemy_anim[index] = animate_bearwalk1eft_data;
;
	lda     _index
	asl     a
	bcc     L00D7
	inx
	clc
L00D7:	adc     #<(_enemy_anim)
	sta     ptr1
	txa
	adc     #>(_enemy_anim)
	sta     ptr1+1
	lda     #<(_animate_bearwalk1eft_data)
	ldy     #$00
	sta     (ptr1),y
	iny
	lda     #>(_animate_bearwalk1eft_data)
;
; else
;
	jmp     L00F3
;
; enemy_anim[index] = animate_bearwalkright_data;
;
L00F0:	lda     _index
	asl     a
	bcc     L00D8
	inx
	clc
L00D8:	adc     #<(_enemy_anim)
	sta     ptr1
	txa
	adc     #>(_enemy_anim)
	sta     ptr1+1
	lda     #<(_animate_bearwalkright_data)
	ldy     #$00
	sta     (ptr1),y
	iny
	lda     #>(_animate_bearwalkright_data)
L00F3:	sta     (ptr1),y
;
; enemy_frames[index] = 0;
;
	ldy     _index
	lda     #$00
	sta     _enemy_frames,y
;
; switch(enemy_mode[index]){
;
L0039:	ldy     _index
	lda     _enemy_mode,y
;
; }
;
	beq     L0085
	cmp     #$01
	bne     L0114
;
; }
;
	rts
;
; }
;
L0114:	cmp     #$02
	beq     L0093
	rts
;
; if (enemy_frames[index] % 3 == 0)
;
L0085:	ldy     _index
	lda     _enemy_frames,y
	jsr     pusha0
	lda     #$03
	jsr     tosumoda0
	cpx     #$00
	beq     L0115
;
; }
;
	rts
;
; if (enemy_frames[index] % 3 == 0)
;
L0115:	cmp     #$00
	beq     L0116
;
; }
;
	rts
;
; if (enemy_x[index] > Generic2.x) // enemy is right of player
;
L0116:	ldy     _index
	lda     _enemy_x,y
	cmp     _Generic2
	bcc     L0094
	beq     L0094
;
; --enemy_actual_x[index];
;
	lda     #<(_enemy_actual_x)
	ldx     #>(_enemy_actual_x)
	clc
	adc     _index
	bcc     L008B
	inx
L008B:	sta     ptr1
	stx     ptr1+1
	ldy     #$00
	lda     (ptr1),y
	sec
	sbc     #$01
	sta     (ptr1),y
;
; enemy_dir[index] = LEFT;
;
	ldy     _index
	lda     #$00
;
; else if (enemy_x[index] < Generic2.x) // enemy is left of player
;
	jmp     L00BD
;
; if (enemy_x[index] > Generic2.x) // enemy is right of player
;
L0093:	ldy     _index
	lda     _enemy_x,y
	cmp     _Generic2
	bcc     L0094
	beq     L0094
;
; --enemy_actual_x[index];
;
	lda     #<(_enemy_actual_x)
	ldx     #>(_enemy_actual_x)
	clc
	adc     _index
	bcc     L0096
	inx
L0096:	sta     ptr1
	stx     ptr1+1
	ldy     #$00
	lda     (ptr1),y
	sec
	sbc     #$01
	sta     (ptr1),y
;
; enemy_dir[index] = LEFT;
;
	ldy     _index
	lda     #$00
;
; else if (enemy_x[index] < Generic2.x) // enemy is left of player
;
	jmp     L00BD
L0094:	ldy     _index
	lda     _enemy_x,y
	cmp     _Generic2
	bcs     L0084
;
; ++enemy_actual_x[index];
;
	lda     #<(_enemy_actual_x)
	ldx     #>(_enemy_actual_x)
	clc
	adc     _index
	bcc     L009B
	inx
L009B:	sta     ptr1
	stx     ptr1+1
	ldy     #$00
	lda     #$01
	clc
	adc     (ptr1),y
	sta     (ptr1),y
;
; enemy_dir[index] = RIGHT;
;
	ldy     _index
	lda     #$01
L00BD:	sta     _enemy_dir,y
;
; }
;
L0084:	rts

.endproc

; ---------------------------------------------------------------
; void __near__ waitTen (void)
; ---------------------------------------------------------------

.segment	"CODE"

.proc	_waitTen: near

.segment	"CODE"

;
; ppu_wait_nmi();
;
	jsr     _ppu_wait_nmi
;
; ppu_wait_nmi();ppu_wait_nmi();ppu_wait_nmi();ppu_wait_nmi();ppu_wait_nmi();ppu_wait_nmi();ppu_wait_nmi();ppu_wait_nmi();ppu_wait_nmi();
;
	jsr     _ppu_wait_nmi
	jsr     _ppu_wait_nmi
	jsr     _ppu_wait_nmi
	jsr     _ppu_wait_nmi
	jsr     _ppu_wait_nmi
	jsr     _ppu_wait_nmi
	jsr     _ppu_wait_nmi
	jsr     _ppu_wait_nmi
	jmp     _ppu_wait_nmi

.endproc

; ---------------------------------------------------------------
; void __near__ drawMetatileBlock (void)
; ---------------------------------------------------------------

.segment	"CODE"

.proc	_drawMetatileBlock: near

.segment	"CODE"

;
; address = get_ppu_addr(nt, x, temp4);
;
	jsr     decsp2
	lda     _nt
	ldy     #$01
	sta     (sp),y
	lda     _x
	dey
	sta     (sp),y
	lda     _temp4
	jsr     _get_ppu_addr
	sta     _address
	stx     _address+1
;
; index = temp4 + (x >> 4);
;
	lda     _x
	lsr     a
	lsr     a
	lsr     a
	lsr     a
	clc
	adc     _temp4
	sta     _index
;
; buffer_4_mt(address, index); // ppu_address, index to the data
;
	lda     _address
	ldx     _address+1
	jsr     pushax
	lda     _index
	jmp     _buffer_4_mt

.endproc

; ---------------------------------------------------------------
; char __near__ bg_coll_L (void)
; ---------------------------------------------------------------

.segment	"CODE"

.proc	_bg_coll_L: near

.segment	"CODE"

;
; temp5 = Generic.x + scroll_x;
;
	lda     _Generic
	clc
	adc     _scroll_x
	sta     _temp5
	lda     #$00
	adc     _scroll_x+1
	sta     _temp5+1
;
; temp_x = (char)temp5;   // low byte
;
	lda     _temp5
	sta     _temp_x
;
; temp_room = temp5 >> 8; // high byte
;
	lda     _temp5+1
	sta     _temp_room
;
; eject_L = temp_x | 0xf0;
;
	lda     _temp_x
	ora     #$F0
	sta     _eject_L
;
; temp_y = Generic.y + 2;
;
	lda     _Generic+1
	clc
	adc     #$02
	sta     _temp_y
;
; if (bg_collision_sub() & COL_ALL)
;
	jsr     _bg_collision_sub
	and     #$40
	beq     L0006
;
; return 1;
;
	ldx     #$00
	lda     #$01
	rts
;
; temp_y = Generic.y + Generic.height;
;
L0006:	lda     _Generic+1
	clc
	adc     _Generic+3
	sta     _temp_y
;
; temp_y -= 2;
;
	sec
	sbc     #$02
	sta     _temp_y
;
; if (bg_collision_sub() & COL_ALL)
;
	jsr     _bg_collision_sub
	ldx     #$00
	and     #$40
	beq     L0008
;
; return 1;
;
	lda     #$01
	rts
;
; }
;
L0008:	rts

.endproc

; ---------------------------------------------------------------
; char __near__ bg_coll_R (void)
; ---------------------------------------------------------------

.segment	"CODE"

.proc	_bg_coll_R: near

.segment	"CODE"

;
; temp5 = Generic.x + scroll_x + Generic.width;
;
	lda     _Generic
	clc
	adc     _scroll_x
	pha
	lda     #$00
	adc     _scroll_x+1
	tax
	pla
	clc
	adc     _Generic+2
	bcc     L0006
	inx
L0006:	sta     _temp5
	stx     _temp5+1
;
; temp_x = (char)temp5;   // low byte
;
	lda     _temp5
	sta     _temp_x
;
; temp_room = temp5 >> 8; // high byte
;
	lda     _temp5+1
	sta     _temp_room
;
; eject_R = (temp_x + 1) & 0x0f;
;
	lda     _temp_x
	clc
	adc     #$01
	and     #$0F
	sta     _eject_R
;
; temp_y = Generic.y + 2;
;
	lda     _Generic+1
	clc
	adc     #$02
	sta     _temp_y
;
; if (bg_collision_sub() & COL_ALL)
;
	jsr     _bg_collision_sub
	and     #$40
	beq     L0008
;
; return 1;
;
	ldx     #$00
	lda     #$01
	rts
;
; temp_y = Generic.y + Generic.height;
;
L0008:	lda     _Generic+1
	clc
	adc     _Generic+3
	sta     _temp_y
;
; temp_y -= 2;
;
	sec
	sbc     #$02
	sta     _temp_y
;
; if (bg_collision_sub() & COL_ALL)
;
	jsr     _bg_collision_sub
	ldx     #$00
	and     #$40
	beq     L000A
;
; return 1;
;
	lda     #$01
	rts
;
; }
;
L000A:	rts

.endproc

; ---------------------------------------------------------------
; char __near__ bg_coll_U (void)
; ---------------------------------------------------------------

.segment	"CODE"

.proc	_bg_coll_U: near

.segment	"CODE"

;
; temp5 = Generic.x + scroll_x;
;
	lda     _Generic
	clc
	adc     _scroll_x
	sta     _temp5
	lda     #$00
	adc     _scroll_x+1
	sta     _temp5+1
;
; temp5 += 2;
;
	lda     #$02
	clc
	adc     _temp5
	sta     _temp5
	bcc     L0002
	inc     _temp5+1
;
; temp_x = (char)temp5;   // low byte
;
L0002:	lda     _temp5
	sta     _temp_x
;
; temp_room = temp5 >> 8; // high byte
;
	lda     _temp5+1
	sta     _temp_room
;
; temp_y = Generic.y;
;
	lda     _Generic+1
	sta     _temp_y
;
; eject_U = temp_y | 0xf0;
;
	ora     #$F0
	sta     _eject_U
;
; if (bg_collision_sub() & COL_ALL)
;
	jsr     _bg_collision_sub
	and     #$40
	beq     L0007
;
; return 1;
;
	ldx     #$00
	lda     #$01
	rts
;
; temp5 = Generic.x + scroll_x + Generic.width;
;
L0007:	lda     _Generic
	clc
	adc     _scroll_x
	pha
	lda     #$00
	adc     _scroll_x+1
	tax
	pla
	clc
	adc     _Generic+2
	bcc     L0006
	inx
L0006:	sta     _temp5
	stx     _temp5+1
;
; temp5 -= 2;
;
	lda     _temp5
	sec
	sbc     #$02
	sta     _temp5
	bcs     L0004
	dec     _temp5+1
;
; temp_x = (char)temp5;   // low byte
;
L0004:	lda     _temp5
	sta     _temp_x
;
; temp_room = temp5 >> 8; // high byte
;
	lda     _temp5+1
	sta     _temp_room
;
; if (bg_collision_sub() & COL_ALL)
;
	jsr     _bg_collision_sub
	ldx     #$00
	and     #$40
	beq     L0009
;
; return 1;
;
	lda     #$01
	rts
;
; }
;
L0009:	rts

.endproc

; ---------------------------------------------------------------
; char __near__ bg_coll_D (void)
; ---------------------------------------------------------------

.segment	"CODE"

.proc	_bg_coll_D: near

.segment	"CODE"

;
; temp5 = Generic.x + scroll_x;
;
	lda     _Generic
	clc
	adc     _scroll_x
	sta     _temp5
	lda     #$00
	adc     _scroll_x+1
	sta     _temp5+1
;
; temp5 += 2;
;
	lda     #$02
	clc
	adc     _temp5
	sta     _temp5
	bcc     L0002
	inc     _temp5+1
;
; temp_x = (char)temp5;   // low byte
;
L0002:	lda     _temp5
	sta     _temp_x
;
; temp_room = temp5 >> 8; // high byte
;
	lda     _temp5+1
	sta     _temp_room
;
; temp_y = Generic.y + Generic.height;
;
	lda     _Generic+1
	clc
	adc     _Generic+3
	sta     _temp_y
;
; if ((temp_y & 0x0f) > 3)
;
	and     #$0F
	cmp     #$04
	lda     #$00
	sbc     #$00
	bvs     L0004
	eor     #$80
L0004:	asl     a
	lda     #$00
	bcc     L0018
;
; return 0; // bug fix
;
	tax
	rts
;
; eject_D = (temp_y + 1) & 0x0f;
;
L0018:	lda     _temp_y
	clc
	adc     #$01
	and     #$0F
	sta     _eject_D
;
; if (bg_collision_sub() & COL_ALL || ((bg_collision_sub() & COL_LADDER_TOP) && !player_on_ladder))
;
	jsr     _bg_collision_sub
	and     #$40
	bne     L001E
	jsr     _bg_collision_sub
	ldx     #$00
	and     #$02
	beq     L0022
	lda     _player_on_ladder
	beq     L002D
	jmp     L0022
;
; return 1;
;
L001E:	ldx     #$00
L002D:	lda     #$01
	rts
;
; temp5 = Generic.x + scroll_x + Generic.width;
;
L0022:	lda     _Generic
	clc
	adc     _scroll_x
	pha
	txa
	adc     _scroll_x+1
	tax
	pla
	clc
	adc     _Generic+2
	bcc     L0014
	inx
L0014:	sta     _temp5
	stx     _temp5+1
;
; temp5 -= 2;
;
	lda     _temp5
	sec
	sbc     #$02
	sta     _temp5
	bcs     L000C
	dec     _temp5+1
;
; temp_x = (char)temp5;   // low byte
;
L000C:	lda     _temp5
	sta     _temp_x
;
; temp_room = temp5 >> 8; // high byte
;
	lda     _temp5+1
	sta     _temp_room
;
; if (bg_collision_sub() & COL_ALL || ((bg_collision_sub() & COL_LADDER_TOP) && !player_on_ladder))
;
	jsr     _bg_collision_sub
	and     #$40
	bne     L0028
	jsr     _bg_collision_sub
	ldx     #$00
	and     #$02
	beq     L0027
	lda     _player_on_ladder
	beq     L002E
	txa
	rts
L0027:	rts
;
; return 1;
;
L0028:	ldx     #$00
L002E:	lda     #$01
	rts

.endproc

; ---------------------------------------------------------------
; char __near__ bg_coll_D2 (void)
; ---------------------------------------------------------------

.segment	"CODE"

.proc	_bg_coll_D2: near

.segment	"CODE"

;
; temp5 = Generic.x + scroll_x;
;
	lda     _Generic
	clc
	adc     _scroll_x
	sta     _temp5
	lda     #$00
	adc     _scroll_x+1
	sta     _temp5+1
;
; temp5 += 2;
;
	lda     #$02
	clc
	adc     _temp5
	sta     _temp5
	bcc     L0002
	inc     _temp5+1
;
; temp_x = (char)temp5;   // low byte
;
L0002:	lda     _temp5
	sta     _temp_x
;
; temp_room = temp5 >> 8; // high byte
;
	lda     _temp5+1
	sta     _temp_room
;
; temp_y = Generic.y + Generic.height;
;
	lda     _Generic+1
	clc
	adc     _Generic+3
	sta     _temp_y
;
; temp_y += 2;
;
	lda     #$02
	clc
	adc     _temp_y
	sta     _temp_y
;
; if (bg_collision_sub())
;
	jsr     _bg_collision_sub
	tax
	beq     L0008
;
; return 1;
;
	ldx     #$00
	lda     #$01
	rts
;
; temp5 = Generic.x + scroll_x + Generic.width;
;
L0008:	lda     _Generic
	clc
	adc     _scroll_x
	pha
	txa
	adc     _scroll_x+1
	tax
	pla
	clc
	adc     _Generic+2
	bcc     L0007
	inx
L0007:	sta     _temp5
	stx     _temp5+1
;
; temp5 -= 2;
;
	lda     _temp5
	sec
	sbc     #$02
	sta     _temp5
	bcs     L0004
	dec     _temp5+1
;
; temp_x = (char)temp5;   // low byte
;
L0004:	lda     _temp5
	sta     _temp_x
;
; temp_room = temp5 >> 8; // high byte
;
	lda     _temp5+1
	sta     _temp_room
;
; if (bg_collision_sub())
;
	jsr     _bg_collision_sub
	tax
	beq     L000A
;
; return 1;
;
	ldx     #$00
	lda     #$01
	rts
;
; }
;
L000A:	rts

.endproc

; ---------------------------------------------------------------
; char __near__ get_position (void)
; ---------------------------------------------------------------

.segment	"CODE"

.proc	_get_position: near

.segment	"CODE"

;
; temp5 -= scroll_x;
;
	lda     _scroll_x
	eor     #$FF
	sec
	adc     _temp5
	sta     _temp5
	lda     _scroll_x+1
	eor     #$FF
	adc     _temp5+1
	sta     _temp5+1
;
; temp_x = temp5 & 0xff;
;
	lda     _temp5
	ldx     #$00
	sta     _temp_x
;
; if (high_byte(temp5))
;
	lda     _temp5+1
	beq     L0003
;
; return 0;
;
	txa
	rts
;
; return 1;
;
L0003:	lda     #$01
;
; }
;
	rts

.endproc

; ---------------------------------------------------------------
; void __near__ bg_collision_fast (void)
; ---------------------------------------------------------------

.segment	"CODE"

.proc	_bg_collision_fast: near

.segment	"CODE"

;
; collision_L = 0;
;
	lda     #$00
	sta     _collision_L
;
; collision_R = 0;
;
	sta     _collision_R
;
; collision_D = 0;
;
	sta     _collision_D
;
; if (Generic.y >= 0xf0)
;
	lda     _Generic+1
	cmp     #$F0
;
; return;
;
	bcc     L0009
;
; }
;
	rts
;
; temp5 = Generic.x + scroll_x;
;
L0009:	lda     _Generic
	clc
	adc     _scroll_x
	pha
	lda     #$00
	adc     _scroll_x+1
	sta     _temp5+1
	pla
	sta     _temp5
;
; temp_x = temp5 & 0xff;  // low byte x
;
	sta     _temp_x
;
; temp_room = temp5 >> 8; // high byte x
;
	lda     _temp5+1
	sta     _temp_room
;
; temp_y = Generic.y + 6; // y middle
;
	lda     _Generic+1
	clc
	adc     #$06
	sta     _temp_y
;
; bg_collision_sub();
;
	jsr     _bg_collision_sub
;
; if (bg_collision_sub() & COL_ALL)
;
	jsr     _bg_collision_sub
	and     #$40
	beq     L0007
;
; ++collision_L;
;
	inc     _collision_L
;
; temp5 += Generic.width;
;
L0007:	lda     _Generic+2
	clc
	adc     _temp5
	sta     _temp5
	lda     #$00
	adc     _temp5+1
	sta     _temp5+1
;
; temp_x = temp5 & 0xff;  // low byte x
;
	lda     _temp5
	sta     _temp_x
;
; temp_room = temp5 >> 8; // high byte x
;
	lda     _temp5+1
	sta     _temp_room
;
; bg_collision_sub();
;
	jsr     _bg_collision_sub
;
; if (bg_collision_sub() & COL_ALL)
;
	jsr     _bg_collision_sub
	and     #$40
	beq     L0008
;
; ++collision_R;
;
	inc     _collision_R
;
; temp5 -= (Generic.width >> 1); // middle of character
;
L0008:	lda     _Generic+2
	lsr     a
	eor     #$FF
	sec
	adc     _temp5
	sta     _temp5
	lda     #$FF
	adc     _temp5+1
	sta     _temp5+1
;
; temp_x = (char)temp5;          // low byte
;
	lda     _temp5
	sta     _temp_x
;
; temp_y += 6;
;
	lda     #$06
	clc
	adc     _temp_y
	sta     _temp_y
;
; if (bg_collision_sub() & COL_ALL)
;
	jsr     _bg_collision_sub
	and     #$40
	beq     L0006
;
; ++collision_D;
;
	inc     _collision_D
;
; }
;
L0006:	rts

.endproc

; ---------------------------------------------------------------
; char __near__ bg_coll_ladder (void)
; ---------------------------------------------------------------

.segment	"CODE"

.proc	_bg_coll_ladder: near

.segment	"CODE"

;
; temp5 = Generic.x + scroll_x + 7;
;
	lda     _Generic
	clc
	adc     _scroll_x
	pha
	lda     #$00
	adc     _scroll_x+1
	tax
	pla
	clc
	adc     #$07
	bcc     L0002
	inx
L0002:	sta     _temp5
	stx     _temp5+1
;
; temp_x = (char)temp5; // low byte
;
	lda     _temp5
	sta     _temp_x
;
; temp_y = Generic.y + Generic.height;
;
	lda     _Generic+1
	clc
	adc     _Generic+3
	sta     _temp_y
;
; temp_y -= 2;
;
	sec
	sbc     #$02
	sta     _temp_y
;
; if (bg_collision_sub() & COL_LADDER || bg_collision_sub() & COL_LADDER_TOP)
;
	jsr     _bg_collision_sub
	and     #$01
	bne     L0007
	jsr     _bg_collision_sub
	and     #$02
	bne     L0007
	tax
	rts
;
; return temp5;
;
L0007:	ldx     #$00
	lda     _temp5
	rts

.endproc

; ---------------------------------------------------------------
; char __near__ bg_coll_ladder_top_at_player (void)
; ---------------------------------------------------------------

.segment	"CODE"

.proc	_bg_coll_ladder_top_at_player: near

.segment	"CODE"

;
; temp5 = Generic.x + scroll_x + 7;
;
	lda     _Generic
	clc
	adc     _scroll_x
	pha
	lda     #$00
	adc     _scroll_x+1
	tax
	pla
	clc
	adc     #$07
	bcc     L0002
	inx
L0002:	sta     _temp5
	stx     _temp5+1
;
; temp_x = (char)temp5; // low byte
;
	lda     _temp5
	sta     _temp_x
;
; temp_y = Generic.y + Generic.height;
;
	lda     _Generic+1
	clc
	adc     _Generic+3
	sta     _temp_y
;
; temp_y -= 2;
;
	sec
	sbc     #$02
	sta     _temp_y
;
; if (bg_collision_sub() & COL_LADDER)
;
	jsr     _bg_collision_sub
	ldx     #$00
	and     #$01
	beq     L0006
;
; return 1;
;
	lda     #$01
	rts
;
; }
;
L0006:	rts

.endproc

; ---------------------------------------------------------------
; char __near__ bg_coll_ladder_top_under_player (void)
; ---------------------------------------------------------------

.segment	"CODE"

.proc	_bg_coll_ladder_top_under_player: near

.segment	"CODE"

;
; temp5 = Generic.x + scroll_x + 7;
;
	lda     _Generic
	clc
	adc     _scroll_x
	pha
	lda     #$00
	adc     _scroll_x+1
	tax
	pla
	clc
	adc     #$07
	bcc     L0002
	inx
L0002:	sta     _temp5
	stx     _temp5+1
;
; temp_x = (char)temp5; // low byte
;
	lda     _temp5
	sta     _temp_x
;
; temp_y = Generic.y + Generic.height;
;
	lda     _Generic+1
	clc
	adc     _Generic+3
	sta     _temp_y
;
; temp_y += 4;
;
	lda     #$04
	clc
	adc     _temp_y
	sta     _temp_y
;
; if (bg_collision_sub() & COL_LADDER_TOP)
;
	jsr     _bg_collision_sub
	ldx     #$00
	and     #$02
	beq     L0006
;
; return 1;
;
	lda     #$01
	rts
;
; }
;
L0006:	rts

.endproc

; ---------------------------------------------------------------
; void __near__ draw_health_meter (void)
; ---------------------------------------------------------------

.segment	"CODE"

.proc	_draw_health_meter: near

.segment	"CODE"

;
; switch (temp)
;
	lda     _temp
;
; }
;
	cmp     #$01
	jeq     L001F
	cmp     #$02
	jeq     L001E
	cmp     #$03
	jeq     L001D
	cmp     #$04
	jeq     L001C
	cmp     #$05
	jeq     L001B
	cmp     #$06
	jeq     L001A
	cmp     #$07
	jeq     L0019
	cmp     #$08
	jeq     L0018
	cmp     #$09
	jeq     L0017
	cmp     #$0A
	jeq     L0016
	cmp     #$0B
	jeq     L0015
	cmp     #$0C
	jeq     L0014
	cmp     #$0D
	jeq     L0013
	cmp     #$0E
	jeq     L0012
	cmp     #$0F
	jeq     L0011
	cmp     #$10
	jeq     L0010
	cmp     #$11
	jeq     L000F
	cmp     #$12
	jeq     L000E
	cmp     #$13
	jeq     L000D
	cmp     #$14
	beq     L000C
	cmp     #$15
	beq     L000B
	cmp     #$16
	beq     L000A
	cmp     #$17
	beq     L0009
	cmp     #$18
	beq     L0008
	cmp     #$19
	beq     L0007
	cmp     #$1A
	beq     L0006
	cmp     #$1B
	beq     L0005
	cmp     #$1C
	jne     L0020
;
; tempint2 = animate_meter28_data;
;
	lda     #>(_animate_meter28_data)
	sta     _tempint2+1
	lda     #<(_animate_meter28_data)
;
; break;
;
	jmp     L0021
;
; tempint2 = animate_meter27_data;
;
L0005:	lda     #>(_animate_meter27_data)
	sta     _tempint2+1
	lda     #<(_animate_meter27_data)
;
; break;
;
	jmp     L0021
;
; tempint2 = animate_meter26_data;
;
L0006:	lda     #>(_animate_meter26_data)
	sta     _tempint2+1
	lda     #<(_animate_meter26_data)
;
; break;
;
	jmp     L0021
;
; tempint2 = animate_meter25_data;
;
L0007:	lda     #>(_animate_meter25_data)
	sta     _tempint2+1
	lda     #<(_animate_meter25_data)
;
; break;
;
	jmp     L0021
;
; tempint2 = animate_meter24_data;
;
L0008:	lda     #>(_animate_meter24_data)
	sta     _tempint2+1
	lda     #<(_animate_meter24_data)
;
; break;
;
	jmp     L0021
;
; tempint2 = animate_meter23_data;
;
L0009:	lda     #>(_animate_meter23_data)
	sta     _tempint2+1
	lda     #<(_animate_meter23_data)
;
; break;
;
	jmp     L0021
;
; tempint2 = animate_meter22_data;
;
L000A:	lda     #>(_animate_meter22_data)
	sta     _tempint2+1
	lda     #<(_animate_meter22_data)
;
; break;
;
	jmp     L0021
;
; tempint2 = animate_meter21_data;
;
L000B:	lda     #>(_animate_meter21_data)
	sta     _tempint2+1
	lda     #<(_animate_meter21_data)
;
; break;
;
	jmp     L0021
;
; tempint2 = animate_meter20_data;
;
L000C:	lda     #>(_animate_meter20_data)
	sta     _tempint2+1
	lda     #<(_animate_meter20_data)
;
; break;
;
	jmp     L0021
;
; tempint2 = animate_meter19_data;
;
L000D:	lda     #>(_animate_meter19_data)
	sta     _tempint2+1
	lda     #<(_animate_meter19_data)
;
; break;
;
	jmp     L0021
;
; tempint2 = animate_meter18_data;
;
L000E:	lda     #>(_animate_meter18_data)
	sta     _tempint2+1
	lda     #<(_animate_meter18_data)
;
; break;
;
	jmp     L0021
;
; tempint2 = animate_meter17_data;
;
L000F:	lda     #>(_animate_meter17_data)
	sta     _tempint2+1
	lda     #<(_animate_meter17_data)
;
; break;
;
	jmp     L0021
;
; tempint2 = animate_meter16_data;
;
L0010:	lda     #>(_animate_meter16_data)
	sta     _tempint2+1
	lda     #<(_animate_meter16_data)
;
; break;
;
	jmp     L0021
;
; tempint2 = animate_meter15_data;
;
L0011:	lda     #>(_animate_meter15_data)
	sta     _tempint2+1
	lda     #<(_animate_meter15_data)
;
; break;
;
	jmp     L0021
;
; tempint2 = animate_meter14_data;
;
L0012:	lda     #>(_animate_meter14_data)
	sta     _tempint2+1
	lda     #<(_animate_meter14_data)
;
; break;
;
	jmp     L0021
;
; tempint2 = animate_meter13_data;
;
L0013:	lda     #>(_animate_meter13_data)
	sta     _tempint2+1
	lda     #<(_animate_meter13_data)
;
; break;
;
	jmp     L0021
;
; tempint2 = animate_meter12_data;
;
L0014:	lda     #>(_animate_meter12_data)
	sta     _tempint2+1
	lda     #<(_animate_meter12_data)
;
; break;
;
	jmp     L0021
;
; tempint2 = animate_meter11_data;
;
L0015:	lda     #>(_animate_meter11_data)
	sta     _tempint2+1
	lda     #<(_animate_meter11_data)
;
; break;
;
	jmp     L0021
;
; tempint2 = animate_meter10_data;
;
L0016:	lda     #>(_animate_meter10_data)
	sta     _tempint2+1
	lda     #<(_animate_meter10_data)
;
; break;
;
	jmp     L0021
;
; tempint2 = animate_meter9_data;
;
L0017:	lda     #>(_animate_meter9_data)
	sta     _tempint2+1
	lda     #<(_animate_meter9_data)
;
; break;
;
	jmp     L0021
;
; tempint2 = animate_meter8_data;
;
L0018:	lda     #>(_animate_meter8_data)
	sta     _tempint2+1
	lda     #<(_animate_meter8_data)
;
; break;
;
	jmp     L0021
;
; tempint2 = animate_meter7_data;
;
L0019:	lda     #>(_animate_meter7_data)
	sta     _tempint2+1
	lda     #<(_animate_meter7_data)
;
; break;
;
	jmp     L0021
;
; tempint2 = animate_meter6_data;
;
L001A:	lda     #>(_animate_meter6_data)
	sta     _tempint2+1
	lda     #<(_animate_meter6_data)
;
; break;
;
	jmp     L0021
;
; tempint2 = animate_meter5_data;
;
L001B:	lda     #>(_animate_meter5_data)
	sta     _tempint2+1
	lda     #<(_animate_meter5_data)
;
; break;
;
	jmp     L0021
;
; tempint2 = animate_meter4_data;
;
L001C:	lda     #>(_animate_meter4_data)
	sta     _tempint2+1
	lda     #<(_animate_meter4_data)
;
; break;
;
	jmp     L0021
;
; tempint2 = animate_meter3_data;
;
L001D:	lda     #>(_animate_meter3_data)
	sta     _tempint2+1
	lda     #<(_animate_meter3_data)
;
; break;
;
	jmp     L0021
;
; tempint2 = animate_meter2_data;
;
L001E:	lda     #>(_animate_meter2_data)
	sta     _tempint2+1
	lda     #<(_animate_meter2_data)
;
; break;
;
	jmp     L0021
;
; tempint2 = animate_meter1_data;
;
L001F:	lda     #>(_animate_meter1_data)
	sta     _tempint2+1
	lda     #<(_animate_meter1_data)
;
; break;
;
	jmp     L0021
;
; tempint2 = animate_meter0_data;
;
L0020:	lda     #>(_animate_meter0_data)
	sta     _tempint2+1
	lda     #<(_animate_meter0_data)
L0021:	sta     _tempint2
;
; }
;
	rts

.endproc

; ---------------------------------------------------------------
; void __near__ draw_player_sprites (void)
; ---------------------------------------------------------------

.segment	"CODE"

.proc	_draw_player_sprites: near

.segment	"CODE"

;
; temp = BoxGuy1.health;
;
	lda     _BoxGuy1+8
	sta     _temp
;
; draw_health_meter();
;
	jsr     _draw_health_meter
;
; oam_meta_spr(0x16, 0x16, tempint2);
;
	jsr     decsp2
	lda     #$16
	ldy     #$01
	sta     (sp),y
	dey
	sta     (sp),y
	lda     _tempint2
	ldx     _tempint2+1
	jsr     _oam_meta_spr
;
; temp_x = BoxGuy1.x >> 8;
;
	lda     _BoxGuy1+1
	sta     _temp_x
;
; temp_y = BoxGuy1.y >> 8;
;
	lda     _BoxGuy1+3
	sta     _temp_y
;
; if (temp_x == 0)
;
	lda     _temp_x
	bne     L0062
;
; temp_x = 1;
;
	lda     #$01
	sta     _temp_x
;
; if (temp_y == 0)
;
L0062:	lda     _temp_y
	bne     L0063
;
; temp_y = 1;
;
	lda     #$01
	sta     _temp_y
;
; ++sprite_frame_counter;
;
L0063:	inc     _sprite_frame_counter
;
; if (invul_frames > 0)
;
	lda     _invul_frames
	beq     L0064
;
; if ((frame_counter % TOTAL_DURATION) < FLASH_DURATION)
;
	lda     _frame_counter
	jsr     pusha0
	lda     #$14
	jsr     tosumoda0
	cmp     #$04
	txa
	sbc     #$00
	bvc     L0006
	eor     #$80
;
; return;
;
L0006:	bpl     L0064
;
; }
;
	rts
;
; if (player_shooting > 0)
;
L0064:	lda     _player_shooting
	beq     L0007
;
; --player_shooting;
;
	dec     _player_shooting
;
; if (player_in_hitstun)
;
L0007:	lda     _player_in_hitstun
	beq     L0008
;
; if (direction == LEFT)
;
	lda     _direction
	bne     L0065
;
; if (sprite_frame_counter < 8)
;
	lda     _sprite_frame_counter
	cmp     #$08
	bcs     L000A
;
; tempint = animate_skeletonleft_data;
;
	lda     #>(_animate_skeletonleft_data)
	sta     _tempint+1
	lda     #<(_animate_skeletonleft_data)
;
; else
;
	jmp     L0061
;
; tempint = animate_recoilleft_data;
;
L000A:	lda     #>(_animate_recoilleft_data)
	sta     _tempint+1
	lda     #<(_animate_recoilleft_data)
;
; else
;
	jmp     L0077
;
; if (sprite_frame_counter < 8)
;
L0065:	lda     _sprite_frame_counter
	cmp     #$08
	bcs     L000E
;
; tempint = animate_skeletonright_data;
;
	lda     #>(_animate_skeletonright_data)
	sta     _tempint+1
	lda     #<(_animate_skeletonright_data)
;
; else
;
	jmp     L0061
;
; tempint = animate_recoilright_data;
;
L000E:	lda     #>(_animate_recoilright_data)
	sta     _tempint+1
	lda     #<(_animate_recoilright_data)
L0077:	sta     _tempint
;
; if (sprite_frame_counter > 16)
;
	lda     _sprite_frame_counter
	cmp     #$11
	jcc     L007C
;
; sprite_frame_counter = 0;
;
	lda     #$00
	sta     _sprite_frame_counter
;
; return;
;
	jmp     L007C
;
; else if (player_is_sliding){
;
L0008:	lda     _player_is_sliding
	beq     L0012
;
; if(direction == LEFT){
;
	lda     _direction
	bne     L0013
;
; tempint = animate_slideleft_data;
;
	lda     #>(_animate_slideleft_data)
	sta     _tempint+1
	lda     #<(_animate_slideleft_data)
;
; } else {
;
	jmp     L0061
;
; tempint = animate_slideright_data;
;
L0013:	lda     #>(_animate_slideright_data)
	sta     _tempint+1
	lda     #<(_animate_slideright_data)
;
; return;
;
	jmp     L0061
;
; else if (player_in_air)
;
L0012:	lda     _player_in_air
	beq     L0016
;
; if (direction == LEFT)
;
	lda     _direction
	bne     L0017
;
; if (player_shooting)
;
	lda     _player_shooting
	beq     L0018
;
; tempint = animate_playerjumpleftshoot_data;
;
	lda     #>(_animate_playerjumpleftshoot_data)
	sta     _tempint+1
	lda     #<(_animate_playerjumpleftshoot_data)
;
; else
;
	jmp     L0061
;
; tempint = animate_playerjumpleft_data;
;
L0018:	lda     #>(_animate_playerjumpleft_data)
	sta     _tempint+1
	lda     #<(_animate_playerjumpleft_data)
;
; else
;
	jmp     L0061
;
; if (player_shooting)
;
L0017:	lda     _player_shooting
	beq     L001B
;
; tempint = animate_playerjumprightshoot_data;
;
	lda     #>(_animate_playerjumprightshoot_data)
	sta     _tempint+1
	lda     #<(_animate_playerjumprightshoot_data)
;
; else
;
	jmp     L0061
;
; tempint = animate_playerjumpright_data;
;
L001B:	lda     #>(_animate_playerjumpright_data)
	sta     _tempint+1
	lda     #<(_animate_playerjumpright_data)
;
; return;
;
	jmp     L0061
;
; else if (player_on_ladder)
;
L0016:	lda     _player_on_ladder
	jeq     L001E
;
; if (player_shooting)
;
	lda     _player_shooting
	beq     L001F
;
; if (direction == LEFT)
;
	lda     _direction
	bne     L0020
;
; tempint = animate_playerclimbshootleft_data;
;
	lda     #>(_animate_playerclimbshootleft_data)
	sta     _tempint+1
	lda     #<(_animate_playerclimbshootleft_data)
	sta     _tempint
;
; player_on_ladder_pose = 0;
;
	lda     #$00
;
; else
;
	jmp     L005B
;
; tempint = animate_playerclimbshootright_data;
;
L0020:	lda     #>(_animate_playerclimbshootright_data)
	sta     _tempint+1
	lda     #<(_animate_playerclimbshootright_data)
	sta     _tempint
;
; player_on_ladder_pose = PLAYER_LADDER_1_FRAMES;
;
	lda     #$0F
L005B:	sta     _player_on_ladder_pose
;
; return;
;
	jmp     L007C
;
; if (player_on_ladder_top)
;
L001F:	lda     _player_on_ladder_top
	beq     L0066
;
; oam_meta_spr(temp_x, temp_y, animate_laddertop_data);
;
	jsr     decsp2
	lda     _temp_x
	ldy     #$01
	sta     (sp),y
	lda     _temp_y
	dey
	sta     (sp),y
	lda     #<(_animate_laddertop_data)
	ldx     #>(_animate_laddertop_data)
;
; else
;
	jmp     L0058
;
; if (player_on_ladder_pose < PLAYER_LADDER_1_FRAMES)
;
L0066:	lda     _player_on_ladder_pose
	cmp     #$0F
	bcs     L0067
;
; oam_meta_spr(temp_x, temp_y, animate_playerclimb1_data);
;
	jsr     decsp2
	lda     _temp_x
	ldy     #$01
	sta     (sp),y
	lda     _temp_y
	dey
	sta     (sp),y
	lda     #<(_animate_playerclimb1_data)
	ldx     #>(_animate_playerclimb1_data)
;
; else if (player_on_ladder_pose < PLAYER_LADDER_2_FRAMES)
;
	jmp     L0058
L0067:	lda     _player_on_ladder_pose
	cmp     #$1E
	bcs     L0026
;
; oam_meta_spr(temp_x, temp_y, animate_playerclimb2_data);
;
	jsr     decsp2
	lda     _temp_x
	ldy     #$01
	sta     (sp),y
	lda     _temp_y
	dey
	sta     (sp),y
	lda     #<(_animate_playerclimb2_data)
	ldx     #>(_animate_playerclimb2_data)
;
; else
;
	jmp     L0058
;
; oam_meta_spr(temp_x, temp_y, animate_playerclimb1_data);
;
L0026:	jsr     decsp2
	lda     _temp_x
	ldy     #$01
	sta     (sp),y
	lda     _temp_y
	dey
	sta     (sp),y
	lda     #<(_animate_playerclimb1_data)
	ldx     #>(_animate_playerclimb1_data)
	jsr     _oam_meta_spr
;
; player_on_ladder_pose = 0;
;
	lda     #$00
	sta     _player_on_ladder_pose
;
; return;
;
	rts
;
; else if (player_is_running) // running
;
L001E:	lda     _player_is_running
	jeq     L0029
;
; if (sprite_frame_counter < PLAYER_RUN_1_FRAMES)
;
	lda     _sprite_frame_counter
	cmp     #$0C
	bcs     L0068
;
; if (direction == LEFT)
;
	lda     _direction
	bne     L002B
;
; if (player_shooting)
;
	lda     _player_shooting
	beq     L002C
;
; tempint = animate_playerrunshoot1left_data;
;
	lda     #>(_animate_playerrunshoot1left_data)
	sta     _tempint+1
	lda     #<(_animate_playerrunshoot1left_data)
;
; else
;
	jmp     L0061
;
; tempint = animate_playerrun1left_data;
;
L002C:	lda     #>(_animate_playerrun1left_data)
	sta     _tempint+1
	lda     #<(_animate_playerrun1left_data)
;
; else
;
	jmp     L0061
;
; if (player_shooting)
;
L002B:	lda     _player_shooting
	jeq     L004E
;
; tempint = animate_playerrunshoot1right_data;
;
	lda     #>(_animate_playerrunshoot1right_data)
	sta     _tempint+1
	lda     #<(_animate_playerrunshoot1right_data)
;
; else
;
	jmp     L0061
;
; else if (sprite_frame_counter < PLAYER_RUN_2_FRAMES)
;
L0068:	lda     _sprite_frame_counter
	cmp     #$18
	bcs     L0069
;
; if (direction == LEFT)
;
	lda     _direction
	bne     L0033
;
; if (player_shooting)
;
	lda     _player_shooting
	beq     L0034
;
; tempint = animate_playerrunshoot2left_data;
;
	lda     #>(_animate_playerrunshoot2left_data)
	sta     _tempint+1
	lda     #<(_animate_playerrunshoot2left_data)
;
; else
;
	jmp     L0061
;
; tempint = animate_playerrun2left_data;
;
L0034:	lda     #>(_animate_playerrun2left_data)
	sta     _tempint+1
	lda     #<(_animate_playerrun2left_data)
;
; else
;
	jmp     L0061
;
; if (player_shooting)
;
L0033:	lda     _player_shooting
	beq     L0037
;
; tempint = animate_playerrunshoot2right_data;
;
	lda     #>(_animate_playerrunshoot2right_data)
	sta     _tempint+1
	lda     #<(_animate_playerrunshoot2right_data)
;
; else
;
	jmp     L0061
;
; tempint = animate_playerrun2right_data;
;
L0037:	lda     #>(_animate_playerrun2right_data)
	sta     _tempint+1
	lda     #<(_animate_playerrun2right_data)
;
; else if (sprite_frame_counter < PLAYER_RUN_3_FRAMES)
;
	jmp     L0061
L0069:	lda     _sprite_frame_counter
	cmp     #$24
	bcs     L006A
;
; if (direction == LEFT)
;
	lda     _direction
	bne     L003B
;
; if (player_shooting)
;
	lda     _player_shooting
	beq     L003C
;
; tempint = animate_playerrunshoot3left_data;
;
	lda     #>(_animate_playerrunshoot3left_data)
	sta     _tempint+1
	lda     #<(_animate_playerrunshoot3left_data)
;
; else
;
	jmp     L0061
;
; tempint = animate_playerrun3left_data;
;
L003C:	lda     #>(_animate_playerrun3left_data)
	sta     _tempint+1
	lda     #<(_animate_playerrun3left_data)
;
; else
;
	jmp     L0061
;
; if (player_shooting)
;
L003B:	lda     _player_shooting
	beq     L003F
;
; tempint = animate_playerrunshoot3right_data;
;
	lda     #>(_animate_playerrunshoot3right_data)
	sta     _tempint+1
	lda     #<(_animate_playerrunshoot3right_data)
;
; else
;
	jmp     L0061
;
; tempint = animate_playerrun3right_data;
;
L003F:	lda     #>(_animate_playerrun3right_data)
	sta     _tempint+1
	lda     #<(_animate_playerrun3right_data)
;
; else if (sprite_frame_counter < PLAYER_RUN_4_FRAMES)
;
	jmp     L0061
L006A:	lda     _sprite_frame_counter
	cmp     #$30
	bcs     L006B
;
; if (direction == LEFT)
;
	lda     _direction
	bne     L0043
;
; if (player_shooting)
;
	lda     _player_shooting
	beq     L0044
;
; tempint = animate_playerrunshoot2left_data;
;
	lda     #>(_animate_playerrunshoot2left_data)
	sta     _tempint+1
	lda     #<(_animate_playerrunshoot2left_data)
;
; else
;
	jmp     L0061
;
; tempint = animate_playerrun2left_data;
;
L0044:	lda     #>(_animate_playerrun2left_data)
	sta     _tempint+1
	lda     #<(_animate_playerrun2left_data)
;
; else
;
	jmp     L0061
;
; if (player_shooting)
;
L0043:	lda     _player_shooting
	beq     L0047
;
; tempint = animate_playerrunshoot2right_data;
;
	lda     #>(_animate_playerrunshoot2right_data)
	sta     _tempint+1
	lda     #<(_animate_playerrunshoot2right_data)
;
; else
;
	jmp     L0061
;
; tempint = animate_playerrun2right_data;
;
L0047:	lda     #>(_animate_playerrun2right_data)
	sta     _tempint+1
	lda     #<(_animate_playerrun2right_data)
;
; else
;
	jmp     L0061
;
; sprite_frame_counter = 0;
;
L006B:	lda     #$00
	sta     _sprite_frame_counter
;
; if (direction == LEFT)
;
	lda     _direction
	bne     L004A
;
; if (player_shooting)
;
	lda     _player_shooting
	beq     L004B
;
; tempint = animate_playerrunshoot1left_data;
;
	lda     #>(_animate_playerrunshoot1left_data)
	sta     _tempint+1
	lda     #<(_animate_playerrunshoot1left_data)
;
; else
;
	jmp     L0061
;
; tempint = animate_playerrun1left_data;
;
L004B:	lda     #>(_animate_playerrun1left_data)
	sta     _tempint+1
	lda     #<(_animate_playerrun1left_data)
;
; else
;
	jmp     L0061
;
; if (player_shooting)
;
L004A:	lda     _player_shooting
	beq     L004E
;
; tempint = animate_playerrunshoot1right_data;
;
	lda     #>(_animate_playerrunshoot1right_data)
	sta     _tempint+1
	lda     #<(_animate_playerrunshoot1right_data)
;
; else
;
	jmp     L0061
;
; tempint = animate_playerrun1right_data;
;
L004E:	lda     #>(_animate_playerrun1right_data)
	sta     _tempint+1
	lda     #<(_animate_playerrun1right_data)
;
; return;
;
	jmp     L0061
;
; if (player_shooting)
;
L0029:	lda     _player_shooting
	beq     L006C
;
; if (direction == LEFT)
;
	lda     _direction
	bne     L0052
;
; tempint = animate_playerstandshootleft_data;
;
	lda     #>(_animate_playerstandshootleft_data)
	sta     _tempint+1
	lda     #<(_animate_playerstandshootleft_data)
;
; else
;
	jmp     L0061
;
; tempint = animate_playerstandshootright_data;
;
L0052:	lda     #>(_animate_playerstandshootright_data)
	sta     _tempint+1
	lda     #<(_animate_playerstandshootright_data)
;
; else
;
	jmp     L0061
;
; if (direction == LEFT)
;
L006C:	lda     _direction
	bne     L0055
;
; tempint = animate_playerstandleft_data;
;
	lda     #>(_animate_playerstandleft_data)
	sta     _tempint+1
	lda     #<(_animate_playerstandleft_data)
;
; else
;
	jmp     L0061
;
; tempint = animate_playerstandright_data;
;
L0055:	lda     #>(_animate_playerstandright_data)
	sta     _tempint+1
	lda     #<(_animate_playerstandright_data)
L0061:	sta     _tempint
;
; oam_meta_spr(temp_x, temp_y, tempint);
;
L007C:	jsr     decsp2
	lda     _temp_x
	ldy     #$01
	sta     (sp),y
	lda     _temp_y
	dey
	sta     (sp),y
	lda     _tempint
	ldx     _tempint+1
L0058:	jmp     _oam_meta_spr

.endproc

; ---------------------------------------------------------------
; void __near__ main (void)
; ---------------------------------------------------------------

.segment	"CODE"

.proc	_main: near

.segment	"CODE"

;
; level = 0;
;
	lda     #$00
	sta     _level
;
; reset();
;
	jsr     _reset
;
; load_title();
;
	jsr     _load_title
;
; while (game_mode == MODE_TITLE)
;
	jmp     L004C
;
; ppu_wait_nmi();    
;
L0005:	jsr     _ppu_wait_nmi
;
; pad1 = pad_poll(0); // read the first controller
;
	lda     #$00
	jsr     _pad_poll
	sta     _pad1
;
; pad1_new = get_pad_new(0);
;
	lda     #$00
	jsr     _get_pad_new
	sta     _pad1_new
;
; if (pad1_new & PAD_START)
;
	and     #$10
	beq     L004C
;
; if (pad1 & PAD_UP){
;
	lda     _pad1
	and     #$08
	beq     L004B
;
; multi_jump_max = 2;
;
	lda     #$02
	sta     _multi_jump_max
;
; sfx_play(SFX_START_LEVEL, 0);
;
L004B:	lda     #$06
	jsr     pusha
	lda     #$00
	jsr     _sfx_play
;
; pal_bright(3);
;
	lda     #$03
	jsr     _pal_bright
;
; waitTen();
;
	jsr     _waitTen
;
; pal_bright(2);
;
	lda     #$02
	jsr     _pal_bright
;
; waitTen();
;
	jsr     _waitTen
;
; pal_bright(1);
;
	lda     #$01
	jsr     _pal_bright
;
; waitTen();
;
	jsr     _waitTen
;
; pal_bright(0);
;
	lda     #$00
	jsr     _pal_bright
;
; waitTen();
;
	jsr     _waitTen
;
; waitTen();
;
	jsr     _waitTen
;
; waitTen();
;
	jsr     _waitTen
;
; game_mode = MODE_GAME;
;
	lda     #$01
	sta     _game_mode
;
; load_room();
;
	jsr     _load_room
;
; pal_bright(1);
;
	lda     #$01
	jsr     _pal_bright
;
; waitTen();
;
	jsr     _waitTen
;
; pal_bright(2);
;
	lda     #$02
	jsr     _pal_bright
;
; waitTen();
;
	jsr     _waitTen
;
; pal_bright(3);
;
	lda     #$03
	jsr     _pal_bright
;
; waitTen();
;
	jsr     _waitTen
;
; pal_bright(4);
;
	lda     #$04
	jsr     _pal_bright
;
; waitTen();
;
	jsr     _waitTen
;
; song = SONG_GAME;
;
	lda     #$00
	sta     _song
;
; music_play(song);
;
	jsr     _music_play
;
; set_music_speed(10);
;
	lda     #$0A
	jsr     _set_music_speed
;
; while (game_mode == MODE_TITLE)
;
L004C:	lda     _game_mode
	jeq     L0005
;
; while (game_mode == MODE_GAME)
;
	jmp     L0063
;
; ++frame_counter;
;
L004D:	inc     _frame_counter
;
; ppu_wait_nmi(); // wait till beginning of the frame
;
	jsr     _ppu_wait_nmi
;
; pad1 = pad_poll(0); // read the first controller
;
	lda     #$00
	jsr     _pad_poll
	sta     _pad1
;
; pad1_new = get_pad_new(0);
;
	lda     #$00
	jsr     _get_pad_new
	sta     _pad1_new
;
; pad1_state = pad_state(0);
;
	lda     #$00
	jsr     _pad_state
	sta     _pad1_state
;
; if (pad1_new & PAD_START)   
;
	lda     _pad1_new
	and     #$10
	beq     L000D
;
; game_mode = MODE_PAUSE;
;
	lda     #$02
	sta     _game_mode
;
; music_pause(1);
;
	lda     #$01
	jsr     _music_pause
;
; ppu_mask(0b00011001); // grayscale mode
;
	lda     #$19
	jsr     _ppu_mask
;
; break; // out of the game loop
;
	jmp     L006C
;
; movement();
;
L000D:	jsr     _movement
;
; check_spr_objects();
;
	jsr     _check_spr_objects
;
; check_entity_objects();
;
	jsr     _check_entity_objects
;
; projectile_movement();
;
	jsr     _projectile_movement
;
; sprite_collisions();
;
	jsr     _sprite_collisions
;
; entity_collisions();
;
	jsr     _entity_collisions
;
; set_scroll_x(scroll_x);
;
	lda     _scroll_x
	ldx     _scroll_x+1
	jsr     _set_scroll_x
;
; set_scroll_y(scroll_y);
;
	lda     _scroll_y
	ldx     _scroll_y+1
	jsr     _set_scroll_y
;
; handle_scrolling();
;
	jsr     _handle_scrolling
;
; draw_sprites();
;
	jsr     _draw_sprites
;
; if (BoxGuy1.health == 0 || BoxGuy1.health > MAX_PLAYER_HEALTH) // if it wraps
;
	lda     _BoxGuy1+8
	beq     L004E
	cmp     #$1D
	bcc     L000E
;
; death = 1;
;
L004E:	lda     #$01
	sta     _death
;
; if (death)
;
L000E:	lda     _death
	beq     L004F
;
; init_death();
;
	jsr     _init_death
;
; if (high_byte(BoxGuy1.y) < 0x08 && level_up && player_on_ladder)
;
L004F:	lda     _BoxGuy1+3
	cmp     #$08
	bcs     L0053
	lda     _level_up
	beq     L0053
	lda     _player_on_ladder
	beq     L0053
;
; BoxGuy1.y = 0xD000; // put the user above the bottom of the screen.
;
	ldx     #$D0
	lda     #$00
	sta     _BoxGuy1+2
	stx     _BoxGuy1+2+1
;
; level_up_routine();
;
	jsr     _level_up_routine
;
; if (high_byte(BoxGuy1.y) > 0xd0 && high_byte(BoxGuy1.y) < 0xf4 && level_up) // todo: might need less than 0xd0
;
L0053:	lda     _BoxGuy1+3
	cmp     #$D1
	bcc     L0057
	cmp     #$F4
	bcs     L0057
	lda     _level_up
	beq     L0057
;
; BoxGuy1.y = 0x1800; // put the user near the top of screen
;
	ldx     #$18
	lda     #$00
	sta     _BoxGuy1+2
	stx     _BoxGuy1+2+1
;
; level_up_routine();
;
	jsr     _level_up_routine
;
; if (high_byte(BoxGuy1.y) < 0x08 && level_down && player_on_ladder)
;
L0057:	lda     _BoxGuy1+3
	cmp     #$08
	bcs     L005B
	lda     _level_down
	beq     L005B
	lda     _player_on_ladder
	beq     L005B
;
; BoxGuy1.y = 0xD000; // put the user above the bottom of the screen.
;
	ldx     #$D0
	lda     #$00
	sta     _BoxGuy1+2
	stx     _BoxGuy1+2+1
;
; level_down_routine();
;
	jsr     _level_down_routine
;
; if (high_byte(BoxGuy1.y) > 0xd0 && level_down)
;
L005B:	lda     _BoxGuy1+3
	cmp     #$D1
	bcc     L005F
	lda     _level_down
	beq     L005F
;
; BoxGuy1.y = 0x1800; // put the user near the top of screen
;
	ldx     #$18
	lda     #$00
	sta     _BoxGuy1+2
	stx     _BoxGuy1+2+1
;
; level_down_routine();
;
	jsr     _level_down_routine
;
; if (high_byte(BoxGuy1.y) > 0xe8 && death_flag)
;
L005F:	lda     _BoxGuy1+3
	cmp     #$E9
	bcc     L0063
	lda     _death_flag
	beq     L0063
;
; ++death;
;
	inc     _death
;
; while (game_mode == MODE_GAME)
;
L0063:	lda     _game_mode
	cmp     #$01
	jeq     L004D
;
; while (game_mode == MODE_DEATH)
;
	jmp     L006C
;
; ppu_wait_nmi();
;
L0026:	jsr     _ppu_wait_nmi
;
; pad1 = pad_poll(0); // read the first controller
;
	lda     #$00
	jsr     _pad_poll
	sta     _pad1
;
; pad1_new = get_pad_new(0);
;
	lda     #$00
	jsr     _get_pad_new
	sta     _pad1_new
;
; temp_x = 120;
;
	lda     #$78
	sta     _temp_x
;
; temp_y = 195;
;
	lda     #$C3
	sta     _temp_y
;
; if (frame_counter < 250)
;
	lda     _frame_counter
	cmp     #$FA
	jcs     L006B
;
; oam_clear();
;
	jsr     _oam_clear
;
; ++frame_counter;
;
	inc     _frame_counter
;
; if (frame_counter < 40)
;
	lda     _frame_counter
	cmp     #$28
	bcs     L0064
;
; tempint = animate_playerstandright_data;
;
	lda     #>(_animate_playerstandright_data)
	sta     _tempint+1
	lda     #<(_animate_playerstandright_data)
;
; else if (frame_counter < 50)
;
	jmp     L004A
L0064:	lda     _frame_counter
	cmp     #$32
	bcs     L0065
;
; tempint = animate_deathright1_data;
;
	lda     #>(_animate_deathright1_data)
	sta     _tempint+1
	lda     #<(_animate_deathright1_data)
;
; else if (frame_counter < 60)
;
	jmp     L004A
L0065:	lda     _frame_counter
	cmp     #$3C
	bcs     L0066
;
; tempint = animate_deathright2_data;
;
	lda     #>(_animate_deathright2_data)
	sta     _tempint+1
	lda     #<(_animate_deathright2_data)
;
; else if (frame_counter < 70)
;
	jmp     L004A
L0066:	lda     _frame_counter
	cmp     #$46
	bcs     L0067
;
; tempint = animate_deathright3_data;
;
	lda     #>(_animate_deathright3_data)
	sta     _tempint+1
	lda     #<(_animate_deathright3_data)
;
; else if (frame_counter < 80)
;
	jmp     L004A
L0067:	lda     _frame_counter
	cmp     #$50
	bcs     L0068
;
; tempint = animate_deathright4_data;
;
	lda     #>(_animate_deathright4_data)
	sta     _tempint+1
	lda     #<(_animate_deathright4_data)
;
; else if (frame_counter < 90)
;
	jmp     L004A
L0068:	lda     _frame_counter
	cmp     #$5A
	bcs     L0069
;
; tempint = animate_deathright5_data;
;
	lda     #>(_animate_deathright5_data)
	sta     _tempint+1
	lda     #<(_animate_deathright5_data)
;
; else if (frame_counter < 100)
;
	jmp     L004A
L0069:	lda     _frame_counter
	cmp     #$64
	bcs     L006A
;
; tempint = animate_deathright6_data;
;
	lda     #>(_animate_deathright6_data)
	sta     _tempint+1
	lda     #<(_animate_deathright6_data)
;
; else if (frame_counter < 110)
;
	jmp     L004A
L006A:	lda     _frame_counter
	cmp     #$6E
	bcs     L0038
;
; tempint = animate_deathright7_data;
;
	lda     #>(_animate_deathright7_data)
	sta     _tempint+1
	lda     #<(_animate_deathright7_data)
;
; else
;
	jmp     L004A
;
; tempint = animate_deathright8_data;
;
L0038:	lda     #>(_animate_deathright8_data)
	sta     _tempint+1
	lda     #<(_animate_deathright8_data)
L004A:	sta     _tempint
;
; oam_meta_spr(temp_x, temp_y, tempint);
;
	jsr     decsp2
	lda     _temp_x
	ldy     #$01
	sta     (sp),y
	lda     _temp_y
	dey
	sta     (sp),y
	lda     _tempint
	ldx     _tempint+1
	jsr     _oam_meta_spr
;
; if (pad1_new & PAD_START)
;
L006B:	lda     _pad1_new
	and     #$10
	beq     L006C
;
; reset();
;
	jsr     _reset
;
; load_title();
;
	jsr     _load_title
;
; game_mode = MODE_TITLE;
;
	lda     #$00
	sta     _game_mode
;
; while (game_mode == MODE_DEATH)
;
L006C:	lda     _game_mode
	cmp     #$03
	jeq     L0026
;
; while (game_mode == MODE_PAUSE)
;
	jmp     L006D
;
; ppu_wait_nmi();
;
L003B:	jsr     _ppu_wait_nmi
;
; pad1 = pad_poll(0); // read the first controller
;
	lda     #$00
	jsr     _pad_poll
	sta     _pad1
;
; pad1_new = get_pad_new(0);
;
	lda     #$00
	jsr     _get_pad_new
	sta     _pad1_new
;
; if (pad1_new & PAD_START)
;
	and     #$10
	beq     L006D
;
; game_mode = MODE_GAME;
;
	lda     #$01
	sta     _game_mode
;
; song = SONG_GAME;
;
	lda     #$00
	sta     _song
;
; music_pause(0);
;
	jsr     _music_pause
;
; ppu_mask(0b00011000); // grayscale mode
;
	lda     #$18
	jsr     _ppu_mask
;
; while (game_mode == MODE_PAUSE)
;
L006D:	lda     _game_mode
	cmp     #$02
	beq     L003B
;
; while(game_mode == MODE_HALFWAY){
;
	jmp     L006E
;
; ppu_wait_nmi();
;
L003F:	jsr     _ppu_wait_nmi
;
; pad1 = pad_poll(0); // read the first controller
;
	lda     #$00
	jsr     _pad_poll
	sta     _pad1
;
; pad1_new = get_pad_new(0);
;
	lda     #$00
	jsr     _get_pad_new
	sta     _pad1_new
;
; if (pad1_new & PAD_START)
;
	and     #$10
	beq     L006E
;
; reset();
;
	jsr     _reset
;
; ++multi_jump_max;
;
	inc     _multi_jump_max
;
; ++projectile_big;
;
	inc     _projectile_big
;
; level = 6;
;
	lda     #$06
	sta     _level
;
; load_room();
;
	jsr     _load_room
;
; game_mode = MODE_GAME;
;
	lda     #$01
	sta     _game_mode
;
; while(game_mode == MODE_HALFWAY){
;
L006E:	lda     _game_mode
	cmp     #$09
	beq     L003F
;
; while (game_mode == MODE_SWITCH)
;
	jmp     L006F
;
; oam_clear();
;
L0043:	jsr     _oam_clear
;
; load_room();
;
	jsr     _load_room
;
; game_mode = MODE_GAME;
;
	lda     #$01
	sta     _game_mode
;
; pal_bright(4); // back to normal brighness
;
	lda     #$04
	jsr     _pal_bright
;
; while (game_mode == MODE_SWITCH)
;
L006F:	lda     _game_mode
	cmp     #$04
	beq     L0043
;
; while (game_mode == MODE_END)
;
	jmp     L0070
;
; ppu_wait_nmi();
;
L0046:	jsr     _ppu_wait_nmi
;
; level = 0;
;
	lda     #$00
	sta     _level
;
; pad1 = pad_poll(0); // read the first controller
;
	jsr     _pad_poll
	sta     _pad1
;
; pad1_new = get_pad_new(0);
;
	lda     #$00
	jsr     _get_pad_new
	sta     _pad1_new
;
; if (pad1_new & PAD_START)
;
	and     #$10
	beq     L0070
;
; reset();
;
	jsr     _reset
;
; load_title();
;
	jsr     _load_title
;
; game_mode = MODE_TITLE;
;
	lda     #$00
	sta     _game_mode
;
; while (game_mode == MODE_END)
;
L0070:	lda     _game_mode
	cmp     #$05
	beq     L0046
;
; while (1) 
;
	jmp     L004C

.endproc

; ---------------------------------------------------------------
; void __near__ load_gameover (void)
; ---------------------------------------------------------------

.segment	"CODE"

.proc	_load_gameover: near

.segment	"CODE"

;
; clear_vram_buffer();
;
	jsr     _clear_vram_buffer
;
; pal_bg(palette_gameover);
;
	lda     #<(_palette_gameover)
	ldx     #>(_palette_gameover)
	jsr     _pal_bg
;
; set_data_pointer(gameovertiled_0);
;
	lda     #<(_gameovertiled_0)
	ldx     #>(_gameovertiled_0)
	jsr     _set_data_pointer
;
; for (y = 0;; y += 0x20)
;
	lda     #$00
L000E:	sta     _y
;
; for (x = 0;; x += 0x20)
;
	lda     #$00
L000D:	sta     _x
;
; address = get_ppu_addr(0, x, y);
;
	jsr     decsp2
	lda     #$00
	ldy     #$01
	sta     (sp),y
	lda     _x
	dey
	sta     (sp),y
	lda     _y
	jsr     _get_ppu_addr
	sta     _address
	stx     _address+1
;
; index = (y & 0xf0) + (x >> 4);
;
	lda     _y
	and     #$F0
	sta     ptr1
	lda     _x
	lsr     a
	lsr     a
	lsr     a
	lsr     a
	clc
	adc     ptr1
	sta     _index
;
; buffer_4_mt(address, index); // ppu_address, index to the data
;
	lda     _address
	ldx     _address+1
	jsr     pushax
	lda     _index
	jsr     _buffer_4_mt
;
; flush_vram_update2();
;
	jsr     _flush_vram_update2
;
; if (x == 0xe0)
;
	lda     _x
	cmp     #$E0
;
; break;
;
	beq     L000F
;
; for (x = 0;; x += 0x20)
;
	lda     #$20
	clc
	adc     _x
	jmp     L000D
;
; if (y == 0xe0)
;
L000F:	lda     _y
	cmp     #$E0
;
; break;
;
	beq     L0003
;
; for (y = 0;; y += 0x20)
;
	lda     #$20
	clc
	adc     _y
	jmp     L000E
;
; multi_vram_buffer_horz("GAME OVER", 10, NTADR_A(11, 12));
;
L0003:	jsr     decsp3
	lda     #<(S0005)
	ldy     #$01
	sta     (sp),y
	iny
	lda     #>(S0005)
	sta     (sp),y
	lda     #$0A
	ldy     #$00
	sta     (sp),y
	ldx     #$21
	lda     #$8B
	jsr     _multi_vram_buffer_horz
;
; multi_vram_buffer_horz("PRESS START", 12, NTADR_A(10, 14));
;
	jsr     decsp3
	lda     #<(S0006)
	ldy     #$01
	sta     (sp),y
	iny
	lda     #>(S0006)
	sta     (sp),y
	lda     #$0C
	ldy     #$00
	sta     (sp),y
	ldx     #$21
	lda     #$CA
	jmp     _multi_vram_buffer_horz

.endproc

; ---------------------------------------------------------------
; void __near__ clear_bg (void)
; ---------------------------------------------------------------

.segment	"CODE"

.proc	_clear_bg: near

.segment	"CODE"

;
; for (y = 0;; y += 0x20)
;
	lda     #$00
L000D:	sta     _y
;
; for (x = 0;; x += 0x20)
;
	lda     #$00
L000C:	sta     _x
;
; address = get_ppu_addr(nametable_to_load, x, y);
;
	jsr     decsp2
	lda     _nametable_to_load
	ldy     #$01
	sta     (sp),y
	lda     _x
	dey
	sta     (sp),y
	lda     _y
	jsr     _get_ppu_addr
	sta     _address
	stx     _address+1
;
; buffer_4_mt(address, 3); // ppu_address, index to the data
;
	jsr     pushax
	lda     #$03
	jsr     _buffer_4_mt
;
; flush_vram_update2();
;
	jsr     _flush_vram_update2
;
; if (x == 0xe0)
;
	lda     _x
	cmp     #$E0
;
; break;
;
	beq     L000E
;
; for (x = 0;; x += 0x20)
;
	lda     #$20
	clc
	adc     _x
	jmp     L000C
;
; if (y == 0xe0)
;
L000E:	lda     _y
	cmp     #$E0
;
; break;
;
	beq     L0003
;
; for (y = 0;; y += 0x20)
;
	lda     #$20
	clc
	adc     _y
	jmp     L000D
;
; }
;
L0003:	rts

.endproc

; ---------------------------------------------------------------
; void __near__ enemy_implosion (void)
; ---------------------------------------------------------------

.segment	"CODE"

.proc	_enemy_implosion: near

.segment	"CODE"

;
; if(enemy_frames[index] < 4){
;
	ldy     _index
	lda     _enemy_frames,y
	cmp     #$04
	bcs     L0002
;
; enemy_anim[index] = animate_implosion1_data;
;
	ldx     #$00
	lda     _index
	asl     a
	bcc     L0010
	inx
	clc
L0010:	adc     #<(_enemy_anim)
	sta     ptr1
	txa
	adc     #>(_enemy_anim)
	sta     ptr1+1
	lda     #<(_animate_implosion1_data)
	ldy     #$00
	sta     (ptr1),y
	iny
	lda     #>(_animate_implosion1_data)
	sta     (ptr1),y
;
; } else if (enemy_frames[index] < 8){
;
	rts
L0002:	ldy     _index
	lda     _enemy_frames,y
	cmp     #$08
	bcs     L0005
;
; enemy_anim[index] = animate_implosion2_data;
;
	ldx     #$00
	lda     _index
	asl     a
	bcc     L0011
	inx
	clc
L0011:	adc     #<(_enemy_anim)
	sta     ptr1
	txa
	adc     #>(_enemy_anim)
	sta     ptr1+1
	lda     #<(_animate_implosion2_data)
	ldy     #$00
	sta     (ptr1),y
	iny
	lda     #>(_animate_implosion2_data)
	sta     (ptr1),y
;
; } else if (enemy_frames[index] < 12){
;
	rts
L0005:	ldy     _index
	lda     _enemy_frames,y
	cmp     #$0C
	bcs     L0008
;
; enemy_anim[index] = animate_implosion3_data;
;
	ldx     #$00
	lda     _index
	asl     a
	bcc     L0012
	inx
	clc
L0012:	adc     #<(_enemy_anim)
	sta     ptr1
	txa
	adc     #>(_enemy_anim)
	sta     ptr1+1
	lda     #<(_animate_implosion3_data)
	ldy     #$00
	sta     (ptr1),y
	iny
	lda     #>(_animate_implosion3_data)
	sta     (ptr1),y
;
; } else{
;
	rts
;
; enemy_y[index] = TURN_OFF;
;
L0008:	ldy     _index
	lda     #$FF
	sta     _enemy_y,y
;
; enemy_mode[index] = 0;
;
	ldy     _index
	lda     #$00
	sta     _enemy_mode,y
;
; }
;
	rts

.endproc

